cnltk.probability
FreqDist
p0
((dp1
(S'cement'
p2
S'look'
p3
tp4
I2
s(S'girl'
p5
S'look'
p6
tp7
I7
s(S'racket'
p8
S'play'
p9
tp10
I1
s(S'rock'
p11
S'climb'
p12
tp13
I29
s(S'child'
p14
S'reach'
p15
tp16
I2
s(S'collar'
p17
S'log'
p18
tp19
I1
s(S'boy'
p20
S'printed'
p21
tp22
I2
s(S'group'
p23
S'compete'
p24
tp25
I1
s(S'boy'
p26
S'hang'
p27
tp28
I8
s(S'flag'
p29
S'hold'
p30
tp31
I1
s(S'guy'
p32
S'perform'
p33
tp34
I2
s(S'woman'
p35
S'say'
p36
tp37
I2
s(S'guy'
p38
S'sit'
p39
tp40
I2
s(S'someone'
p41
S'sit'
p42
tp43
I2
s(S'toy'
p44
S'go'
p45
tp46
I1
s(S'person'
p47
S'appear'
p48
tp49
I2
s(S'man'
p50
S'stretch'
p51
tp52
I3
s(S'woman'
p53
S'prepare'
p54
tp55
I3
s(S'black'
p56
S'come'
p57
tp58
I1
s(S'path'
p59
S'stick'
p60
tp61
I1
s(S'road'
p62
S'lead'
p63
tp64
I1
s(S'deck'
p65
S'take'
p66
tp67
I1
s(S'sponsor'
p68
S'be'
p69
tp70
I2
s(S'boy'
p71
S'leave'
p72
tp73
I1
s(S'hand'
p74
S'sit'
p75
tp76
I2
s(S'something'
p77
S'be'
p78
tp79
I7
s(S'ball'
p80
S'crowded'
p81
tp82
I1
s(S'set'
p83
S'hold'
p84
tp85
I1
s(S'snow'
p86
S'hang'
p87
tp88
I1
s(S'player'
p89
S'prepare'
p90
tp91
I1
s(S'person'
p92
S'reach'
p93
tp94
I1
s(S'tag'
p95
S'pour'
p96
tp97
I1
s(S'girl'
p98
S'run'
p99
tp100
I34
s(S'speed'
p101
S'advertise'
p102
tp103
I1
s(S'couple'
p104
S'display'
p105
tp106
I1
s(S'airplane'
p107
S'be'
p108
tp109
I3
s(S'boy'
p110
S'pass'
p111
tp112
I1
s(S'child'
p113
S'play'
p114
tp115
I28
s(S'reflection'
p116
S'walk'
p117
tp118
I1
s(S'female'
p119
S'be'
p120
tp121
I1
s(S'store'
p122
S'say'
p123
tp124
I1
s(S'adult'
p125
S'encourage'
p126
tp127
I1
s(S'people'
p128
S'wear'
p129
tp130
I2
s(S'hair'
p131
S'play'
p132
tp133
I1
s(S'player'
p134
S'take'
p135
tp136
I1
s(S'church'
p137
S'take'
p138
tp139
I1
s(S'girl'
p140
S'make'
p141
tp142
I2
s(S'necklace'
p143
S'be'
p144
tp145
I2
s(S'girl'
p146
S'cover'
p147
tp148
I4
s(S'car'
p149
S'advertise'
p150
tp151
I1
s(S'child'
p152
S'string'
p153
tp154
I1
s(S'path'
p155
S'cover'
p156
tp157
I2
s(S'white'
p158
S'play'
p159
tp160
I3
s(S'slide'
p161
S'try'
p162
tp163
I1
s(S'person'
p164
S'crossing'
p165
tp166
I2
s(S'woman'
p167
S'does'
p168
tp169
I1
s(S'team'
p170
S'be'
p171
tp172
I8
s(S'official'
p173
S'carry'
p174
tp175
I1
s(g155
S'have'
p176
tp177
I1
s(S'girl'
p178
S'watch'
p179
tp180
I6
s(S'arm'
p181
S'stretch'
p182
tp183
I1
s(S'child'
p184
S'indicate'
p185
tp186
I1
s(S'player'
p187
S'block'
p188
tp189
I2
s(S'boy'
p190
S'writing'
p191
tp192
I1
s(S'child'
p193
S'numbered'
p194
tp195
I1
s(S'people'
p196
S'shoot'
p197
tp198
I1
s(S'stand'
p199
S'get'
p200
tp201
I1
s(S'girl'
p202
S'push'
p203
tp204
I2
s(S'air'
p205
S'have'
p206
tp207
I2
s(S'male'
p208
S'wear'
p209
tp210
I7
s(S'child'
p211
S'seek'
p212
tp213
I1
s(S'girl'
p214
S'set'
p215
tp216
I3
s(S'player'
p217
g174
tp218
I1
s(S'man'
p219
S'trimmed'
p220
tp221
I1
s(S'person'
p222
S'stand'
p223
tp224
I20
s(S'try'
p225
S'ring'
p226
tp227
I1
s(S'player'
p228
S'try'
p229
tp230
I1
s(S'race'
p231
S'wear'
p232
tp233
I4
s(S'studio'
p234
S'hold'
p235
tp236
I1
s(S'man'
p237
S'drink'
p238
tp239
I12
s(S'girl'
p240
S'come'
p241
tp242
I2
s(S'red'
p243
S'pose'
p244
tp245
I1
s(S'direction'
p246
S'be'
p247
tp248
I3
s(S'stand'
p249
S'write'
p250
tp251
I1
s(S'drink'
p252
S'walk'
p253
tp254
I1
s(S'guy'
p255
S'get'
p256
tp257
I1
s(S'march'
p258
S'play'
p259
tp260
I1
s(S'score'
p261
S'be'
p262
tp263
I1
s(S'man'
p264
S'stare'
p265
tp266
I7
s(S'guy'
p267
S'hang'
p268
tp269
I1
s(S'worker'
p270
S'stand'
p271
tp272
I1
s(S'lead'
p273
g36
tp274
I1
s(S'couple'
p275
S'paint'
p276
tp277
I2
s(S'boy'
p278
S'push'
p279
tp280
I4
s(S'woman'
p281
S'do'
p282
tp283
I5
s(S'man'
p284
S'break'
p285
tp286
I4
s(S'girl'
p287
S'read'
p288
tp289
I3
s(S'eye'
p290
S'hang'
p291
tp292
I1
s(S'member'
p293
S'oppose'
p294
tp295
I1
s(S'group'
p296
S'wait'
p297
tp298
I5
s(S'snow'
p299
S'stick'
p300
tp301
I3
s(S'arm'
p302
S'try'
p303
tp304
I1
s(S'child'
p305
S'hit'
p306
tp307
I1
s(S'hair'
p308
S'jump'
p309
tp310
I2
s(S'snow'
p311
S'be'
p312
tp313
I9
s(S'wave'
p314
S'be'
p315
tp316
I3
s(S'child'
p317
S'bounce'
p318
tp319
I5
s(S'man'
p320
S'eat'
p321
tp322
I8
s(S'top'
p323
S'hold'
p324
tp325
I1
s(S'white'
p326
S'get'
p327
tp328
I1
s(S'face'
p329
S'paint'
p330
tp331
I14
s(S'play'
p332
g318
tp333
I2
s(S'knife'
p334
S'be'
p335
tp336
I1
s(S'flag'
p337
S'hang'
p338
tp339
I1
s(S'person'
p340
S'is'
p341
tp342
I1
s(S'fashion'
p343
S'be'
p344
tp345
I1
s(S'person'
p346
S'pose'
p347
tp348
I19
s(S'lady'
p349
S'play'
p350
tp351
I1
s(S'court'
p352
S'swing'
p353
tp354
I1
s(S'baby'
p355
S'protect'
p356
tp357
I1
s(S'picture'
p358
S'give'
p359
tp360
I1
s(S'man'
p361
S'sleep'
p362
tp363
I1
s(S'field'
p364
S'have'
p365
tp366
I1
s(S'life'
p367
S'hold'
p368
tp369
I1
s(S'leap'
p370
S'burn'
p371
tp372
I1
s(S'child'
p373
S'fill'
p374
tp375
I1
s(S'baseball'
p376
S'stand'
p377
tp378
I1
s(S'nose'
p379
S'be'
p380
tp381
I2
s(S'group'
p382
S'include'
p383
tp384
I1
s(S'boy'
p385
S'say'
p386
tp387
I1
s(S'paper'
p388
S'cut'
p389
tp390
I1
s(S'woman'
p391
S'lead'
p392
tp393
I1
s(S'baby'
p394
S'have'
p395
tp396
I1
s(S'man'
p397
S'wear'
p398
tp399
I187
s(S'look'
p400
S'eat'
p401
tp402
I3
s(S'lot'
p403
S'go'
p404
tp405
I1
s(S'hand'
p406
S'play'
p407
tp408
I2
s(S'rock'
p409
S'paint'
p410
tp411
I1
s(S'someone'
p412
S'run'
p413
tp414
I2
s(S'truck'
p415
S'be'
p416
tp417
I1
s(S'chest'
p418
S'run'
p419
tp420
I1
s(S'man'
p421
S'hold'
p422
tp423
I114
s(S'suit'
p424
S'stand'
p425
tp426
I2
s(S'floor'
p427
S'chase'
p428
tp429
I1
s(S'man'
p430
S'close'
p431
tp432
I1
s(S'woman'
p433
S'launch'
p434
tp435
I1
s(S'attempt'
p436
S'pull'
p437
tp438
I1
s(S'focus'
p439
S'stand'
p440
tp441
I1
s(S'hand'
p442
S'climb'
p443
tp444
I1
s(S'restaurant'
p445
S'pour'
p446
tp447
I1
s(S'worker'
p448
S'be'
p449
tp450
I5
s(S'image'
p451
S'run'
p452
tp453
I1
s(S'ground'
p454
S'catch'
p455
tp456
I1
s(S'leash'
p457
S'take'
p458
tp459
I1
s(S'back'
p460
g324
tp461
I1
s(S'foam'
p462
S'show'
p463
tp464
I1
s(S'sweater'
p465
S'walk'
p466
tp467
I2
s(S'hair'
p468
S'stand'
p469
tp470
I2
s(S'liberty'
p471
S'take'
p472
tp473
I2
s(S'turn'
p474
S'climb'
p475
tp476
I1
s(S'reflection'
p477
S'be'
p478
tp479
I1
s(S'boy'
p480
S'enjoy'
p481
tp482
I3
s(g95
S'be'
p483
tp484
I1
s(S'player'
p485
S'keep'
p486
tp487
I1
s(S'man'
p488
g81
tp489
I1
s(S'leash'
p490
S'get'
p491
tp492
I1
s(S'front'
p493
S'be'
p494
tp495
I9
s(S'world'
p496
S'stare'
p497
tp498
I1
s(S'team'
p499
S'wear'
p500
tp501
I2
s(S'end'
p502
S'stick'
p503
tp504
I1
s(S'people'
p505
S'have'
p506
tp507
I2
s(S'boy'
p508
S'do'
p509
tp510
I21
s(S'girl'
p511
S'pine'
p512
tp513
I1
s(S'lady'
p514
S'pose'
p515
tp516
I3
s(S'trial'
p517
S'do'
p518
tp519
I2
s(S'ball'
p520
S'chase'
p521
tp522
I1
s(S'person'
p523
S'suspend'
p524
tp525
I3
s(S'nature'
p526
S'trail'
p527
tp528
I1
s(S'hand'
p529
S'look'
p530
tp531
I1
s(S'woman'
p532
S'return'
p533
tp534
I1
s(S'girl'
p535
S'eat'
p536
tp537
I26
s(S'group'
p538
S'swim'
p539
tp540
I1
s(S'number'
p541
S'have'
p542
tp543
I2
s(S'snow'
p544
S'drift'
p545
tp546
I1
s(S'girl'
p547
S'operate'
p548
tp549
I1
s(S'pet'
p550
S'chase'
p551
tp552
I1
s(g89
g440
tp553
I1
s(S'highway'
p554
S'left'
p555
tp556
I1
s(S'silver'
p557
S'display'
p558
tp559
I1
s(S'ball'
p560
S'catch'
p561
tp562
I4
s(S'try'
p563
S'look'
p564
tp565
I1
s(S'country'
p566
S'be'
p567
tp568
I3
s(S'woman'
p569
S'have'
p570
tp571
I13
s(S'balance'
p572
S'stick'
p573
tp574
I1
s(S'practice'
p575
S'target'
p576
tp577
I1
s(S'collar'
p578
S'stand'
p579
tp580
I1
s(S'man'
p581
S'turn'
p582
tp583
I1
s(S'woman'
p584
S'wait'
p585
tp586
I5
s(S'camera'
p587
S'draw'
p588
tp589
I1
s(S'stand'
p590
S'left'
p591
tp592
I2
s(S'football'
p593
S'hold'
p594
tp595
I4
s(S'seat'
p596
S'see'
p597
tp598
I1
s(S'field'
p599
S'hold'
p600
tp601
I1
s(S'face'
p602
S'hang'
p603
tp604
I1
s(S'boy'
p605
S'stand'
p606
tp607
I17
s(S'something'
p608
S'wear'
p609
tp610
I1
s(S'stand'
p611
g353
tp612
I1
s(S'man'
p613
S'ship'
p614
tp615
I1
s(S'men'
p616
S'pull'
p617
tp618
I2
s(S'area'
p619
S'shore'
p620
tp621
I1
s(S'attempt'
p622
S'catch'
p623
tp624
I4
s(S'party'
p625
S'draw'
p626
tp627
I1
s(S'player'
p628
S'break'
p629
tp630
I1
s(S'stand'
p631
S'give'
p632
tp633
I1
s(S'people'
p634
S'walk'
p635
tp636
I10
s(S'snow'
p637
S'cover'
p638
tp639
I28
s(S'girl'
p640
S'emerge'
p641
tp642
I2
s(S'child'
p643
S'fold'
p644
tp645
I1
s(S'air'
p646
S'fly'
p647
tp648
I1
s(S'fall'
p649
S'swim'
p650
tp651
I1
s(S'student'
p652
S'be'
p653
tp654
I1
s(S'elephant'
p655
S'walk'
p656
tp657
I2
s(S'others'
p658
S'jump'
p659
tp660
I1
s(S'man'
p661
S'sit'
p662
tp663
I143
s(S'group'
p664
S'shore'
p665
tp666
I1
s(g406
S'be'
p667
tp668
I7
s(S'air'
p669
S'come'
p670
tp671
I1
s(S'swing'
p672
S'walk'
p673
tp674
I1
s(S'race'
p675
S'bend'
p676
tp677
I1
s(S'man'
p678
S'saw'
p679
tp680
I1
s(S'picture'
p681
S'take'
p682
tp683
I5
s(S'show'
p684
S'sign'
p685
tp686
I1
s(S'suit'
p687
S'have'
p688
tp689
I3
s(S'camera'
p690
S'trail'
p691
tp692
I1
s(S'body'
p693
S'look'
p694
tp695
I1
s(S'person'
p696
S'climb'
p697
tp698
I14
s(S'try'
p699
S'get'
p700
tp701
I2
s(S'person'
p702
S'spread'
p703
tp704
I1
s(S'fight'
p705
S'stick'
p706
tp707
I1
s(g566
S'pass'
p708
tp709
I1
s(S'sidewalk'
p710
S'read'
p711
tp712
I1
s(S'girl'
p713
S'pose'
p714
tp715
I14
s(S'guy'
p716
S'is'
p717
tp718
I1
s(S'photograph'
p719
S'walk'
p720
tp721
I1
s(S'stand'
p722
S'fold'
p723
tp724
I3
s(S'black'
p725
g220
tp726
I1
s(S'collar'
p727
S'sit'
p728
tp729
I1
s(S'bat'
p730
S'wait'
p731
tp732
I1
s(S'leash'
p733
S'run'
p734
tp735
I1
s(S'field'
p736
S'chase'
p737
tp738
I2
s(S'race'
p739
S'begin'
p740
tp741
I1
s(S'stand'
p742
S'appear'
p743
tp744
I1
s(S'red'
p745
S'run'
p746
tp747
I1
s(S'elephant'
p748
S'carry'
p749
tp750
I2
s(S'turn'
p751
S'hit'
p752
tp753
I1
s(g104
S'look'
p754
tp755
I2
s(S'pool'
p756
S'play'
p757
tp758
I1
s(S'eye'
p759
S'run'
p760
tp761
I1
s(S'girl'
p762
S'stretch'
p763
tp764
I1
s(S'talk'
p765
S'mount'
p766
tp767
I2
s(S'try'
p768
S'climb'
p769
tp770
I1
s(S'girl'
p771
S'jump'
p772
tp773
I43
s(S'man'
p774
S'bend'
p775
tp776
I2
s(S'catch'
p777
S'clear'
p778
tp779
I1
s(S'building'
p780
S'have'
p781
tp782
I1
s(S'stuff'
p783
S'be'
p784
tp785
I1
s(S'stock'
p786
g341
tp787
I1
s(S'table'
p788
S'cover'
p789
tp790
I1
s(S'spot'
p791
S'catch'
p792
tp793
I1
s(S'man'
p794
S'stop'
p795
tp796
I4
s(S'lab'
p797
S'be'
p798
tp799
I2
s(S'way'
p800
S'receive'
p801
tp802
I1
s(S'group'
p803
S'see'
p804
tp805
I1
s(S'van'
p806
S'take'
p807
tp808
I1
s(S'apparel'
p809
S'make'
p810
tp811
I1
s(S'field'
p812
S'walk'
p813
tp814
I1
s(S'air'
p815
S'go'
p816
tp817
I2
s(S'child'
p818
S'chase'
p819
tp820
I3
s(S'men'
p821
S'stretch'
p822
tp823
I1
s(S'leap'
p824
S'fallen'
p825
tp826
I1
s(S'child'
p827
S'be'
p828
tp829
I126
s(S'door'
p830
S'drink'
p831
tp832
I1
s(S'guy'
p833
S'go'
p834
tp835
I1
s(S'group'
p836
g700
tp837
I4
s(S'talk'
p838
S'stand'
p839
tp840
I1
s(S'city'
p841
S'pass'
p842
tp843
I1
s(S'adult'
p844
S'fill'
p845
tp846
I1
s(S'others'
p847
S'walk'
p848
tp849
I4
s(S'girl'
p850
S'trail'
p851
tp852
I1
s(S'baby'
p853
S'lay'
p854
tp855
I1
s(S'man'
p856
S'pull'
p857
tp858
I11
s(S'girl'
p859
S'touch'
p860
tp861
I3
s(S'blow'
p862
g226
tp863
I1
s(S'person'
p864
S'sit'
p865
tp866
I48
s(S'size'
p867
S'run'
p868
tp869
I1
s(S'try'
p870
g188
tp871
I1
s(S'boy'
p872
S'jump'
p873
tp874
I70
s(S'football'
p875
S'wear'
p876
tp877
I6
s(S'woman'
p878
S'pose'
p879
tp880
I34
s(S'rope'
p881
S'hold'
p882
tp883
I1
s(S'man'
p884
S'carry'
p885
tp886
I15
s(S'track'
p887
S'chase'
p888
tp889
I1
s(S'try'
p890
S'walk'
p891
tp892
I1
s(S'collar'
p893
S'jump'
p894
tp895
I3
s(S'woman'
p896
S'catch'
p897
tp898
I1
s(S'man'
p899
S'read'
p900
tp901
I12
s(S'ground'
p902
S'get'
p903
tp904
I1
s(S'ball'
p905
S'have'
p906
tp907
I2
s(S'person'
p908
S'eat'
p909
tp910
I2
s(S'football'
p911
S'protect'
p912
tp913
I1
s(S'crowd'
p914
S'wait'
p915
tp916
I1
s(S'school'
p917
S'be'
p918
tp919
I3
s(S'leap'
p920
S'ring'
p921
tp922
I1
s(S'ball'
p923
S'wait'
p924
tp925
I2
s(S'red'
p926
S'paint'
p927
tp928
I2
s(S'mother'
p929
S'stand'
p930
tp931
I1
s(S'stand'
p932
S'colored'
p933
tp934
I1
s(S'search'
p935
S'trash'
p936
tp937
I1
s(S'picture'
p938
S'be'
p939
tp940
I6
s(S'clothes'
p941
S'be'
p942
tp943
I3
s(S'sheep'
p944
S'be'
p945
tp946
I2
s(S'woman'
p947
S'walk'
p948
tp949
I72
s(S'boy'
p950
S'have'
p951
tp952
I13
s(S'white'
p953
S'climb'
p954
tp955
I2
s(S'group'
p956
S'trail'
p957
tp958
I1
s(S'air'
p959
S'pull'
p960
tp961
I1
s(S'team'
p962
S'compete'
p963
tp964
I1
s(S'front'
p965
g512
tp966
I1
s(S'woman'
p967
S'zip'
p968
tp969
I1
s(S'couple'
p970
S'take'
p971
tp972
I2
s(S'lady'
p973
S'get'
p974
tp975
I1
s(S'white'
p976
S'shore'
p977
tp978
I1
s(S'front'
p979
g123
tp980
I2
s(S'hand'
p981
S'wear'
p982
tp983
I3
s(S'band'
p984
S'wear'
p985
tp986
I1
s(g293
S'wear'
p987
tp988
I1
s(S'stand'
p989
S'rise'
p990
tp991
I1
s(S'park'
p992
S'paint'
p993
tp994
I2
s(S'hill'
p995
S'see'
p996
tp997
I1
s(S'air'
p998
S'trail'
p999
tp1000
I1
s(S'hand'
p1001
S'hold'
p1002
tp1003
I5
s(S'red'
p1004
S'climb'
p1005
tp1006
I1
s(S'woman'
p1007
S'back'
p1008
tp1009
I2
s(S'girl'
p1010
S'pass'
p1011
tp1012
I4
s(S'picture'
p1013
S'trail'
p1014
tp1015
I1
s(S'lady'
p1016
S'set'
p1017
tp1018
I1
s(S'field'
p1019
S'catch'
p1020
tp1021
I3
s(S'guy'
p1022
S'give'
p1023
tp1024
I1
s(S'person'
p1025
S'trail'
p1026
tp1027
I6
s(S'lady'
p1028
S'wear'
p1029
tp1030
I7
s(S'bill'
p1031
S'pose'
p1032
tp1033
I1
s(S'mother'
p1034
S'push'
p1035
tp1036
I1
s(S'adult'
p1037
S'be'
p1038
tp1039
I11
s(S'look'
p1040
S'touch'
p1041
tp1042
I1
s(S'person'
p1043
S'use'
p1044
tp1045
I2
s(S'can'
p1046
S'put'
p1047
tp1048
I1
s(g32
S'jump'
p1049
tp1050
I6
s(S'round'
p1051
S'handle'
p1052
tp1053
I1
s(g8
S'wear'
p1054
tp1055
I1
s(S'black'
p1056
S'try'
p1057
tp1058
I1
s(S'road'
p1059
S'cover'
p1060
tp1061
I1
s(S'railing'
p1062
S'look'
p1063
tp1064
I1
s(S'road'
p1065
S'walk'
p1066
tp1067
I1
s(S'top'
p1068
S'perform'
p1069
tp1070
I1
s(S'boy'
p1071
S'cast'
p1072
tp1073
I1
s(S'girl'
p1074
S'skip'
p1075
tp1076
I2
s(S'street'
p1077
S'carry'
p1078
tp1079
I4
s(S'cap'
p1080
S'do'
p1081
tp1082
I1
s(S'phrase'
p1083
S'be'
p1084
tp1085
I2
s(S'ball'
p1086
g90
tp1087
I2
s(S'series'
p1088
S'colored'
p1089
tp1090
I1
s(S'one'
p1091
S'bring'
p1092
tp1093
I1
s(g938
S'stand'
p1094
tp1095
I1
s(S'black'
p1096
S'have'
p1097
tp1098
I3
s(S'prayer'
p1099
S'pose'
p1100
tp1101
I1
s(S'phone'
p1102
S'sit'
p1103
tp1104
I1
s(g902
S'jump'
p1105
tp1106
I1
s(S'try'
p1107
S'sell'
p1108
tp1109
I1
s(S'bit'
p1110
S'leave'
p1111
tp1112
I1
s(S'person'
p1113
S'jump'
p1114
tp1115
I30
s(S'woman'
p1116
S'push'
p1117
tp1118
I3
s(S'person'
p1119
g182
tp1120
I3
s(S'guy'
p1121
S'do'
p1122
tp1123
I4
s(S'boy'
p1124
S'drive'
p1125
tp1126
I1
s(S'girl'
p1127
S'split'
p1128
tp1129
I2
s(S'baby'
p1130
S'walk'
p1131
tp1132
I2
s(S'talk'
p1133
S'welcome'
p1134
tp1135
I1
s(S'return'
p1136
S'serve'
p1137
tp1138
I1
s(S'sidewalk'
p1139
S'hold'
p1140
tp1141
I2
s(S'middle'
p1142
S'hold'
p1143
tp1144
I1
s(S'girl'
p1145
S'determined'
p1146
tp1147
I1
s(S'box'
p1148
S'play'
p1149
tp1150
I2
s(S'close'
p1151
S'leave'
p1152
tp1153
I1
s(S'leap'
p1154
S'play'
p1155
tp1156
I2
s(S'light'
p1157
S'stand'
p1158
tp1159
I1
s(S'man'
p1160
S'complete'
p1161
tp1162
I1
s(S'people'
p1163
S'carry'
p1164
tp1165
I1
s(S'family'
p1166
g839
tp1167
I1
s(S'hair'
p1168
S'hold'
p1169
tp1170
I6
s(S'child'
p1171
S'wear'
p1172
tp1173
I38
s(S'rock'
p1174
S'hang'
p1175
tp1176
I1
s(S'player'
p1177
S'face'
p1178
tp1179
I1
s(S'woman'
p1180
S'cover'
p1181
tp1182
I6
s(S'white'
p1183
S'do'
p1184
tp1185
I1
s(S'stadium'
p1186
S'watch'
p1187
tp1188
I2
s(S'cow'
p1189
S'stand'
p1190
tp1191
I1
s(S'body'
p1192
S'paint'
p1193
tp1194
I4
s(S'girl'
p1195
S'slides'
p1196
tp1197
I1
s(S'woman'
p1198
S'include'
p1199
tp1200
I1
s(S'cap'
p1201
g81
tp1202
I1
s(S'arm'
p1203
S'bounce'
p1204
tp1205
I1
s(S'lady'
p1206
S'sit'
p1207
tp1208
I10
s(S'race'
p1209
S'take'
p1210
tp1211
I1
s(S'man'
p1212
S'move'
p1213
tp1214
I1
s(S'hair'
p1215
S'look'
p1216
tp1217
I2
s(S'stand'
p1218
S'sell'
p1219
tp1220
I1
s(S'leap'
p1221
S'attempt'
p1222
tp1223
I1
s(S'counter'
p1224
S'have'
p1225
tp1226
I1
s(S'rock'
p1227
S'help'
p1228
tp1229
I1
s(S'person'
p1230
g250
tp1231
I1
s(S'someone'
p1232
S'stand'
p1233
tp1234
I1
s(S'door'
p1235
S'sit'
p1236
tp1237
I1
s(S'point'
p1238
S'stand'
p1239
tp1240
I2
s(S'woman'
p1241
S'chase'
p1242
tp1243
I1
s(S'girl'
p1244
S'face'
p1245
tp1246
I1
s(S'woman'
p1247
S'watch'
p1248
tp1249
I4
s(S'try'
p1250
g795
tp1251
I1
s(S'child'
p1252
S'frozen'
p1253
tp1254
I1
s(S'water'
p1255
S'emerge'
p1256
tp1257
I1
s(S'adult'
p1258
S'wait'
p1259
tp1260
I2
s(S'bottle'
p1261
S'crowded'
p1262
tp1263
I1
s(S'building'
p1264
S'left'
p1265
tp1266
I1
s(S'head'
p1267
S'crossing'
p1268
tp1269
I1
s(S'people'
p1270
S'display'
p1271
tp1272
I1
s(S'attempt'
p1273
S'block'
p1274
tp1275
I1
s(S'spot'
p1276
S'take'
p1277
tp1278
I1
s(S'car'
p1279
S'wear'
p1280
tp1281
I1
s(S'band'
p1282
S'be'
p1283
tp1284
I3
s(S'man'
p1285
S'advertise'
p1286
tp1287
I1
s(S'arm'
p1288
S'move'
p1289
tp1290
I1
s(S'girl'
p1291
S'reflect'
p1292
tp1293
I1
s(S'line'
p1294
S'be'
p1295
tp1296
I2
s(S'tire'
p1297
S'come'
p1298
tp1299
I1
s(g532
S'be'
p1300
tp1301
I232
s(S'arm'
p1302
g930
tp1303
I1
s(S'hair'
p1304
S'walk'
p1305
tp1306
I1
s(S'silver'
p1307
S'do'
p1308
tp1309
I1
s(S'race'
p1310
S'cover'
p1311
tp1312
I1
s(g418
S'shore'
p1313
tp1314
I1
s(S'man'
p1315
g807
tp1316
I26
s(S'suit'
p1317
S'carry'
p1318
tp1319
I2
s(S'person'
p1320
S'walk'
p1321
tp1322
I59
s(S'life'
p1323
S'sit'
p1324
tp1325
I2
s(S'adult'
p1326
S'wear'
p1327
tp1328
I2
s(S'ankle'
p1329
S'hold'
p1330
tp1331
I1
s(S'face'
p1332
S'wear'
p1333
tp1334
I1
s(S'window'
p1335
S'hold'
p1336
tp1337
I1
s(S'sweater'
p1338
S'hang'
p1339
tp1340
I1
s(S'group'
p1341
g102
tp1342
I1
s(S'worker'
p1343
S'break'
p1344
tp1345
I1
s(S'woman'
p1346
S'advertise'
p1347
tp1348
I1
s(S'face'
p1349
S'hold'
p1350
tp1351
I2
s(S'clothing'
p1352
S'pose'
p1353
tp1354
I2
s(S'peak'
p1355
S'have'
p1356
tp1357
I1
s(S'front'
p1358
S'hold'
p1359
tp1360
I2
s(S'boy'
p1361
S'contain'
p1362
tp1363
I1
s(S'water'
p1364
S'fly'
p1365
tp1366
I1
s(S'lady'
p1367
S'pour'
p1368
tp1369
I1
s(S'suit'
p1370
S'be'
p1371
tp1372
I11
s(S'stand'
p1373
S'look'
p1374
tp1375
I8
s(S'man'
p1376
S'run'
p1377
tp1378
I9
s(S'air'
p1379
g1265
tp1380
I1
s(S'crowd'
p1381
S'wear'
p1382
tp1383
I4
s(S'equipment'
p1384
g1175
tp1385
I1
s(S'air'
p1386
S'run'
p1387
tp1388
I1
s(S'march'
p1389
S'perform'
p1390
tp1391
I2
s(S'card'
p1392
S'say'
p1393
tp1394
I1
s(S'people'
p1395
S'enjoy'
p1396
tp1397
I1
s(S'run'
p1398
S'shore'
p1399
tp1400
I1
s(S'smoke'
p1401
g999
tp1402
I1
s(S'woman'
p1403
S'surprised'
p1404
tp1405
I1
s(S'mark'
p1406
S'be'
p1407
tp1408
I2
s(S'pool'
p1409
S'pose'
p1410
tp1411
I2
s(S'player'
p1412
S'tackle'
p1413
tp1414
I5
s(S'group'
p1415
g347
tp1416
I5
s(S'child'
p1417
S'sit'
p1418
tp1419
I28
s(S'stand'
p1420
S'crossing'
p1421
tp1422
I2
s(g1341
S'make'
p1423
tp1424
I1
s(S'rider'
p1425
S'sit'
p1426
tp1427
I1
s(S'board'
p1428
S'climb'
p1429
tp1430
I1
s(S'player'
p1431
S'show'
p1432
tp1433
I1
s(g1102
S'paint'
p1434
tp1435
I1
s(S'group'
p1436
S'run'
p1437
tp1438
I5
s(S'blow'
p1439
S'whistle'
p1440
tp1441
I1
s(S'child'
p1442
S'shoot'
p1443
tp1444
I1
s(S'hand'
p1445
S'point'
p1446
tp1447
I1
s(S'people'
p1448
S'create'
p1449
tp1450
I1
s(S'child'
p1451
S'prepare'
p1452
tp1453
I1
s(S'woman'
p1454
S'trail'
p1455
tp1456
I1
s(S'man'
p1457
S'is'
p1458
tp1459
I1
s(S'watch'
p1460
S'play'
p1461
tp1462
I2
s(S'woman'
p1463
S'chat'
p1464
tp1465
I4
s(S'winter'
p1466
S'sit'
p1467
tp1468
I1
s(S'person'
p1469
S'pull'
p1470
tp1471
I1
s(S'clothes'
p1472
S'walk'
p1473
tp1474
I1
s(S'building'
p1475
S'paint'
p1476
tp1477
I2
s(S'sidewalk'
p1478
S'stretch'
p1479
tp1480
I1
s(S'white'
p1481
S'run'
p1482
tp1483
I14
s(S'tree'
p1484
S'reflect'
p1485
tp1486
I1
s(S'man'
p1487
S'land'
p1488
tp1489
I1
s(S'black'
p1490
S'jump'
p1491
tp1492
I8
s(S'view'
p1493
S'pass'
p1494
tp1495
I1
s(S'talk'
p1496
S'hold'
p1497
tp1498
I4
s(S'metal'
p1499
S'walk'
p1500
tp1501
I1
s(S'ball'
p1502
S'cover'
p1503
tp1504
I1
s(S'area'
p1505
S'carry'
p1506
tp1507
I2
s(g702
S'enjoy'
p1508
tp1509
I2
s(S'track'
p1510
S'wear'
p1511
tp1512
I1
s(S'watch'
p1513
S'walk'
p1514
tp1515
I1
s(S'rider'
p1516
S'be'
p1517
tp1518
I11
s(S'head'
p1519
S'have'
p1520
tp1521
I1
s(g499
S'pull'
p1522
tp1523
I4
s(S'line'
p1524
S'sit'
p1525
tp1526
I1
s(S'front'
p1527
S'have'
p1528
tp1529
I1
s(S'man'
p1530
S'trail'
p1531
tp1532
I4
s(S'balance'
p1533
S'be'
p1534
tp1535
I1
s(S'leather'
p1536
S'pose'
p1537
tp1538
I2
s(S'winter'
p1539
S'carry'
p1540
tp1541
I1
s(S'collar'
p1542
S'be'
p1543
tp1544
I16
s(S'player'
p1545
S'catch'
p1546
tp1547
I1
s(S'man'
p1548
S'learn'
p1549
tp1550
I1
s(S'party'
p1551
g383
tp1552
I1
s(S'cap'
p1553
S'carry'
p1554
tp1555
I2
s(g1086
S'hit'
p1556
tp1557
I1
s(S'gold'
p1558
S'be'
p1559
tp1560
I3
s(S'people'
p1561
S'be'
p1562
tp1563
I30
s(S'turn'
p1564
g102
tp1565
I1
s(S'girl'
p1566
S'paint'
p1567
tp1568
I2
s(S'stage'
p1569
S'set'
p1570
tp1571
I1
s(S'suit'
p1572
S'sit'
p1573
tp1574
I1
s(S'car'
p1575
S'show'
p1576
tp1577
I1
s(S'try'
p1578
S'make'
p1579
tp1580
I1
s(S'hand'
p1581
S'pose'
p1582
tp1583
I2
s(S'street'
p1584
S'point'
p1585
tp1586
I1
s(S'air'
p1587
S'stand'
p1588
tp1589
I2
s(g736
S'be'
p1590
tp1591
I6
s(S'necklace'
p1592
S'paint'
p1593
tp1594
I1
s(S'bench'
p1595
S'eat'
p1596
tp1597
I2
s(S'stand'
p1598
g1236
tp1599
I5
s(S'truck'
p1600
S'lead'
p1601
tp1602
I1
s(S'boy'
p1603
S'play'
p1604
tp1605
I22
s(S'look'
p1606
S'jump'
p1607
tp1608
I2
s(S'offensive'
p1609
g912
tp1610
I1
s(g1270
S'hang'
p1611
tp1612
I2
s(S'child'
p1613
S'have'
p1614
tp1615
I8
s(S'woman'
p1616
S'shore'
p1617
tp1618
I1
s(S'play'
p1619
g906
tp1620
I4
s(S'group'
p1621
S'carry'
p1622
tp1623
I3
s(S'race'
p1624
S'pass'
p1625
tp1626
I1
s(S'look'
p1627
g389
tp1628
I1
s(S'road'
p1629
g247
tp1630
I2
s(S'point'
p1631
S'take'
p1632
tp1633
I1
s(S'ball'
p1634
S'be'
p1635
tp1636
I7
s(S'man'
p1637
S'writing'
p1638
tp1639
I4
s(S'cloth'
p1640
S'wear'
p1641
tp1642
I1
s(S'pool'
p1643
S'get'
p1644
tp1645
I1
s(S'foot'
p1646
g591
tp1647
I1
s(S'rope'
p1648
S'climb'
p1649
tp1650
I2
s(S'child'
p1651
S'jump'
p1652
tp1653
I27
s(S'something'
p1654
S'run'
p1655
tp1656
I1
s(S'path'
p1657
S'be'
p1658
tp1659
I3
s(S'person'
p1660
S'watch'
p1661
tp1662
I15
s(S'stand'
p1663
g691
tp1664
I1
s(g1086
S'advertise'
p1665
tp1666
I1
s(S'view'
p1667
S'stand'
p1668
tp1669
I1
s(S'game'
p1670
S'be'
p1671
tp1672
I2
s(S'slope'
p1673
S'be'
p1674
tp1675
I2
s(S'hand'
p1676
S'allow'
p1677
tp1678
I1
s(S'rider'
p1679
S'get'
p1680
tp1681
I1
s(S'girl'
p1682
S'hold'
p1683
tp1684
I48
s(g783
S'run'
p1685
tp1686
I1
s(S'faithful'
p1687
S'catch'
p1688
tp1689
I1
s(S'balloon'
p1690
S'walk'
p1691
tp1692
I1
s(S'belt'
p1693
S'have'
p1694
tp1695
I1
s(S'family'
p1696
S'be'
p1697
tp1698
I2
s(S'woman'
p1699
S'follow'
p1700
tp1701
I5
s(S'girl'
p1702
S'refer'
p1703
tp1704
I1
s(S'head'
p1705
S'fly'
p1706
tp1707
I1
s(S'round'
p1708
S'watch'
p1709
tp1710
I1
s(S'man'
p1711
S'put'
p1712
tp1713
I5
s(S'man'
p1714
S'pass'
p1715
tp1716
I6
s(S'couple'
p1717
S'be'
p1718
tp1719
I8
s(S'flag'
p1720
S'fly'
p1721
tp1722
I1
s(S'adult'
p1723
g1632
tp1724
I1
s(S'boy'
p1725
S'pour'
p1726
tp1727
I1
s(g1490
g1274
tp1728
I1
s(S'toy'
p1729
g801
tp1730
I1
s(S'water'
p1731
S'stand'
p1732
tp1733
I1
s(S'use'
p1734
S'watch'
p1735
tp1736
I1
s(S'stand'
p1737
g1607
tp1738
I3
s(S'stand'
p1739
g1100
tp1740
I1
s(g493
S'wear'
p1741
tp1742
I2
s(S'person'
p1743
S'fly'
p1744
tp1745
I5
s(S'head'
p1746
S'sit'
p1747
tp1748
I1
s(S'male'
p1749
g353
tp1750
I1
s(g575
S'make'
p1751
tp1752
I1
s(S'male'
p1753
g960
tp1754
I1
s(S'mother'
p1755
S'make'
p1756
tp1757
I1
s(S'black'
p1758
S'wear'
p1759
tp1760
I1
s(g439
g1665
tp1761
I1
s(S'try'
p1762
g262
tp1763
I2
s(g748
S'cover'
p1764
tp1765
I1
s(S'road'
p1766
S'trail'
p1767
tp1768
I1
s(S'competitor'
p1769
S'be'
p1770
tp1771
I1
s(S'rope'
p1772
S'sit'
p1773
tp1774
I1
s(S'round'
p1775
S'come'
p1776
tp1777
I1
s(S'girl'
p1778
S'extend'
p1779
tp1780
I1
s(g1343
S'sit'
p1781
tp1782
I3
s(S'construction'
p1783
S'use'
p1784
tp1785
I1
s(S'couple'
p1786
S'wear'
p1787
tp1788
I5
s(S'player'
p1789
g876
tp1790
I12
s(S'crowd'
p1791
S'hold'
p1792
tp1793
I2
s(S'leash'
p1794
S'wear'
p1795
tp1796
I3
s(S'vehicle'
p1797
S'drive'
p1798
tp1799
I1
s(g1510
S'colored'
p1800
tp1801
I1
s(S'tree'
p1802
S'have'
p1803
tp1804
I2
s(S'football'
p1805
S'sit'
p1806
tp1807
I1
s(S'picture'
p1808
S'set'
p1809
tp1810
I1
s(S'schoolchildren'
p1811
S'chase'
p1812
tp1813
I1
s(S'red'
p1814
S'wear'
p1815
tp1816
I1
s(S'street'
p1817
S'sit'
p1818
tp1819
I1
s(g1778
S'appear'
p1820
tp1821
I2
s(S'table'
p1822
g1359
tp1823
I1
s(S'feet'
p1824
S'wear'
p1825
tp1826
I1
s(S'water'
p1827
S'watch'
p1828
tp1829
I1
s(S'person'
p1830
S'give'
p1831
tp1832
I2
s(S'race'
p1833
g150
tp1834
I1
s(S'toy'
p1835
S'lay'
p1836
tp1837
I1
s(S'traffic'
p1838
g1818
tp1839
I1
s(S'man'
p1840
S'enter'
p1841
tp1842
I1
s(S'people'
p1843
S'come'
p1844
tp1845
I2
s(S'goal'
p1846
S'be'
p1847
tp1848
I1
s(S'woman'
p1849
S'hit'
p1850
tp1851
I2
s(S'bridge'
p1852
S'be'
p1853
tp1854
I1
s(S'play'
p1855
S'sit'
p1856
tp1857
I1
s(g1119
S'look'
p1858
tp1859
I5
s(S'man'
p1860
S'combat'
p1861
tp1862
I2
s(S'look'
p1863
S'sit'
p1864
tp1865
I1
s(S'people'
p1866
S'writing'
p1867
tp1868
I1
s(S'baby'
p1869
S'run'
p1870
tp1871
I1
s(S'man'
p1872
S'cover'
p1873
tp1874
I12
s(S'water'
p1875
S'meet'
p1876
tp1877
I2
s(S'mix'
p1878
S'catch'
p1879
tp1880
I1
s(S'market'
p1881
S'fill'
p1882
tp1883
I1
s(S'man'
p1884
S'use'
p1885
tp1886
I11
s(S'party'
p1887
g138
tp1888
I1
s(S'rock'
p1889
S'hold'
p1890
tp1891
I3
s(S'purse'
p1892
S'put'
p1893
tp1894
I1
s(g917
S'stand'
p1895
tp1896
I2
s(S'show'
p1897
S'run'
p1898
tp1899
I1
s(g748
S'be'
p1900
tp1901
I5
s(S'people'
p1902
S'gather'
p1903
tp1904
I2
s(S'try'
p1905
S'put'
p1906
tp1907
I1
s(g887
S'look'
p1908
tp1909
I1
s(S'feet'
p1910
S'cast'
p1911
tp1912
I1
s(S'water'
p1913
g1387
tp1914
I2
s(S'leather'
p1915
S'be'
p1916
tp1917
I3
s(S'metal'
p1918
g226
tp1919
I1
s(S'ball'
p1920
S'shore'
p1921
tp1922
I2
s(g65
S'break'
p1923
tp1924
I1
s(g1860
S'execute'
p1925
tp1926
I1
s(S'player'
p1927
S'start'
p1928
tp1929
I1
s(S'boy'
p1930
S'catch'
p1931
tp1932
I6
s(S'person'
p1933
S'are'
p1934
tp1935
I3
s(S'drink'
p1936
S'read'
p1937
tp1938
I1
s(g107
S'fly'
p1939
tp1940
I2
s(S'leash'
p1941
S'appear'
p1942
tp1943
I1
s(S'child'
p1944
S'stand'
p1945
tp1946
I9
s(S'slide'
p1947
g1256
tp1948
I1
s(g1542
g1020
tp1949
I1
s(S'boy'
p1950
S'swim'
p1951
tp1952
I24
s(S'girl'
p1953
S'prepare'
p1954
tp1955
I3
s(S'step'
p1956
S'drink'
p1957
tp1958
I2
s(g98
S'shore'
p1959
tp1960
I4
s(S'pool'
p1961
S'watch'
p1962
tp1963
I1
s(S'ground'
p1964
S'eat'
p1965
tp1966
I1
s(S'male'
p1967
S'take'
p1968
tp1969
I1
s(S'man'
p1970
S'lift'
p1971
tp1972
I4
s(S'lab'
p1973
S'sit'
p1974
tp1975
I1
s(S'cap'
p1976
S'have'
p1977
tp1978
I1
s(S'man'
p1979
S'withdraw'
p1980
tp1981
I2
s(S'railing'
p1982
S'be'
p1983
tp1984
I1
s(S'airplane'
p1985
S'sit'
p1986
tp1987
I1
s(S'window'
p1988
S'take'
p1989
tp1990
I1
s(S'snow'
p1991
S'have'
p1992
tp1993
I3
s(S'back'
p1994
S'be'
p1995
tp1996
I3
s(S'man'
p1997
g1585
tp1998
I1
s(S'river'
p1999
S'pine'
p2000
tp2001
I1
s(S'baseball'
p2002
S'go'
p2003
tp2004
I1
s(g1758
S'carry'
p2005
tp2006
I2
s(S'bottom'
p2007
g1117
tp2008
I1
s(S'play'
p2009
S'oppose'
p2010
tp2011
I1
s(S'something'
p2012
S'get'
p2013
tp2014
I1
s(S'camera'
p2015
g1213
tp2016
I1
s(g1542
S'try'
p2017
tp2018
I1
s(g973
S'appear'
p2019
tp2020
I1
s(S'arm'
p2021
g723
tp2022
I3
s(S'guy'
p2023
S'take'
p2024
tp2025
I2
s(S'head'
p2026
g386
tp2027
I1
s(S'someone'
p2028
S'fall'
p2029
tp2030
I1
s(S'person'
p2031
S'play'
p2032
tp2033
I6
s(S'sweater'
p2034
S'stand'
p2035
tp2036
I2
s(S'man'
p2037
S'catch'
p2038
tp2039
I3
s(S'arm'
p2040
g1820
tp2041
I1
s(S'rider'
p2042
S'try'
p2043
tp2044
I1
s(S'look'
p2045
S'cover'
p2046
tp2047
I1
s(S'person'
p2048
S'carry'
p2049
tp2050
I6
s(S'boy'
p2051
S'hit'
p2052
tp2053
I3
s(S'male'
p2054
S'try'
p2055
tp2056
I1
s(S'wings'
p2057
S'be'
p2058
tp2059
I1
s(S'white'
p2060
S'pose'
p2061
tp2062
I1
s(S'car'
p2063
S'start'
p2064
tp2065
I1
s(S'swing'
p2066
S'swim'
p2067
tp2068
I2
s(S'crowd'
p2069
S'climb'
p2070
tp2071
I1
s(S'suit'
p2072
S'get'
p2073
tp2074
I2
s(S'child'
p2075
S'explore'
p2076
tp2077
I1
s(S'eye'
p2078
S'make'
p2079
tp2080
I1
s(S'girl'
p2081
S'stick'
p2082
tp2083
I7
s(S'water'
p2084
g1292
tp2085
I1
s(S'street'
p2086
S'display'
p2087
tp2088
I1
s(S'plane'
p2089
g42
tp2090
I1
s(S'rope'
p2091
S'suspend'
p2092
tp2093
I1
s(S'cap'
p2094
S'eat'
p2095
tp2096
I4
s(S'woman'
p2097
g822
tp2098
I2
s(S'girl'
p2099
S'celebrate'
p2100
tp2101
I1
s(S'rider'
p2102
S'go'
p2103
tp2104
I1
s(S'leap'
p2105
g924
tp2106
I1
s(g17
S'climb'
p2107
tp2108
I1
s(S'people'
p2109
S'pine'
p2110
tp2111
I1
s(S'people'
p2112
S'cover'
p2113
tp2114
I1
s(S'man'
p2115
S'jostle'
p2116
tp2117
I2
s(g1941
S'colored'
p2118
tp2119
I1
s(S'tree'
p2120
S'watch'
p2121
tp2122
I1
s(S'drink'
p2123
S'left'
p2124
tp2125
I1
s(S'plane'
p2126
S'fly'
p2127
tp2128
I1
s(S'hand'
p2129
S'raise'
p2130
tp2131
I2
s(g998
S'leave'
p2132
tp2133
I1
s(S'pool'
p2134
S'catch'
p2135
tp2136
I1
s(S'building'
p2137
g1219
tp2138
I1
s(S'man'
p2139
S'perform'
p2140
tp2141
I19
s(S'officer'
p2142
S'be'
p2143
tp2144
I1
s(S'play'
p2145
S'stand'
p2146
tp2147
I1
s(S'people'
p2148
g597
tp2149
I3
s(S'car'
p2150
S'leave'
p2151
tp2152
I2
s(S'practice'
p2153
S'wear'
p2154
tp2155
I1
s(S'leap'
p2156
S'chase'
p2157
tp2158
I1
s(S'woman'
p2159
S'give'
p2160
tp2161
I2
s(S'woman'
p2162
S'decorated'
p2163
tp2164
I1
s(S'clothes'
p2165
S'take'
p2166
tp2167
I1
s(S'truck'
p2168
S'follow'
p2169
tp2170
I2
s(S'look'
p2171
S'use'
p2172
tp2173
I1
s(S'group'
p2174
g1607
tp2175
I4
s(S'cap'
p2176
g312
tp2177
I12
s(S'eye'
p2178
g1233
tp2179
I2
s(S'rock'
p2180
g1831
tp2181
I1
s(g1428
S'be'
p2182
tp2183
I2
s(S'football'
p2184
S'get'
p2185
tp2186
I3
s(S'player'
p2187
S'talk'
p2188
tp2189
I1
s(S'someone'
p2190
S'perform'
p2191
tp2192
I1
s(S'girl'
p2193
S'perform'
p2194
tp2195
I2
s(S'picture'
p2196
g51
tp2197
I1
s(S'crash'
p2198
S'follow'
p2199
tp2200
I1
s(S'boy'
p2201
S'open'
p2202
tp2203
I1
s(g454
S'stick'
p2204
tp2205
I1
s(S'toy'
p2206
S'walk'
p2207
tp2208
I1
s(S'woman'
p2209
g356
tp2210
I1
s(S'man'
p2211
S'scream'
p2212
tp2213
I1
s(S'street'
p2214
S'be'
p2215
tp2216
I2
s(S'guy'
p2217
S'climb'
p2218
tp2219
I2
s(S'person'
p2220
S'print'
p2221
tp2222
I2
s(S'man'
p2223
S'record'
p2224
tp2225
I1
s(g1282
S'play'
p2226
tp2227
I4
s(g1539
g1029
tp2228
I1
s(S'player'
p2229
S'pass'
p2230
tp2231
I1
s(S'person'
p2232
S'break'
p2233
tp2234
I1
s(S'gold'
p2235
g656
tp2236
I1
s(S'back'
p2237
g807
tp2238
I1
s(S'child'
p2239
S'appear'
p2240
tp2241
I1
s(S'baseball'
p2242
g731
tp2243
I1
s(S'man'
p2244
S'log'
p2245
tp2246
I2
s(S'band'
p2247
S'do'
p2248
tp2249
I1
s(S'art'
p2250
S'hold'
p2251
tp2252
I1
s(S'flag'
p2253
g81
tp2254
I1
s(S'eye'
p2255
S'carry'
p2256
tp2257
I1
s(S'exit'
p2258
S'swim'
p2259
tp2260
I1
s(S'girl'
p2261
S'break'
p2262
tp2263
I1
s(S'woman'
p2264
S'attempt'
p2265
tp2266
I1
s(S'tree'
p2267
S'stick'
p2268
tp2269
I1
s(S'adult'
p2270
S'approach'
p2271
tp2272
I1
s(S'watch'
p2273
S'shore'
p2274
tp2275
I1
s(S'air'
p2276
g903
tp2277
I1
s(S'black'
p2278
S'shore'
p2279
tp2280
I1
s(S'man'
p2281
S'treat'
p2282
tp2283
I1
s(S'building'
p2284
S'be'
p2285
tp2286
I2
s(S'artist'
p2287
g685
tp2288
I1
s(S'race'
p2289
S'give'
p2290
tp2291
I2
s(S'men'
p2292
S'play'
p2293
tp2294
I4
s(S'group'
p2295
S'write'
p2296
tp2297
I1
s(S'middle'
p2298
S'stand'
p2299
tp2300
I1
s(S'play'
p2301
g1709
tp2302
I1
s(S'rope'
p2303
S'cover'
p2304
tp2305
I1
s(g1034
g1870
tp2306
I1
s(S'air'
p2307
S'hold'
p2308
tp2309
I4
s(S'girl'
p2310
S'treat'
p2311
tp2312
I1
s(S'woman'
p2313
g497
tp2314
I4
s(S'back'
p2315
S'follow'
p2316
tp2317
I1
s(S'river'
p2318
S'cover'
p2319
tp2320
I1
s(S'cement'
p2321
S'hold'
p2322
tp2323
I1
s(S'black'
p2324
g825
tp2325
I1
s(S'man'
p2326
S'crossing'
p2327
tp2328
I2
s(S'suit'
p2329
g1184
tp2330
I1
s(S'play'
p2331
S'jump'
p2332
tp2333
I2
s(S'woman'
p2334
S'play'
p2335
tp2336
I30
s(S'flag'
p2337
S'walk'
p2338
tp2339
I1
s(S'phone'
p2340
S'be'
p2341
tp2342
I1
s(S'truck'
p2343
S'sit'
p2344
tp2345
I1
s(S'face'
p2346
g1806
tp2347
I1
s(S'half'
p2348
S'be'
p2349
tp2350
I1
s(S'face'
p2351
S'run'
p2352
tp2353
I1
s(g1902
S'hear'
p2354
tp2355
I1
s(S'pattern'
p2356
S'be'
p2357
tp2358
I1
s(S'man'
p2359
S'see'
p2360
tp2361
I2
s(S'tree'
p2362
S'building'
p2363
tp2364
I1
s(S'elephant'
p2365
S'paint'
p2366
tp2367
I1
s(S'look'
p2368
S'stick'
p2369
tp2370
I1
s(S'area'
p2371
S'hold'
p2372
tp2373
I1
s(S'person'
p2374
S'pour'
p2375
tp2376
I1
s(S'family'
p2377
S'jump'
p2378
tp2379
I1
s(S'back'
p2380
S'pose'
p2381
tp2382
I1
s(S'red'
p2383
S'cover'
p2384
tp2385
I1
s(S'ad'
p2386
S'run'
p2387
tp2388
I1
s(S'child'
p2389
S'colored'
p2390
tp2391
I4
s(S'individual'
p2392
S'covering'
p2393
tp2394
I1
s(S'suit'
p2395
S'play'
p2396
tp2397
I1
s(S'child'
p2398
S'participate'
p2399
tp2400
I1
s(S'vehicle'
p2401
S'stick'
p2402
tp2403
I1
s(S'men'
p2404
S'free'
p2405
tp2406
I1
s(S'something'
p2407
S'sit'
p2408
tp2409
I1
s(g1343
S'take'
p2410
tp2411
I2
s(S'river'
p2412
S'shake'
p2413
tp2414
I1
s(S'white'
p2415
S'wear'
p2416
tp2417
I1
s(S'girl'
p2418
S'pour'
p2419
tp2420
I3
s(S'people'
p2421
S'climb'
p2422
tp2423
I3
s(S'field'
p2424
g1440
tp2425
I1
s(S'street'
p2426
g1700
tp2427
I1
s(g803
g740
tp2428
I2
s(S'base'
p2429
S'shore'
p2430
tp2431
I1
s(S'someone'
p2432
S'cover'
p2433
tp2434
I1
s(S'man'
p2435
S'launch'
p2436
tp2437
I1
s(S'stand'
p2438
S'hold'
p2439
tp2440
I11
s(S'plane'
p2441
S'trail'
p2442
tp2443
I2
s(S'rider'
p2444
S'do'
p2445
tp2446
I3
s(S'adult'
p2447
S'look'
p2448
tp2449
I1
s(S'others'
p2450
S'be'
p2451
tp2452
I2
s(S'sweater'
p2453
g1464
tp2454
I1
s(S'male'
p2455
g2010
tp2456
I1
s(S'boy'
p2457
S'wield'
p2458
tp2459
I1
s(S'player'
p2460
S'sit'
p2461
tp2462
I1
s(S'business'
p2463
S'be'
p2464
tp2465
I1
s(S'person'
p2466
S'gather'
p2467
tp2468
I4
s(S'child'
p2469
S'perform'
p2470
tp2471
I4
s(S'player'
p2472
g960
tp2473
I2
s(g439
g90
tp2474
I1
s(S'baby'
p2475
S'carry'
p2476
tp2477
I1
s(S'watch'
p2478
S'do'
p2479
tp2480
I1
s(g1746
S'read'
p2481
tp2482
I1
s(S'head'
p2483
S'be'
p2484
tp2485
I5
s(S'boy'
p2486
S'help'
p2487
tp2488
I2
s(S'boy'
p2489
S'run'
p2490
tp2491
I27
s(S'table'
p2492
g982
tp2493
I1
s(S'university'
p2494
S'have'
p2495
tp2496
I1
s(S'football'
p2497
g229
tp2498
I1
s(S'number'
p2499
g494
tp2500
I6
s(S'stone'
p2501
S'pay'
p2502
tp2503
I1
s(S'adult'
p2504
S'hold'
p2505
tp2506
I1
s(S'camera'
p2507
g2408
tp2508
I1
s(S'face'
p2509
S'stand'
p2510
tp2511
I1
s(g675
S'run'
p2512
tp2513
I4
s(S'snow'
p2514
S'look'
p2515
tp2516
I2
s(g821
S'be'
p2517
tp2518
I4
s(S'player'
p2519
S'run'
p2520
tp2521
I19
s(S'boy'
p2522
S'launch'
p2523
tp2524
I1
s(S'practice'
p2525
S'walk'
p2526
tp2527
I1
s(S'middle'
p2528
S'walk'
p2529
tp2530
I1
s(g730
g1931
tp2531
I1
s(S'group'
p2532
S'win'
p2533
tp2534
I1
s(g2318
g2146
tp2535
I1
s(S'people'
p2536
S'crossing'
p2537
tp2538
I1
s(S'boy'
p2539
S'face'
p2540
tp2541
I2
s(S'man'
p2542
S'display'
p2543
tp2544
I6
s(S'bull'
p2545
S'be'
p2546
tp2547
I2
s(S'stand'
p2548
S'watch'
p2549
tp2550
I4
s(g14
S'catch'
p2551
tp2552
I1
s(S'arm'
p2553
S'stare'
p2554
tp2555
I1
s(S'others'
p2556
g1818
tp2557
I1
s(S'circle'
p2558
g933
tp2559
I1
s(S'hair'
p2560
S'take'
p2561
tp2562
I2
s(S'woman'
p2563
S'pour'
p2564
tp2565
I4
s(S'white'
p2566
S'sit'
p2567
tp2568
I4
s(S'man'
p2569
S'wait'
p2570
tp2571
I5
s(S'guy'
p2572
S'walk'
p2573
tp2574
I1
s(S'person'
p2575
S'continue'
p2576
tp2577
I1
s(S'lady'
p2578
S'paint'
p2579
tp2580
I1
s(S'people'
p2581
S'tend'
p2582
tp2583
I1
s(S'wave'
p2584
S'set'
p2585
tp2586
I1
s(S'school'
p2587
S'play'
p2588
tp2589
I1
s(S'person'
p2590
S'know'
p2591
tp2592
I1
s(S'hill'
p2593
S'walk'
p2594
tp2595
I1
s(S'girl'
p2596
S'hit'
p2597
tp2598
I1
s(S'black'
p2599
S'look'
p2600
tp2601
I1
s(S'air'
p2602
S'catch'
p2603
tp2604
I9
s(S'woman'
p2605
g1644
tp2606
I5
s(S'couple'
p2607
g1455
tp2608
I1
s(S'ground'
p2609
S'come'
p2610
tp2611
I1
s(S'guy'
p2612
S'catch'
p2613
tp2614
I1
s(S'sweater'
p2615
S'sit'
p2616
tp2617
I4
s(S'stand'
p2618
g2413
tp2619
I1
s(S'field'
p2620
g912
tp2621
I1
s(S'table'
p2622
S'walk'
p2623
tp2624
I1
s(S'girl'
p2625
S'examine'
p2626
tp2627
I1
s(S'ball'
p2628
S'play'
p2629
tp2630
I1
s(S'face'
p2631
S'carry'
p2632
tp2633
I1
s(S'stand'
p2634
g194
tp2635
I1
s(S'black'
p2636
S'catch'
p2637
tp2638
I1
s(S'individual'
p2639
S'sit'
p2640
tp2641
I1
s(S'man'
p2642
S'raise'
p2643
tp2644
I2
s(S'stand'
p2645
S'read'
p2646
tp2647
I1
s(S'seat'
p2648
S'be'
p2649
tp2650
I1
s(g2607
S'walk'
p2651
tp2652
I5
s(S'rock'
p2653
g1333
tp2654
I1
s(S'screen'
p2655
S'be'
p2656
tp2657
I1
s(S'boy'
p2658
g463
tp2659
I2
s(S'woman'
p2660
S'show'
p2661
tp2662
I3
s(S'water'
p2663
S'carry'
p2664
tp2665
I3
s(S'group'
p2666
S'speak'
p2667
tp2668
I2
s(S'white'
p2669
S'catch'
p2670
tp2671
I4
s(S'player'
p2672
S'stretch'
p2673
tp2674
I1
s(S'bottom'
p2675
S'wear'
p2676
tp2677
I2
s(S'race'
p2678
g1298
tp2679
I1
s(S'girl'
p2680
S'drink'
p2681
tp2682
I2
s(S'hair'
p2683
S'eat'
p2684
tp2685
I6
s(S'swing'
p2686
S'swing'
p2687
tp2688
I1
s(S'woman'
p2689
S'hold'
p2690
tp2691
I69
s(S'male'
p2692
g1063
tp2693
I1
s(S'bench'
p2694
S'sit'
p2695
tp2696
I2
s(S'boy'
p2697
g682
tp2698
I3
s(S'sidewalk'
p2699
S'be'
p2700
tp2701
I1
s(S'hill'
p2702
g1770
tp2703
I2
s(S'rider'
p2704
S'fly'
p2705
tp2706
I1
s(S'black'
p2707
S'swim'
p2708
tp2709
I3
s(S'play'
p2710
S'swing'
p2711
tp2712
I1
s(g1252
S'treat'
p2713
tp2714
I1
s(S'person'
p2715
S'wait'
p2716
tp2717
I7
s(S'child'
p2718
S'watch'
p2719
tp2720
I2
s(S'child'
p2721
S'lead'
p2722
tp2723
I1
s(S'statue'
p2724
g472
tp2725
I2
s(S'man'
p2726
S'do'
p2727
tp2728
I31
s(S'body'
p2729
S'stick'
p2730
tp2731
I1
s(S'rock'
p2732
S'wait'
p2733
tp2734
I1
s(S'player'
p2735
g1579
tp2736
I4
s(S'silver'
p2737
S'wait'
p2738
tp2739
I1
s(S'place'
p2740
S'eat'
p2741
tp2742
I1
s(S'statue'
p2743
S'get'
p2744
tp2745
I1
s(S'hair'
p2746
S'apply'
p2747
tp2748
I1
s(S'vehicle'
p2749
S'lead'
p2750
tp2751
I1
s(S'ground'
p2752
g1213
tp2753
I1
s(S'someone'
p2754
S'pull'
p2755
tp2756
I1
s(S'apple'
p2757
S'sit'
p2758
tp2759
I1
s(S'stand'
p2760
S'use'
p2761
tp2762
I1
s(S'girl'
p2763
g588
tp2764
I2
s(S'child'
p2765
S'suspend'
p2766
tp2767
I2
s(S'toy'
p2768
S'jump'
p2769
tp2770
I2
s(S'rock'
p2771
S'say'
p2772
tp2773
I1
s(S'ground'
p2774
S'be'
p2775
tp2776
I4
s(S'shoulder'
p2777
S'stand'
p2778
tp2779
I1
s(S'arm'
p2780
S'spread'
p2781
tp2782
I3
s(S'child'
p2783
S'come'
p2784
tp2785
I1
s(g2026
S'wear'
p2786
tp2787
I2
s(S'food'
p2788
S'stand'
p2789
tp2790
I1
s(g1267
g1181
tp2791
I2
s(S'group'
p2792
S'stand'
p2793
tp2794
I16
s(S'water'
p2795
g2419
tp2796
I2
s(S'lap'
p2797
S'sit'
p2798
tp2799
I1
s(g2655
S'play'
p2800
tp2801
I1
s(S'baby'
p2802
S'wear'
p2803
tp2804
I7
s(S'bench'
p2805
S'watch'
p2806
tp2807
I2
s(S'people'
p2808
g2363
tp2809
I1
s(S'man'
p2810
S'support'
p2811
tp2812
I1
s(S'face'
p2813
S'lay'
p2814
tp2815
I1
s(S'woman'
p2816
S'pass'
p2817
tp2818
I3
s(S'ceiling'
p2819
S'take'
p2820
tp2821
I1
s(S'child'
p2822
S'read'
p2823
tp2824
I1
s(S'man'
p2825
g294
tp2826
I1
s(S'balloon'
p2827
S'hold'
p2828
tp2829
I3
s(S'black'
p2830
S'walk'
p2831
tp2832
I7
s(S'player'
p2833
S'hold'
p2834
tp2835
I12
s(S'child'
p2836
S'carry'
p2837
tp2838
I2
s(S'group'
p2839
S'fly'
p2840
tp2841
I2
s(S'person'
p2842
g1399
tp2843
I4
s(S'boy'
p2844
S'wear'
p2845
tp2846
I72
s(S'stand'
p2847
S'stick'
p2848
tp2849
I1
s(S'baby'
p2850
S'show'
p2851
tp2852
I1
s(S'man'
p2853
g2502
tp2854
I2
s(S'chain'
p2855
S'be'
p2856
tp2857
I1
s(S'suit'
p2858
S'pick'
p2859
tp2860
I1
s(S'home'
p2861
S'cover'
p2862
tp2863
I1
s(S'driver'
p2864
S'left'
p2865
tp2866
I1
s(S'man'
p2867
S'push'
p2868
tp2869
I2
s(S'air'
p2870
g1204
tp2871
I1
s(S'woman'
p2872
S'print'
p2873
tp2874
I1
s(S'person'
p2875
S'varied'
p2876
tp2877
I1
s(S'water'
p2878
g2124
tp2879
I1
s(g439
g1556
tp2880
I1
s(S'cigarette'
p2881
S'be'
p2882
tp2883
I1
s(S'man'
p2884
S'ring'
p2885
tp2886
I2
s(S'member'
p2887
g2248
tp2888
I1
s(S'person'
p2889
S'engage'
p2890
tp2891
I1
s(S'player'
p2892
S'swing'
p2893
tp2894
I2
s(S'elephant'
p2895
S'hold'
p2896
tp2897
I1
s(S'air'
p2898
S'jump'
p2899
tp2900
I5
s(S'woman'
p2901
S'carry'
p2902
tp2903
I9
s(S'sky'
p2904
S'be'
p2905
tp2906
I1
s(S'pool'
p2907
S'wear'
p2908
tp2909
I1
s(S'try'
p2910
S'hit'
p2911
tp2912
I2
s(S'head'
p2913
S'pose'
p2914
tp2915
I1
s(S'hair'
p2916
S'pick'
p2917
tp2918
I2
s(S'writing'
p2919
S'be'
p2920
tp2921
I1
s(S'silver'
p2922
S'be'
p2923
tp2924
I2
s(S'play'
p2925
S'cover'
p2926
tp2927
I3
s(S'clothing'
p2928
S'hold'
p2929
tp2930
I1
s(S'equipment'
p2931
S'climb'
p2932
tp2933
I1
s(S'construction'
p2934
S'be'
p2935
tp2936
I2
s(S'person'
p2937
S'paint'
p2938
tp2939
I2
s(S'street'
p2940
S'wear'
p2941
tp2942
I5
s(g739
g804
tp2943
I1
s(S'people'
p2944
S'fly'
p2945
tp2946
I1
s(S'person'
p2947
S'stop'
p2948
tp2949
I1
s(S'boy'
p2950
S'swing'
p2951
tp2952
I4
s(g550
S'be'
p2953
tp2954
I1
s(S'road'
p2955
S'pass'
p2956
tp2957
I1
s(g2528
S'be'
p2958
tp2959
I7
s(S'life'
p2960
S'be'
p2961
tp2962
I7
s(S'clothing'
p2963
S'stand'
p2964
tp2965
I1
s(S'clothing'
p2966
g1199
tp2967
I1
s(S'player'
p2968
S'jump'
p2969
tp2970
I6
s(S'train'
p2971
S'pull'
p2972
tp2973
I1
s(S'cardboard'
p2974
S'play'
p2975
tp2976
I1
s(S'camera'
p2977
S'stick'
p2978
tp2979
I1
s(S'look'
p2980
S'carry'
p2981
tp2982
I1
s(S'fight'
p2983
g2885
tp2984
I2
s(g992
S'wear'
p2985
tp2986
I1
s(S'shop'
p2987
S'be'
p2988
tp2989
I1
s(S'game'
p2990
g206
tp2991
I1
s(S'point'
p2992
g2554
tp2993
I1
s(S'person'
p2994
g2523
tp2995
I1
s(S'snow'
p2996
S'jump'
p2997
tp2998
I1
s(S'pool'
p2999
S'have'
p3000
tp3001
I1
s(S'police'
p3002
S'stand'
p3003
tp3004
I1
s(g2176
S'climb'
p3005
tp3006
I1
s(S'racket'
p3007
S'go'
p3008
tp3009
I1
s(S'men'
p3010
g2369
tp3011
I2
s(S'man'
p3012
S'compete'
p3013
tp3014
I2
s(S'feet'
p3015
S'string'
p3016
tp3017
I1
s(S'man'
p3018
S'show'
p3019
tp3020
I4
s(S'couple'
p3021
S'eat'
p3022
tp3023
I1
s(S'arm'
p3024
S'jump'
p3025
tp3026
I1
s(S'guy'
p3027
S'wear'
p3028
tp3029
I3
s(S'snow'
p3030
g792
tp3031
I4
s(S'pool'
p3032
g1449
tp3033
I1
s(S'play'
p3034
g2118
tp3035
I1
s(S'fan'
p3036
S'paint'
p3037
tp3038
I3
s(S'hair'
p3039
S'colored'
p3040
tp3041
I1
s(S'player'
p3042
S'do'
p3043
tp3044
I1
s(S'play'
p3045
S'be'
p3046
tp3047
I8
s(S'lady'
p3048
S'be'
p3049
tp3050
I20
s(S'basket'
p3051
S'walk'
p3052
tp3053
I1
s(S'leap'
p3054
S'try'
p3055
tp3056
I1
s(S'flag'
p3057
g1638
tp3058
I1
s(S'hand'
p3059
S'swim'
p3060
tp3061
I1
s(S'boy'
p3062
S'raise'
p3063
tp3064
I2
s(S'woman'
p3065
S'sit'
p3066
tp3067
I73
s(S'driver'
p3068
S'give'
p3069
tp3070
I1
s(S'police'
p3071
S'have'
p3072
tp3073
I1
s(S'black'
p3074
g159
tp3075
I2
s(S'pool'
p3076
S'tilt'
p3077
tp3078
I1
s(S'player'
p3079
S'drop'
p3080
tp3081
I1
s(S'shape'
p3082
S'sit'
p3083
tp3084
I1
s(g3036
S'show'
p3085
tp3086
I1
s(g2450
S'stand'
p3087
tp3088
I1
s(S'rest'
p3089
S'curb'
p3090
tp3091
I1
s(S'stand'
p3092
S'carry'
p3093
tp3094
I2
s(S'hand'
p3095
g1455
tp3096
I1
s(S'baseball'
p3097
S'run'
p3098
tp3099
I1
s(S'sidewalk'
p3100
S'walk'
p3101
tp3102
I1
s(S'boy'
p3103
S'ring'
p3104
tp3105
I2
s(S'line'
p3106
g912
tp3107
I1
s(S'water'
p3108
S'have'
p3109
tp3110
I1
s(S'move'
p3111
g2520
tp3112
I1
s(S'front'
p3113
S'use'
p3114
tp3115
I1
s(S'person'
p3116
S'hold'
p3117
tp3118
I25
s(S'play'
p3119
S'inflated'
p3120
tp3121
I1
s(S'body'
p3122
S'hold'
p3123
tp3124
I1
s(g1621
S'walk'
p3125
tp3126
I18
s(S'group'
p3127
g644
tp3128
I1
s(S'water'
p3129
S'shake'
p3130
tp3131
I1
s(g1753
S'jump'
p3132
tp3133
I1
s(S'person'
p3134
S'go'
p3135
tp3136
I6
s(S'officer'
p3137
S'speak'
p3138
tp3139
I1
s(S'child'
p3140
g1706
tp3141
I1
s(S'person'
p3142
S'decorated'
p3143
tp3144
I1
s(S'man'
p3145
S'shoot'
p3146
tp3147
I2
s(S'board'
p3148
S'become'
p3149
tp3150
I1
s(S'stand'
p3151
S'lay'
p3152
tp3153
I2
s(S'woman'
p3154
S'speak'
p3155
tp3156
I2
s(S'right'
p3157
S'be'
p3158
tp3159
I1
s(S'couple'
p3160
S'hang'
p3161
tp3162
I1
s(S'start'
p3163
S'take'
p3164
tp3165
I1
s(S'blindfold'
p3166
S'hang'
p3167
tp3168
I1
s(S'head'
p3169
S'play'
p3170
tp3171
I1
s(S'mix'
p3172
g1359
tp3173
I1
s(S'hand'
p3174
S'jump'
p3175
tp3176
I3
s(S'someone'
p3177
g1002
tp3178
I2
s(g2590
g1393
tp3179
I2
s(S'arm'
p3180
S'extend'
p3181
tp3182
I1
s(S'man'
p3183
S'prepare'
p3184
tp3185
I2
s(S'man'
p3186
S'hit'
p3187
tp3188
I5
s(S'baseball'
p3189
S'be'
p3190
tp3191
I9
s(S'rise'
p3192
g2902
tp3193
I1
s(S'lady'
p3194
S'advertise'
p3195
tp3196
I1
s(S'basket'
p3197
g194
tp3198
I1
s(S'man'
p3199
S'sell'
p3200
tp3201
I5
s(S'boy'
p3202
S'bend'
p3203
tp3204
I3
s(S'man'
p3205
S'roll'
p3206
tp3207
I1
s(S'woman'
p3208
S'hang'
p3209
tp3210
I5
s(S'view'
p3211
S'sit'
p3212
tp3213
I1
s(S'foot'
p3214
S'stick'
p3215
tp3216
I1
s(S'black'
p3217
g3155
tp3218
I1
s(S'ground'
p3219
g3016
tp3220
I1
s(S'man'
p3221
g330
tp3222
I13
s(S'audience'
p3223
S'sit'
p3224
tp3225
I1
s(S'balloon'
p3226
g2268
tp3227
I1
s(S'path'
p3228
S'walk'
p3229
tp3230
I1
s(S'business'
p3231
S'hold'
p3232
tp3233
I1
s(S'man'
p3234
S'secured'
p3235
tp3236
I1
s(S'river'
p3237
S'swim'
p3238
tp3239
I1
s(S'store'
p3240
g2439
tp3241
I2
s(S'film'
p3242
S'be'
p3243
tp3244
I1
s(S'box'
p3245
g1500
tp3246
I1
s(S'suit'
p3247
S'run'
p3248
tp3249
I3
s(g2844
S'hold'
p3250
tp3251
I45
s(S'leash'
p3252
S'hold'
p3253
tp3254
I2
s(g827
S'use'
p3255
tp3256
I1
s(S'others'
p3257
g2817
tp3258
I1
s(S'high'
p3259
S'jump'
p3260
tp3261
I2
s(S'water'
p3262
S'stick'
p3263
tp3264
I12
s(S'twist'
p3265
g694
tp3266
I1
s(g1364
S'prepare'
p3267
tp3268
I1
s(S'people'
p3269
S'stand'
p3270
tp3271
I4
s(S'nose'
p3272
S'wear'
p3273
tp3274
I2
s(S'boy'
p3275
S'teach'
p3276
tp3277
I2
s(S'stand'
p3278
g2784
tp3279
I1
s(S'rope'
p3280
S'pull'
p3281
tp3282
I2
s(S'swing'
p3283
S'stand'
p3284
tp3285
I2
s(S'man'
p3286
g1410
tp3287
I47
s(S'snow'
p3288
S'shore'
p3289
tp3290
I1
s(S'slide'
p3291
S'be'
p3292
tp3293
I2
s(S'pack'
p3294
S'be'
p3295
tp3296
I1
s(S'slab'
p3297
g694
tp3298
I1
s(S'man'
p3299
S'welcome'
p3300
tp3301
I3
s(S'water'
p3302
S'pose'
p3303
tp3304
I1
s(S'football'
p3305
g3037
tp3306
I1
s(S'stand'
p3307
g1803
tp3308
I3
s(S'clothing'
p3309
S'take'
p3310
tp3311
I1
s(S'end'
p3312
g1256
tp3313
I1
s(g1370
S'jump'
p3314
tp3315
I2
s(g917
S'wait'
p3316
tp3317
I1
s(S'toy'
p3318
S'duck'
p3319
tp3320
I1
s(S'play'
p3321
S'wear'
p3322
tp3323
I3
s(S'bag'
p3324
S'be'
p3325
tp3326
I3
s(S'plant'
p3327
S'cover'
p3328
tp3329
I1
s(S'boy'
p3330
S'sit'
p3331
tp3332
I21
s(S'man'
p3333
S'enjoy'
p3334
tp3335
I1
s(S'front'
p3336
g2481
tp3337
I1
s(S'man'
p3338
g3289
tp3339
I3
s(S'watch'
p3340
g795
tp3341
I1
s(S'man'
p3342
g2781
tp3343
I1
s(S'train'
p3344
S'hold'
p3345
tp3346
I2
s(g2842
S'wear'
p3347
tp3348
I58
s(S'sweater'
p3349
S'hold'
p3350
tp3351
I2
s(S'talk'
p3352
S'sit'
p3353
tp3354
I3
s(S'rock'
p3355
g1503
tp3356
I4
s(S'back'
p3357
g2502
tp3358
I1
s(S'collar'
p3359
S'walk'
p3360
tp3361
I2
s(S'boy'
p3362
g591
tp3363
I1
s(S'woman'
p3364
g1638
tp3365
I2
s(S'girl'
p3366
S'enjoy'
p3367
tp3368
I2
s(g2977
S'come'
p3369
tp3370
I1
s(S'guy'
p3371
S'play'
p3372
tp3373
I3
s(S'men'
p3374
S'hold'
p3375
tp3376
I1
s(S'vintage'
p3377
S'be'
p3378
tp3379
I1
s(S'ball'
p3380
S'sit'
p3381
tp3382
I1
s(S'worker'
p3383
S'wear'
p3384
tp3385
I1
s(S'look'
p3386
S'left'
p3387
tp3388
I1
s(S'talk'
p3389
S'walk'
p3390
tp3391
I2
s(S'inside'
p3392
S'get'
p3393
tp3394
I1
s(S'look'
p3395
S'paint'
p3396
tp3397
I2
s(S'place'
p3398
S'sit'
p3399
tp3400
I1
s(S'child'
p3401
g497
tp3402
I2
s(S'logo'
p3403
g69
tp3404
I1
s(S'winter'
p3405
S'hold'
p3406
tp3407
I1
s(S'suit'
p3408
S'hold'
p3409
tp3410
I2
s(S'toy'
p3411
S'run'
p3412
tp3413
I4
s(S'woman'
p3414
S'string'
p3415
tp3416
I1
s(S'ground'
p3417
S'cry'
p3418
tp3419
I1
s(S'slide'
p3420
g2862
tp3421
I1
s(S'men'
p3422
S'participate'
p3423
tp3424
I1
s(S'ball'
p3425
S'fly'
p3426
tp3427
I1
s(g2937
S'stare'
p3428
tp3429
I2
s(S'play'
p3430
S'swim'
p3431
tp3432
I1
s(S'swing'
p3433
S'stick'
p3434
tp3435
I1
s(g941
S'put'
p3436
tp3437
I1
s(g2844
S'try'
p3438
tp3439
I1
s(S'woman'
p3440
g401
tp3441
I10
s(S'stand'
p3442
S'cast'
p3443
tp3444
I1
s(S'struggle'
p3445
g327
tp3446
I1
s(S'woman'
p3447
S"'s"
p3448
tp3449
I2
s(S'country'
p3450
g30
tp3451
I1
s(S'blow'
p3452
g2082
tp3453
I1
s(S'bridge'
p3454
S'cover'
p3455
tp3456
I1
s(S'direction'
p3457
g2172
tp3458
I1
s(S'girl'
p3459
S'lay'
p3460
tp3461
I4
s(S'plant'
p3462
S'be'
p3463
tp3464
I1
s(S'lady'
p3465
S'take'
p3466
tp3467
I1
s(S'group'
p3468
g1311
tp3469
I2
s(S'man'
p3470
S'set'
p3471
tp3472
I4
s(S'girl'
p3473
g3125
tp3474
I50
s(S'snow'
p3475
S'pull'
p3476
tp3477
I1
s(S'party'
p3478
S'pose'
p3479
tp3480
I3
s(S'woman'
p3481
S'mind'
p3482
tp3483
I1
s(g786
S'sit'
p3484
tp3485
I1
s(g3189
g3322
tp3486
I1
s(S'woman'
p3487
S'swing'
p3488
tp3489
I2
s(S'bat'
p3490
S'be'
p3491
tp3492
I1
s(g1676
S'drink'
p3493
tp3494
I1
s(S'body'
p3495
S'burn'
p3496
tp3497
I1
s(S'drink'
p3498
S'be'
p3499
tp3500
I1
s(g2607
S'hold'
p3501
tp3502
I3
s(g1519
S'replace'
p3503
tp3504
I1
s(g1481
S'cover'
p3505
tp3506
I3
s(g2795
S'drink'
p3507
tp3508
I2
s(S'show'
p3509
S'wear'
p3510
tp3511
I1
s(S'stand'
p3512
S'take'
p3513
tp3514
I8
s(S'bench'
p3515
S'play'
p3516
tp3517
I1
s(S'piece'
p3518
g603
tp3519
I1
s(S'front'
p3520
g3063
tp3521
I1
s(S'sidewalk'
p3522
S'stick'
p3523
tp3524
I1
s(S'point'
p3525
S'see'
p3526
tp3527
I1
s(S'sign'
p3528
S'be'
p3529
tp3530
I2
s(S'sign'
p3531
S'read'
p3532
tp3533
I1
s(S'suit'
p3534
S'walk'
p3535
tp3536
I4
s(S'adult'
p3537
S'pose'
p3538
tp3539
I2
s(S'bull'
p3540
g2043
tp3541
I1
s(S'water'
p3542
S'come'
p3543
tp3544
I2
s(g2532
S'display'
p3545
tp3546
I1
s(S'ball'
p3547
g2673
tp3548
I1
s(S'boy'
p3549
S'set'
p3550
tp3551
I2
s(S'travel'
p3552
S'trail'
p3553
tp3554
I1
s(g2669
S'ring'
p3555
tp3556
I1
s(S'black'
p3557
S'chase'
p3558
tp3559
I1
s(S'boy'
p3560
g3503
tp3561
I1
s(S'child'
p3562
S'enclosed'
p3563
tp3564
I1
s(S'winter'
p3565
S'be'
p3566
tp3567
I4
s(S'male'
p3568
S'hold'
p3569
tp3570
I2
s(S'girl'
p3571
g3281
tp3572
I1
s(g2441
S'leave'
p3573
tp3574
I2
s(S'road'
p3575
S'play'
p3576
tp3577
I1
s(S'game'
p3578
S'run'
p3579
tp3580
I2
s(S'purse'
p3581
S'be'
p3582
tp3583
I1
s(S'wave'
p3584
S'shore'
p3585
tp3586
I2
s(S'area'
p3587
S'fold'
p3588
tp3589
I1
s(g2331
S'make'
p3590
tp3591
I1
s(S'flag'
p3592
S'be'
p3593
tp3594
I7
s(S'boy'
p3595
S'go'
p3596
tp3597
I4
s(g2881
S'sit'
p3598
tp3599
I2
s(S'side'
p3600
S'bend'
p3601
tp3602
I1
s(S'crowd'
p3603
S'stand'
p3604
tp3605
I1
s(S'water'
p3606
g3120
tp3607
I1
s(S'boy'
p3608
S'make'
p3609
tp3610
I8
s(S'stand'
p3611
S'cover'
p3612
tp3613
I3
s(S'color'
p3614
S'jump'
p3615
tp3616
I1
s(S'man'
p3617
g766
tp3618
I2
s(S'football'
p3619
S'jump'
p3620
tp3621
I3
s(S'someone'
p3622
S'play'
p3623
tp3624
I1
s(S'person'
p3625
g2533
tp3626
I1
s(S'boy'
p3627
S'climb'
p3628
tp3629
I23
s(S'suit'
p3630
g3206
tp3631
I1
s(S'attempt'
p3632
S'get'
p3633
tp3634
I1
s(g3217
S'make'
p3635
tp3636
I1
s(S'lead'
p3637
g2169
tp3638
I1
s(S'writing'
p3639
S'display'
p3640
tp3641
I1
s(S'sweater'
p3642
S'climb'
p3643
tp3644
I1
s(g3051
S'be'
p3645
tp3646
I2
s(S'baby'
p3647
S'make'
p3648
tp3649
I2
s(g973
S'cover'
p3650
tp3651
I2
s(S'stand'
p3652
S'enclosed'
p3653
tp3654
I1
s(S'girl'
p3655
S'have'
p3656
tp3657
I6
s(S'water'
p3658
S'hold'
p3659
tp3660
I4
s(S'leap'
p3661
g1688
tp3662
I8
s(S'life'
p3663
S'accompany'
p3664
tp3665
I1
s(S'park'
p3666
S'read'
p3667
tp3668
I1
s(S'phone'
p3669
S'read'
p3670
tp3671
I1
s(S'inside'
p3672
g2290
tp3673
I1
s(S'man'
p3674
S'teach'
p3675
tp3676
I2
s(S'woman'
p3677
S'stick'
p3678
tp3679
I4
s(S'man'
p3680
S'go'
p3681
tp3682
I10
s(S'stream'
p3683
S'carry'
p3684
tp3685
I1
s(S'woman'
p3686
S'teach'
p3687
tp3688
I1
s(S'lady'
p3689
S'go'
p3690
tp3691
I1
s(S'male'
p3692
S'carry'
p3693
tp3694
I1
s(S'baby'
p3695
g1350
tp3696
I11
s(S'woman'
p3697
g2820
tp3698
I29
s(S'feet'
p3699
g282
tp3700
I1
s(g3192
g2357
tp3701
I1
s(S'person'
p3702
g1694
tp3703
I8
s(S'piece'
p3704
S'pose'
p3705
tp3706
I1
s(S'sweater'
p3707
S'be'
p3708
tp3709
I8
s(S'suit'
p3710
g1134
tp3711
I1
s(S'stand'
p3712
g185
tp3713
I1
s(S'woman'
p3714
S'climb'
p3715
tp3716
I18
s(S'plate'
p3717
S'wait'
p3718
tp3719
I1
s(S'man'
p3720
S'study'
p3721
tp3722
I1
s(S'others'
p3723
S'shot'
p3724
tp3725
I1
s(S'fight'
p3726
S'play'
p3727
tp3728
I1
s(S'cluster'
p3729
S'be'
p3730
tp3731
I1
s(g1660
g740
tp3732
I3
s(S'group'
p3733
S'teach'
p3734
tp3735
I1
s(S'suit'
p3736
S'swim'
p3737
tp3738
I1
s(S'boy'
p3739
g3077
tp3740
I1
s(g2680
g1262
tp3741
I1
s(g3186
g2848
tp3742
I16
s(S'boy'
p3743
g990
tp3744
I1
s(S'construction'
p3745
g1344
tp3746
I1
s(S'mother'
p3747
S'eat'
p3748
tp3749
I1
s(S'boy'
p3750
S'handle'
p3751
tp3752
I3
s(S'bench'
p3753
S'be'
p3754
tp3755
I3
s(S'man'
p3756
S'slip'
p3757
tp3758
I1
s(S'bench'
p3759
g900
tp3760
I5
s(S'safety'
p3761
g1531
tp3762
I1
s(S'man'
p3763
S'create'
p3764
tp3765
I1
s(S'box'
p3766
S'be'
p3767
tp3768
I1
s(g830
g2481
tp3769
I1
s(S'lab'
p3770
S'run'
p3771
tp3772
I1
s(g1294
S'make'
p3773
tp3774
I1
s(S'others'
p3775
g3670
tp3776
I1
s(S'food'
p3777
S'make'
p3778
tp3779
I1
s(S'child'
p3780
g2163
tp3781
I1
s(S'person'
p3782
S'pass'
p3783
tp3784
I3
s(S'snow'
p3785
S'chase'
p3786
tp3787
I1
s(S'city'
p3788
S'stare'
p3789
tp3790
I1
s(S'street'
p3791
S'see'
p3792
tp3793
I1
s(S'breed'
p3794
S'run'
p3795
tp3796
I2
s(S'boy'
p3797
S'cover'
p3798
tp3799
I5
s(S'stuff'
p3800
S'display'
p3801
tp3802
I1
s(S'leash'
p3803
S'walk'
p3804
tp3805
I4
s(S'group'
p3806
S'be'
p3807
tp3808
I53
s(S'suit'
p3809
S'take'
p3810
tp3811
I1
s(S'rope'
p3812
S'wear'
p3813
tp3814
I1
s(S'sign'
p3815
S'say'
p3816
tp3817
I7
s(S'stand'
p3818
g2772
tp3819
I2
s(S'ball'
p3820
S'look'
p3821
tp3822
I1
s(S'try'
p3823
S'aim'
p3824
tp3825
I1
s(S'purse'
p3826
g1700
tp3827
I1
s(S'white'
p3828
S'stick'
p3829
tp3830
I2
s(S'type'
p3831
g2369
tp3832
I1
s(g1640
g1233
tp3833
I1
s(S'clothing'
p3834
S'be'
p3835
tp3836
I4
s(g3747
S'sit'
p3837
tp3838
I1
s(g1866
S'draw'
p3839
tp3840
I1
s(S'size'
p3841
S'be'
p3842
tp3843
I1
s(S'woman'
p3844
S'face'
p3845
tp3846
I3
s(S'woman'
p3847
S'use'
p3848
tp3849
I1
s(S'card'
p3850
S'know'
p3851
tp3852
I2
s(S'girl'
p3853
S'fly'
p3854
tp3855
I2
s(S'microphone'
p3856
S'be'
p3857
tp3858
I1
s(S'child'
p3859
S'swim'
p3860
tp3861
I9
s(S'person'
p3862
g2316
tp3863
I2
s(S'crowd'
p3864
S'pass'
p3865
tp3866
I1
s(S'woman'
p3867
g743
tp3868
I2
s(g2675
g2035
tp3869
I1
s(S'family'
p3870
S'sit'
p3871
tp3872
I1
s(S'safety'
p3873
S'pull'
p3874
tp3875
I1
s(S'person'
p3876
g1265
tp3877
I2
s(S'black'
p3878
S'sit'
p3879
tp3880
I2
s(S'woman'
p3881
S'block'
p3882
tp3883
I1
s(g421
g3149
tp3884
I1
s(S'girl'
p3885
S'sit'
p3886
tp3887
I39
s(g3462
g632
tp3888
I1
s(S'football'
p3889
S'tackle'
p3890
tp3891
I4
s(g1561
S'swim'
p3892
tp3893
I1
s(S'ground'
p3894
S'see'
p3895
tp3896
I2
s(S'number'
p3897
g2169
tp3898
I1
s(S'man'
p3899
S'hang'
p3900
tp3901
I7
s(S'book'
p3902
S'have'
p3903
tp3904
I1
s(S'arm'
p3905
S'set'
p3906
tp3907
I1
s(S'man'
p3908
S'curb'
p3909
tp3910
I1
s(S'table'
p3911
S'have'
p3912
tp3913
I2
s(g119
g3653
tp3914
I1
s(S'start'
p3915
S'walk'
p3916
tp3917
I2
s(S'flag'
p3918
g3865
tp3919
I1
s(S'marketplace'
p3920
g2646
tp3921
I1
s(S'fan'
p3922
S'be'
p3923
tp3924
I1
s(S'picture'
p3925
S'walk'
p3926
tp3927
I1
s(S'man'
p3928
S'participate'
p3929
tp3930
I1
s(S'picture'
p3931
S'swim'
p3932
tp3933
I1
s(S'rock'
p3934
S'loom'
p3935
tp3936
I1
s(S'close'
p3937
g2430
tp3938
I1
s(S'male'
p3939
S'sit'
p3940
tp3941
I1
s(S'window'
p3942
S'display'
p3943
tp3944
I2
s(g1843
S'look'
p3945
tp3946
I1
s(S'barrel'
p3947
g3751
tp3948
I1
s(g8
S'be'
p3949
tp3950
I2
s(S'plane'
p3951
S'do'
p3952
tp3953
I3
s(S'flag'
p3954
g3496
tp3955
I1
s(S'girl'
p3956
S'hang'
p3957
tp3958
I12
s(S'lap'
p3959
S'run'
p3960
tp3961
I1
s(S'spot'
p3962
S'be'
p3963
tp3964
I1
s(S'baseball'
p3965
g1977
tp3966
I1
s(S'girl'
p3967
S'put'
p3968
tp3969
I2
s(S'cap'
p3970
g900
tp3971
I2
s(S'child'
p3972
S'learn'
p3973
tp3974
I1
s(g1232
g1641
tp3975
I1
s(S'rider'
p3976
S'covered'
p3977
tp3978
I1
s(S'adult'
p3979
S'walk'
p3980
tp3981
I5
s(S'girl'
p3982
S'catch'
p3983
tp3984
I1
s(S'safety'
p3985
S'push'
p3986
tp3987
I1
s(S'hand'
p3988
g3181
tp3989
I1
s(S'seat'
p3990
g3640
tp3991
I1
s(S'feet'
p3992
S'stand'
p3993
tp3994
I1
s(S'lady'
p3995
g1359
tp3996
I7
s(S'play'
p3997
S'associated'
p3998
tp3999
I1
s(S'woman'
p4000
S'colored'
p4001
tp4002
I2
s(S'air'
p4003
S'watch'
p4004
tp4005
I2
s(S'team'
p4006
S'run'
p4007
tp4008
I2
s(S'male'
p4009
S'stand'
p4010
tp4011
I1
s(S'officer'
p4012
g3072
tp4013
I1
s(S'child'
p4014
g3748
tp4015
I16
s(S'man'
p4016
S'whistle'
p4017
tp4018
I3
s(S'push'
p4019
S'follow'
p4020
tp4021
I1
s(S'image'
p4022
S'wear'
p4023
tp4024
I1
s(S'hand'
p4025
g909
tp4026
I3
s(S'jet'
p4027
S'take'
p4028
tp4029
I1
s(S'slide'
p4030
S'wait'
p4031
tp4032
I3
s(S'man'
p4033
S'lay'
p4034
tp4035
I6
s(S'guy'
p4036
S'watch'
p4037
tp4038
I2
s(S'street'
p4039
S'take'
p4040
tp4041
I1
s(S'ball'
p4042
S'go'
p4043
tp4044
I1
s(S'plane'
p4045
g3895
tp4046
I1
s(S'girl'
p4047
S'climb'
p4048
tp4049
I25
s(g246
S'wear'
p4050
tp4051
I3
s(S'brand'
p4052
g1601
tp4053
I1
s(S'church'
p4054
S'play'
p4055
tp4056
I1
s(g569
S'stand'
p4057
tp4058
I40
s(S'group'
p4059
S'climb'
p4060
tp4061
I1
s(g803
g1661
tp4062
I3
s(S'man'
p4063
S'play'
p4064
tp4065
I43
s(g2287
S'paint'
p4066
tp4067
I2
s(S'woman'
p4068
S'log'
p4069
tp4070
I1
s(S'bat'
p4071
g377
tp4072
I1
s(S'man'
p4073
S'make'
p4074
tp4075
I12
s(g3473
g1622
tp4076
I16
s(g3745
g1781
tp4077
I3
s(S'hand'
p4078
S'have'
p4079
tp4080
I2
s(S'sweater'
p4081
S'follow'
p4082
tp4083
I1
s(S'play'
p4084
S'suspend'
p4085
tp4086
I1
s(S'cap'
p4087
S'walk'
p4088
tp4089
I1
s(S'plane'
p4090
S'create'
p4091
tp4092
I1
s(g652
S'go'
p4093
tp4094
I1
s(S'boy'
p4095
S'use'
p4096
tp4097
I4
s(S'person'
p4098
S'read'
p4099
tp4100
I1
s(S'car'
p4101
S'be'
p4102
tp4103
I13
s(S'girl'
p4104
S'do'
p4105
tp4106
I11
s(S'station'
p4107
g1347
tp4108
I1
s(S'male'
p4109
S'run'
p4110
tp4111
I1
s(S'guy'
p4112
S'look'
p4113
tp4114
I2
s(S'board'
p4115
S'log'
p4116
tp4117
I1
s(g125
S'try'
p4118
tp4119
I1
s(S'image'
p4120
S'drink'
p4121
tp4122
I1
s(g3911
S'take'
p4123
tp4124
I1
s(S'woman'
p4125
S'look'
p4126
tp4127
I13
s(S'boy'
p4128
S'draw'
p4129
tp4130
I3
s(S'arm'
p4131
S'come'
p4132
tp4133
I1
s(S'football'
p4134
g1928
tp4135
I1
s(S'white'
p4136
S'sleep'
p4137
tp4138
I1
s(S'plant'
p4139
S'wait'
p4140
tp4141
I1
s(g311
g3005
tp4142
I1
s(S'stand'
p4143
S'painted'
p4144
tp4145
I1
s(S'girl'
p4146
g1446
tp4147
I1
s(g1068
S'be'
p4148
tp4149
I1
s(S'group'
p4150
g2588
tp4151
I6
s(S'football'
p4152
g174
tp4153
I1
s(S'bottle'
p4154
S'wear'
p4155
tp4156
I1
s(S'girl'
p4157
S'say'
p4158
tp4159
I1
s(S'man'
p4160
S'come'
p4161
tp4162
I2
s(S'girl'
p4163
S'stand'
p4164
tp4165
I14
s(S'male'
p4166
S'do'
p4167
tp4168
I1
s(S'middle'
p4169
S'sit'
p4170
tp4171
I2
s(S'house'
p4172
g3510
tp4173
I1
s(S'group'
p4174
g582
tp4175
I1
s(S'person'
p4176
g3986
tp4177
I1
s(S'child'
p4178
S'walk'
p4179
tp4180
I22
s(S'swing'
p4181
S'be'
p4182
tp4183
I2
s(S'street'
p4184
g842
tp4185
I1
s(g3095
g2651
tp4186
I6
s(S'window'
p4187
S'be'
p4188
tp4189
I3
s(S'child'
p4190
S'look'
p4191
tp4192
I4
s(S'crowd'
p4193
S'sit'
p4194
tp4195
I3
s(S'bag'
p4196
S'hang'
p4197
tp4198
I1
s(S'man'
p4199
S'look'
p4200
tp4201
I29
s(S'baby'
p4202
S'colored'
p4203
tp4204
I1
s(S'boy'
p4205
S'paint'
p4206
tp4207
I5
s(S'man'
p4208
g1092
tp4209
I1
s(g1040
g1245
tp4210
I1
s(S'stuff'
p4211
S'hang'
p4212
tp4213
I1
s(S'stand'
p4214
g1228
tp4215
I1
s(g2844
S'get'
p4216
tp4217
I4
s(S'boy'
p4218
S'fly'
p4219
tp4220
I1
s(S'clothes'
p4221
S'stand'
p4222
tp4223
I1
s(S'football'
p4224
S'lift'
p4225
tp4226
I1
s(S'hand'
p4227
g3675
tp4228
I1
s(S'bench'
p4229
g2817
tp4230
I1
s(S'girl'
p4231
g1421
tp4232
I1
s(S'balloon'
p4233
S'colored'
p4234
tp4235
I1
s(S'traffic'
p4236
g404
tp4237
I1
s(g1381
S'be'
p4238
tp4239
I5
s(g4187
g42
tp4240
I1
s(S'man'
p4241
S"'s"
p4242
tp4243
I1
s(S'friend'
p4244
S'paint'
p4245
tp4246
I1
s(S'family'
p4247
S'crossing'
p4248
tp4249
I1
s(g2220
S'cover'
p4250
tp4251
I8
s(S'piece'
p4252
g4116
tp4253
I1
s(S'child'
p4254
S'cover'
p4255
tp4256
I5
s(S'head'
p4257
S'hold'
p4258
tp4259
I2
s(S'body'
p4260
g2859
tp4261
I1
s(S'boy'
p4262
S'inflated'
p4263
tp4264
I1
s(S'act'
p4265
S'pose'
p4266
tp4267
I1
s(S'step'
p4268
S'log'
p4269
tp4270
I1
s(S'window'
p4271
S'cast'
p4272
tp4273
I1
s(S'lady'
p4274
S'back'
p4275
tp4276
I1
s(S'hair'
p4277
S'wear'
p4278
tp4279
I6
s(S'home'
p4280
g3292
tp4281
I1
s(S'front'
p4282
g2381
tp4283
I2
s(S'eye'
p4284
g1152
tp4285
I1
s(S'head'
p4286
g530
tp4287
I1
s(S'male'
p4288
S'stare'
p4289
tp4290
I1
s(g2318
S'be'
p4291
tp4292
I2
s(g1572
S'wait'
p4293
tp4294
I2
s(S'field'
p4295
S'stick'
p4296
tp4297
I4
s(S'someone'
p4298
S'be'
p4299
tp4300
I12
s(S'group'
p4301
g3443
tp4302
I1
s(S'cap'
p4303
S'wear'
p4304
tp4305
I2
s(S'piece'
p4306
g419
tp4307
I1
s(S'stand'
p4308
S'tip'
p4309
tp4310
I2
s(S'person'
p4311
g3412
tp4312
I7
s(S'store'
p4313
g497
tp4314
I1
s(S'front'
p4315
S'sit'
p4316
tp4317
I4
s(S'father'
p4318
S'enjoy'
p4319
tp4320
I2
s(g2605
S'swim'
p4321
tp4322
I2
s(S'street'
p4323
S'walk'
p4324
tp4325
I4
s(S'girl'
p4326
g3751
tp4327
I2
s(g3947
S'hold'
p4328
tp4329
I1
s(S'child'
p4330
S'go'
p4331
tp4332
I1
s(S'man'
p4333
S'be'
p4334
tp4335
I464
s(S'suit'
p4336
g3998
tp4337
I1
s(S'girl'
p4338
g297
tp4339
I4
s(S'nose'
p4340
g191
tp4341
I1
s(S'middle'
p4342
S'crowded'
p4343
tp4344
I1
s(S'rider'
p4345
g1741
tp4346
I3
s(S'person'
p4347
g2667
tp4348
I1
s(g131
S'have'
p4349
tp4350
I3
s(g672
S'set'
p4351
tp4352
I3
s(S'man'
p4353
S'get'
p4354
tp4355
I7
s(g2483
S'walk'
p4356
tp4357
I1
s(S'adult'
p4358
g1709
tp4359
I2
s(S'water'
p4360
S'chase'
p4361
tp4362
I1
s(g774
S'speak'
p4363
tp4364
I2
s(S'ball'
p4365
S'colored'
p4366
tp4367
I1
s(S'court'
p4368
S'run'
p4369
tp4370
I1
s(S'sheep'
p4371
S'walk'
p4372
tp4373
I2
s(S'player'
p4374
g737
tp4375
I1
s(S'look'
p4376
g2667
tp4377
I1
s(S'inside'
p4378
S'hold'
p4379
tp4380
I1
s(S'boy'
p4381
S'eat'
p4382
tp4383
I6
s(S'speed'
p4384
S'drive'
p4385
tp4386
I1
s(S'person'
p4387
S'include'
p4388
tp4389
I2
s(S'woman'
p4390
S'go'
p4391
tp4392
I1
s(S'glass'
p4393
S'display'
p4394
tp4395
I1
s(S'team'
p4396
g2495
tp4397
I1
s(S'boy'
p4398
S'walk'
p4399
tp4400
I26
s(S'wave'
p4401
g2784
tp4402
I2
s(S'men'
p4403
S'climb'
p4404
tp4405
I1
s(S'girl'
p4406
S'reach'
p4407
tp4408
I2
s(S'alert'
p4409
S'hold'
p4410
tp4411
I1
s(g485
S'concentrate'
p4412
tp4413
I1
s(S'boy'
p4414
S'stop'
p4415
tp4416
I1
s(S'beverage'
p4417
S'hold'
p4418
tp4419
I1
s(S'white'
p4420
S'come'
p4421
tp4422
I1
s(S'people'
p4423
S'jump'
p4424
tp4425
I1
s(g944
S'chase'
p4426
tp4427
I1
s(g3881
g162
tp4428
I1
s(S'law'
p4429
g3138
tp4430
I1
s(S'race'
p4431
S'be'
p4432
tp4433
I8
s(g2187
S'walk'
p4434
tp4435
I1
s(S'cap'
p4436
g3484
tp4437
I4
s(S'garbage'
p4438
S'add'
p4439
tp4440
I1
s(S'team'
p4441
S'jump'
p4442
tp4443
I1
s(S'child'
p4444
S'make'
p4445
tp4446
I4
s(S'figure'
p4447
S'be'
p4448
tp4449
I2
s(S'hand'
p4450
S'bend'
p4451
tp4452
I1
s(S'boy'
p4453
S'stretch'
p4454
tp4455
I1
s(S'people'
p4456
S'watch'
p4457
tp4458
I4
s(S'feet'
p4459
g422
tp4460
I2
s(S'light'
p4461
S'run'
p4462
tp4463
I2
s(S'watch'
p4464
g2151
tp4465
I1
s(S'look'
p4466
g2416
tp4467
I5
s(S'heart'
p4468
S'wear'
p4469
tp4470
I1
s(S'house'
p4471
S'be'
p4472
tp4473
I1
s(g234
g3675
tp4474
I1
s(S'competition'
p4475
S'run'
p4476
tp4477
I1
s(S'rubber'
p4478
S'suspend'
p4479
tp4480
I1
s(S'man'
p4481
S'stay'
p4482
tp4483
I1
s(S'participant'
p4484
g1625
tp4485
I1
s(g4181
S'wear'
p4486
tp4487
I1
s(S'boy'
p4488
S'come'
p4489
tp4490
I3
s(g1186
S'be'
p4491
tp4492
I1
s(S'rope'
p4493
g2537
tp4494
I1
s(S'place'
p4495
S'jump'
p4496
tp4497
I1
s(S'hair'
p4498
S'prepare'
p4499
tp4500
I1
s(S'man'
p4501
S'trim'
p4502
tp4503
I1
s(g1046
g936
tp4504
I1
s(S'safety'
p4505
S'stand'
p4506
tp4507
I1
s(S'person'
p4508
S'check'
p4509
tp4510
I1
s(g1797
S'pine'
p4511
tp4512
I1
s(S'girl'
p4513
S'flooded'
p4514
tp4515
I1
s(S'person'
p4516
g1809
tp4517
I2
s(S'shot'
p4518
S'gather'
p4519
tp4520
I1
s(S'adult'
p4521
S'gather'
p4522
tp4523
I1
s(S'stone'
p4524
S'help'
p4525
tp4526
I1
s(S'ground'
p4527
S'stand'
p4528
tp4529
I1
s(S'boy'
p4530
S'pull'
p4531
tp4532
I1
s(S'hair'
p4533
S'sit'
p4534
tp4535
I3
s(S'girl'
p4536
S'bounce'
p4537
tp4538
I10
s(S'man'
p4539
S'train'
p4540
tp4541
I1
s(S'college'
p4542
S'be'
p4543
tp4544
I1
s(g314
S'zip'
p4545
tp4546
I2
s(S'something'
p4547
g3387
tp4548
I1
s(S'look'
p4549
g2778
tp4550
I2
s(S'microphone'
p4551
S'play'
p4552
tp4553
I3
s(g1786
S'pose'
p4554
tp4555
I4
s(S'practice'
p4556
S'craft'
p4557
tp4558
I1
s(S'player'
p4559
S'hit'
p4560
tp4561
I6
s(S'photograph'
p4562
g2667
tp4563
I1
s(S'sight'
p4564
S'deliver'
p4565
tp4566
I1
s(S'man'
p4567
S'face'
p4568
tp4569
I4
s(S'woman'
p4570
S'trash'
p4571
tp4572
I2
s(g131
g3857
tp4573
I25
s(S'look'
p4574
S'walk'
p4575
tp4576
I2
s(S'black'
p4577
S'lift'
p4578
tp4579
I1
s(S'group'
p4580
g165
tp4581
I1
s(S'girl'
p4582
S'meet'
p4583
tp4584
I1
s(S'play'
p4585
g72
tp4586
I1
s(S'person'
p4587
S'make'
p4588
tp4589
I4
s(S'arm'
p4590
S'swim'
p4591
tp4592
I1
s(S'guy'
p4593
g4525
tp4594
I1
s(S'stand'
p4595
S'wait'
p4596
tp4597
I3
s(g2324
S'log'
p4598
tp4599
I1
s(S'game'
p4600
S'wear'
p4601
tp4602
I2
s(S'try'
p4603
S'push'
p4604
tp4605
I1
s(S'base'
p4606
g4031
tp4607
I2
s(S'cash'
p4608
g4309
tp4609
I2
s(S'child'
p4610
S'leave'
p4611
tp4612
I2
s(S'competition'
p4613
S'jump'
p4614
tp4615
I1
s(S'wife'
p4616
S'hold'
p4617
tp4618
I1
s(S'face'
p4619
S'talk'
p4620
tp4621
I1
s(S'wave'
p4622
S'stick'
p4623
tp4624
I1
s(S'person'
p4625
S'do'
p4626
tp4627
I24
s(S'boy'
p4628
S'look'
p4629
tp4630
I10
s(S'leash'
p4631
g2005
tp4632
I1
s(S'look'
p4633
S'display'
p4634
tp4635
I4
s(S'sky'
p4636
S'stand'
p4637
tp4638
I1
s(S'picture'
p4639
g2476
tp4640
I1
s(S'officer'
p4641
S'stand'
p4642
tp4643
I2
s(S'couple'
p4644
S'sit'
p4645
tp4646
I4
s(S'race'
p4647
g2064
tp4648
I1
s(g187
S'be'
p4649
tp4650
I35
s(S'play'
p4651
g2003
tp4652
I2
s(S'middle'
p4653
S'jump'
p4654
tp4655
I2
s(S'black'
p4656
g927
tp4657
I1
s(S'red'
p4658
g2923
tp4659
I5
s(S'black'
p4660
S'run'
p4661
tp4662
I9
s(S'floor'
p4663
S'be'
p4664
tp4665
I2
s(S'front'
p4666
g2579
tp4667
I2
s(S'person'
p4668
S'chase'
p4669
tp4670
I1
s(S'feet'
p4671
S'be'
p4672
tp4673
I1
s(S'pool'
p4674
g241
tp4675
I1
s(S'others'
p4676
g2274
tp4677
I1
s(S'street'
p4678
g3789
tp4679
I1
s(S'look'
p4680
S'be'
p4681
tp4682
I10
s(S'girl'
p4683
S'enclosed'
p4684
tp4685
I1
s(S'help'
p4686
g3235
tp4687
I1
s(S'board'
p4688
S'stand'
p4689
tp4690
I1
s(S'red'
p4691
S'stick'
p4692
tp4693
I2
s(S'photograph'
p4694
S'jump'
p4695
tp4696
I1
s(S'eye'
p4697
S'colored'
p4698
tp4699
I1
s(S'cut'
p4700
g380
tp4701
I1
s(S'leather'
p4702
S'stand'
p4703
tp4704
I3
s(S'sweater'
p4705
S'look'
p4706
tp4707
I1
s(S'snow'
p4708
S'hold'
p4709
tp4710
I3
s(S'female'
p4711
S'sit'
p4712
tp4713
I2
s(S'inside'
p4714
S'curb'
p4715
tp4716
I1
s(S'black'
p4717
S'appear'
p4718
tp4719
I1
s(S'hair'
p4720
S'put'
p4721
tp4722
I1
s(S'air'
p4723
g4250
tp4724
I1
s(S'knife'
p4725
g1588
tp4726
I1
s(S'leap'
p4727
S'log'
p4728
tp4729
I3
s(S'team'
p4730
S'discuss'
p4731
tp4732
I1
s(S'blindfold'
p4733
g250
tp4734
I1
s(g1755
S'ask'
p4735
tp4736
I1
s(S'wave'
p4737
S'cover'
p4738
tp4739
I1
s(S'safety'
p4740
S'go'
p4741
tp4742
I1
s(S'player'
p4743
S'shoot'
p4744
tp4745
I1
s(S'man'
p4746
S'walk'
p4747
tp4748
I89
s(S'bridge'
p4749
g117
tp4750
I1
s(S'woman'
p4751
S'left'
p4752
tp4753
I4
s(S'elephant'
p4754
S'wear'
p4755
tp4756
I3
s(S'building'
p4757
g1374
tp4758
I1
s(S'person'
p4759
S'hang'
p4760
tp4761
I4
s(S'person'
p4762
S'fill'
p4763
tp4764
I1
s(S'hair'
p4765
S'show'
p4766
tp4767
I1
s(S'man'
p4768
S'watch'
p4769
tp4770
I10
s(g3756
S'zip'
p4771
tp4772
I1
s(S'bag'
p4773
S'stand'
p4774
tp4775
I1
s(S'girl'
p4776
S'swing'
p4777
tp4778
I1
s(g287
g3851
tp4779
I1
s(S'man'
p4780
g3016
tp4781
I2
s(S'door'
p4782
g1092
tp4783
I1
s(S'talk'
p4784
g3670
tp4785
I1
s(S'bin'
p4786
g2390
tp4787
I1
s(S'cap'
p4788
g1712
tp4789
I1
s(S'ball'
p4790
S'string'
p4791
tp4792
I1
s(S'pool'
p4793
S'do'
p4794
tp4795
I1
s(S'arm'
p4796
S'show'
p4797
tp4798
I1
s(S'people'
p4799
S'face'
p4800
tp4801
I1
s(S'front'
p4802
S'look'
p4803
tp4804
I1
s(S'airplane'
p4805
g670
tp4806
I1
s(S'figure'
p4807
g854
tp4808
I1
s(S'baby'
p4809
S'play'
p4810
tp4811
I1
s(S'child'
p4812
S'ring'
p4813
tp4814
I1
s(S'pack'
p4815
S'pull'
p4816
tp4817
I1
s(S'line'
p4818
g3043
tp4819
I1
s(S'person'
p4820
g2000
tp4821
I1
s(S'railing'
p4822
S'wear'
p4823
tp4824
I1
s(g4115
S'make'
p4825
tp4826
I1
s(S'necklace'
p4827
S'play'
p4828
tp4829
I1
s(S'rock'
p4830
g1876
tp4831
I1
s(S'cement'
p4832
S'read'
p4833
tp4834
I1
s(S'people'
p4835
S'wait'
p4836
tp4837
I4
s(g4639
S'wear'
p4838
tp4839
I2
s(S'safety'
p4840
g2154
tp4841
I1
s(g1627
S'hold'
p4842
tp4843
I2
s(S'water'
p4844
g1155
tp4845
I2
s(S'type'
p4846
S'play'
p4847
tp4848
I1
s(S'equipment'
p4849
g4672
tp4850
I3
s(g4125
S'ring'
p4851
tp4852
I1
s(S'net'
p4853
S'play'
p4854
tp4855
I1
s(g4199
S'fly'
p4856
tp4857
I2
s(S'girl'
p4858
S'follow'
p4859
tp4860
I1
s(g1758
S'stick'
p4861
tp4862
I4
s(S'person'
p4863
S'get'
p4864
tp4865
I6
s(S'middle'
p4866
S'chase'
p4867
tp4868
I1
s(S'round'
p4869
S'bend'
p4870
tp4871
I1
s(S'woman'
p4872
S'talk'
p4873
tp4874
I4
s(S'vehicle'
p4875
g1236
tp4876
I1
s(S'camera'
p4877
S'play'
p4878
tp4879
I1
s(g2421
S'try'
p4880
tp4881
I2
s(g3841
S'play'
p4882
tp4883
I1
s(g4174
S'take'
p4884
tp4885
I4
s(S'party'
p4886
S'wear'
p4887
tp4888
I2
s(S'group'
p4889
S'drink'
p4890
tp4891
I2
s(S'woman'
p4892
S'draw'
p4893
tp4894
I1
s(S'rest'
p4895
S'look'
p4896
tp4897
I1
s(S'group'
p4898
S'stretch'
p4899
tp4900
I1
s(S'man'
p4901
S'handle'
p4902
tp4903
I1
s(S'red'
p4904
S'play'
p4905
tp4906
I1
s(S'view'
p4907
g2218
tp4908
I1
s(g1910
S'come'
p4909
tp4910
I1
s(g329
S'pose'
p4911
tp4912
I3
s(S'look'
p4913
g2820
tp4914
I1
s(S'artist'
p4915
g3640
tp4916
I1
s(g460
S'wear'
p4917
tp4918
I1
s(S'front'
p4919
g3184
tp4920
I1
s(S'air'
p4921
S'take'
p4922
tp4923
I1
s(S'stand'
p4924
g182
tp4925
I1
s(S'football'
p4926
g4731
tp4927
I1
s(g2847
g3187
tp4928
I1
s(S'guy'
p4929
S'make'
p4930
tp4931
I1
s(S'man'
p4932
S'block'
p4933
tp4934
I3
s(S'woman'
p4935
g1971
tp4936
I2
s(S'wave'
p4937
g2199
tp4938
I1
s(S'black'
p4939
S'lay'
p4940
tp4941
I1
s(g4505
S'be'
p4942
tp4943
I1
s(S'boy'
p4944
S'give'
p4945
tp4946
I1
s(S'man'
p4947
g2296
tp4948
I2
s(S'pool'
p4949
S'emerge'
p4950
tp4951
I1
s(S'hair'
p4952
S'give'
p4953
tp4954
I1
s(S'hair'
p4955
S'swim'
p4956
tp4957
I2
s(S'person'
p4958
S'drive'
p4959
tp4960
I1
s(S'something'
p4961
g1764
tp4962
I2
s(g1294
S'cover'
p4963
tp4964
I1
s(S'man'
p4965
S'cry'
p4966
tp4967
I3
s(g161
g3882
tp4968
I1
s(g4759
g4545
tp4969
I1
s(S'way'
p4970
g4963
tp4971
I1
s(S'watch'
p4972
g3940
tp4973
I1
s(S'couple'
p4974
S'stand'
p4975
tp4976
I2
s(S'material'
p4977
S'be'
p4978
tp4979
I1
s(S'board'
p4980
S'jump'
p4981
tp4982
I1
s(S'men'
p4983
S'walk'
p4984
tp4985
I2
s(S'arm'
p4986
S'cast'
p4987
tp4988
I1
s(S'bridge'
p4989
g4020
tp4990
I1
s(S'park'
p4991
S'get'
p4992
tp4993
I1
s(g1852
g2537
tp4994
I1
s(S'car'
p4995
g1298
tp4996
I1
s(g1436
g876
tp4997
I12
s(S'bag'
p4998
S'trash'
p4999
tp5000
I1
s(S'football'
p5001
g1440
tp5002
I1
s(S'wave'
p5003
g3865
tp5004
I1
s(g2242
g1931
tp5005
I2
s(S'sheet'
p5006
S'hold'
p5007
tp5008
I1
s(g4303
S'swim'
p5009
tp5010
I1
s(S'man'
p5011
g206
tp5012
I39
s(S'football'
p5013
g2230
tp5014
I1
s(S'white'
p5015
g1694
tp5016
I2
s(S'boy'
p5017
S'strike'
p5018
tp5019
I1
s(S'hair'
p5020
S'pose'
p5021
tp5022
I3
s(S'baseball'
p5023
S'eat'
p5024
tp5025
I1
s(S'look'
p5026
g3903
tp5027
I1
s(S'girl'
p5028
S'colored'
p5029
tp5030
I2
s(S'play'
p5031
g4351
tp5032
I1
s(S'lady'
p5033
g3090
tp5034
I1
s(S'city'
p5035
S'be'
p5036
tp5037
I2
s(S'boy'
p5038
S'carry'
p5039
tp5040
I12
s(g2329
S'look'
p5041
tp5042
I1
s(S'adult'
p5043
S'stand'
p5044
tp5045
I1
s(g4104
S'be'
p5046
tp5047
I272
s(S'school'
p5048
S'chase'
p5049
tp5050
I1
s(S'player'
p5051
S'gain'
p5052
tp5053
I1
s(S'group'
p5054
g1614
tp5055
I2
s(S'fight'
p5056
g5052
tp5057
I1
s(S'boy'
p5058
g2681
tp5059
I1
s(S'group'
p5060
g1470
tp5061
I2
s(S'air'
p5062
S'bend'
p5063
tp5064
I1
s(g3625
g3545
tp5065
I1
s(g690
S'be'
p5066
tp5067
I3
s(S'cow'
p5068
S'jump'
p5069
tp5070
I1
s(g1693
S'be'
p5071
tp5072
I1
s(S'team'
p5073
g1928
tp5074
I1
s(S'thing'
p5075
S'be'
p5076
tp5077
I1
s(S'baby'
p5078
S'crossing'
p5079
tp5080
I1
s(S'person'
p5081
S'act'
p5082
tp5083
I1
s(g4468
g3906
tp5084
I1
s(S'person'
p5085
g539
tp5086
I7
s(g4788
S'stand'
p5087
tp5088
I2
s(S'circuit'
p5089
g4614
tp5090
I1
s(S'street'
p5091
S'hold'
p5092
tp5093
I3
s(S'apple'
p5094
S'wear'
p5095
tp5096
I1
s(S'crowd'
p5097
S'watch'
p5098
tp5099
I8
s(S'child'
p5100
g620
tp5101
I4
s(S'boy'
p5102
S'follow'
p5103
tp5104
I2
s(S'park'
p5105
S'walk'
p5106
tp5107
I3
s(S'man'
p5108
S'step'
p5109
tp5110
I1
s(S'child'
p5111
S'engage'
p5112
tp5113
I1
s(S'girl'
p5114
S'pick'
p5115
tp5116
I5
s(S'child'
p5117
S'pose'
p5118
tp5119
I9
s(S'girl'
p5120
S'find'
p5121
tp5122
I1
s(g2499
g1741
tp5123
I1
s(g4849
g524
tp5124
I1
s(S'guy'
p5125
g4266
tp5126
I2
s(S'child'
p5127
S'climb'
p5128
tp5129
I13
s(S'sky'
p5130
g4091
tp5131
I1
s(S'player'
p5132
g3824
tp5133
I1
s(S'woman'
p5134
g927
tp5135
I13
s(g2007
S'walk'
p5136
tp5137
I1
s(g3531
g4859
tp5138
I1
s(S'stand'
p5139
S'wear'
p5140
tp5141
I6
s(g5058
g1262
tp5142
I1
s(g1016
S'have'
p5143
tp5144
I3
s(g1778
S'stripped'
p5145
tp5146
I1
s(S'woman'
p5147
g3496
tp5148
I1
s(S'view'
p5149
g3161
tp5150
I1
s(S'football'
p5151
g3609
tp5152
I2
s(S'ground'
p5153
S'go'
p5154
tp5155
I1
s(S'adult'
p5156
g4255
tp5157
I1
s(S'group'
p5158
S'gather'
p5159
tp5160
I1
s(S'look'
p5161
g4620
tp5162
I1
s(S'boy'
p5163
S'put'
p5164
tp5165
I1
s(S'girl'
p5166
S'let'
p5167
tp5168
I1
s(g4616
S'be'
p5169
tp5170
I1
s(S'face'
p5171
g3155
tp5172
I1
s(S'air'
p5173
S'prepare'
p5174
tp5175
I1
s(S'face'
p5176
S'eat'
p5177
tp5178
I1
s(S'water'
p5179
S'walk'
p5180
tp5181
I3
s(g1755
S'be'
p5182
tp5183
I3
s(S'camera'
p5184
g469
tp5185
I1
s(S'park'
p5186
S'do'
p5187
tp5188
I1
s(S'picture'
p5189
g3783
tp5190
I1
s(S'money'
p5191
S'stand'
p5192
tp5193
I1
s(S'show'
p5194
g3224
tp5195
I1
s(S'rope'
p5196
g2687
tp5197
I1
s(S'woman'
p5198
S'wear'
p5199
tp5200
I114
s(S'group'
p5201
S'catch'
p5202
tp5203
I1
s(g3490
S'hold'
p5204
tp5205
I1
s(S'camera'
p5206
g1017
tp5207
I1
s(S'delivery'
p5208
S'be'
p5209
tp5210
I1
s(S'child'
p5211
S'begin'
p5212
tp5213
I1
s(g1349
S'be'
p5214
tp5215
I8
s(S'football'
p5216
S'be'
p5217
tp5218
I15
s(S'drink'
p5219
S'hold'
p5220
tp5221
I1
s(S'girl'
p5222
g1111
tp5223
I1
s(S'eye'
p5224
S'pose'
p5225
tp5226
I1
s(S'close'
p5227
g2079
tp5228
I1
s(S'girl'
p5229
g4451
tp5230
I3
s(g981
g5087
tp5231
I2
s(g768
g4525
tp5232
I1
s(S'friend'
p5233
S'wear'
p5234
tp5235
I1
s(g4898
S'colored'
p5236
tp5237
I2
s(S'toy'
p5238
g2953
tp5239
I6
s(S'group'
p5240
g1726
tp5241
I1
s(S'black'
p5242
S'pose'
p5243
tp5244
I1
s(S'girl'
p5245
S'play'
p5246
tp5247
I25
s(S'metal'
p5248
g4116
tp5249
I1
s(S'girl'
p5250
g2130
tp5251
I2
s(S'baby'
p5252
S'put'
p5253
tp5254
I1
s(S'person'
p5255
g2029
tp5256
I3
s(g2386
S'be'
p5257
tp5258
I1
s(S'stand'
p5259
g1617
tp5260
I2
s(S'paper'
p5261
g3705
tp5262
I1
s(S'child'
p5263
S'enjoy'
p5264
tp5265
I1
s(S'lady'
p5266
S'catch'
p5267
tp5268
I1
s(S'stand'
p5269
g1876
tp5270
I1
s(S'hand'
p5271
S'pass'
p5272
tp5273
I1
s(S'bench'
p5274
S'wait'
p5275
tp5276
I2
s(S'woman'
p5277
S'read'
p5278
tp5279
I6
s(S'white'
p5280
g2118
tp5281
I1
s(S'rock'
p5282
S'take'
p5283
tp5284
I1
s(S'suit'
p5285
S'go'
p5286
tp5287
I2
s(g1121
S'be'
p5288
tp5289
I18
s(S'girl'
p5290
S'wear'
p5291
tp5292
I92
s(S'air'
p5293
S'play'
p5294
tp5295
I1
s(S'player'
p5296
g1440
tp5297
I1
s(S'woman'
p5298
g1957
tp5299
I2
s(S'man'
p5300
S'fold'
p5301
tp5302
I2
s(S'side'
p5303
S'be'
p5304
tp5305
I2
s(S'leap'
p5306
g2576
tp5307
I1
s(S'man'
p5308
S'juggle'
p5309
tp5310
I5
s(g4663
g4966
tp5311
I1
s(S'collar'
p5312
S'run'
p5313
tp5314
I3
s(S'air'
p5315
S'be'
p5316
tp5317
I4
s(S'crowd'
p5318
g2151
tp5319
I1
s(S'girl'
p5320
S'close'
p5321
tp5322
I1
s(S'person'
p5323
S'help'
p5324
tp5325
I1
s(S'person'
p5326
S'prepare'
p5327
tp5328
I1
s(S'player'
p5329
g2588
tp5330
I4
s(S'silver'
p5331
g4774
tp5332
I1
s(S'people'
p5333
S'run'
p5334
tp5335
I1
s(S'stand'
p5336
g410
tp5337
I4
s(S'leash'
p5338
S'lay'
p5339
tp5340
I1
s(S'try'
p5341
S'catch'
p5342
tp5343
I2
s(S'baseball'
p5344
S'hold'
p5345
tp5346
I1
s(S'boy'
p5347
S'read'
p5348
tp5349
I4
s(S'girl'
p5350
S'crossed'
p5351
tp5352
I1
s(S'woman'
p5353
g3648
tp5354
I7
s(S'vehicle'
p5355
g1995
tp5356
I5
s(S'camera'
p5357
S'hold'
p5358
tp5359
I1
s(g3850
g288
tp5360
I1
s(S'someone'
p5361
S'shore'
p5362
tp5363
I1
s(S'friend'
p5364
g4525
tp5365
I1
s(g4431
S'drive'
p5366
tp5367
I7
s(g3992
S'shake'
p5368
tp5369
I1
s(S'something'
p5370
g3526
tp5371
I1
s(g794
S'left'
p5372
tp5373
I5
s(S'girl'
p5374
S'hear'
p5375
tp5376
I1
s(g2214
S'fill'
p5377
tp5378
I2
s(S'water'
p5379
g72
tp5380
I2
s(S'boy'
p5381
S'fall'
p5382
tp5383
I1
s(S'race'
p5384
g1800
tp5385
I1
s(S'table'
p5386
g3143
tp5387
I1
s(g864
S'take'
p5388
tp5389
I14
s(S'boy'
p5390
S'concentrate'
p5391
tp5392
I1
s(S'smoke'
p5393
g3598
tp5394
I3
s(S'man'
p5395
S'swing'
p5396
tp5397
I3
s(S'team'
p5398
g4105
tp5399
I1
s(g89
g1665
tp5400
I1
s(S'street'
p5401
S'painted'
p5402
tp5403
I1
s(S'man'
p5404
S'extend'
p5405
tp5406
I1
s(g225
S'use'
p5407
tp5408
I1
s(S'stand'
p5409
S'display'
p5410
tp5411
I2
s(S'suit'
p5412
S'compete'
p5413
tp5414
I1
s(S'team'
p5415
S'cover'
p5416
tp5417
I1
s(S'girl'
p5418
S'use'
p5419
tp5420
I2
s(S'water'
p5421
g2154
tp5422
I2
s(S'car'
p5423
g404
tp5424
I1
s(g1224
g4309
tp5425
I1
s(S'metal'
p5426
g900
tp5427
I1
s(S'woman'
p5428
S'put'
p5429
tp5430
I6
s(S'man'
p5431
S'share'
p5432
tp5433
I1
s(S'spot'
p5434
S'walk'
p5435
tp5436
I1
s(S'body'
p5437
g1876
tp5438
I1
s(S'baby'
p5439
S'take'
p5440
tp5441
I1
s(S'couple'
p5442
S'make'
p5443
tp5444
I1
s(S'instrument'
p5445
S'be'
p5446
tp5447
I1
s(S'hair'
p5448
S'do'
p5449
tp5450
I1
s(g3048
S'walk'
p5451
tp5452
I7
s(g5031
g673
tp5453
I1
s(S'try'
p5454
S'tackle'
p5455
tp5456
I1
s(S'race'
p5457
g4715
tp5458
I1
s(S'seat'
p5459
g3345
tp5460
I2
s(g575
S'hit'
p5461
tp5462
I1
s(S'lady'
p5463
g4439
tp5464
I1
s(g5075
S'pose'
p5465
tp5466
I1
s(g4796
S'bend'
p5467
tp5468
I1
s(S'lady'
p5469
S'stand'
p5470
tp5471
I1
s(g3318
g3786
tp5472
I2
s(S'people'
p5473
g1193
tp5474
I2
s(g989
g2585
tp5475
I1
s(g1406
g3123
tp5476
I1
s(S'something'
p5477
S'walk'
p5478
tp5479
I2
s(S'team'
p5480
g629
tp5481
I1
s(g1884
g3816
tp5482
I5
s(S'size'
p5483
S'jump'
p5484
tp5485
I1
s(S'people'
p5486
S'sit'
p5487
tp5488
I6
s(g436
S'drive'
p5489
tp5490
I1
s(S'boy'
p5491
S'perform'
p5492
tp5493
I7
s(S'girl'
p5494
g404
tp5495
I8
s(g2636
S'prepare'
p5496
tp5497
I1
s(S'camera'
p5498
g3721
tp5499
I1
s(S'man'
p5500
S'talk'
p5501
tp5502
I3
s(g4090
S'be'
p5503
tp5504
I3
s(S'air'
p5505
S'ring'
p5506
tp5507
I1
s(S'red'
p5508
S'hold'
p5509
tp5510
I1
s(g1629
g4050
tp5511
I2
s(S'family'
p5512
S'pose'
p5513
tp5514
I4
s(g3592
S'carry'
p5515
tp5516
I1
s(S'air'
p5517
S'stick'
p5518
tp5519
I2
s(S'pool'
p5520
g1362
tp5521
I1
s(g2178
g1641
tp5522
I1
s(S'metal'
p5523
g591
tp5524
I1
s(g4580
g2092
tp5525
I1
s(S'strip'
p5526
S'be'
p5527
tp5528
I2
s(g5393
g2882
tp5529
I1
s(S'look'
p5530
g4878
tp5531
I1
s(S'child'
p5532
S'follow'
p5533
tp5534
I2
s(S'baby'
p5535
S'sit'
p5536
tp5537
I5
s(g4542
g1413
tp5538
I1
s(g101
g1423
tp5539
I1
s(g4671
g524
tp5540
I1
s(S'player'
p5541
S'compete'
p5542
tp5543
I1
s(g1887
g200
tp5544
I1
s(g2699
S'left'
p5545
tp5546
I1
s(S'arm'
p5547
g335
tp5548
I8
s(g719
g3448
tp5549
I1
s(S'photograph'
p5550
S'carry'
p5551
tp5552
I1
s(g554
S'crossing'
p5553
tp5554
I1
s(g1139
g4158
tp5555
I1
s(S'face'
p5556
S'cover'
p5557
tp5558
I1
s(S'stand'
p5559
g1066
tp5560
I2
s(S'fall'
p5561
S'have'
p5562
tp5563
I1
s(S'side'
p5564
g3513
tp5565
I1
s(S'house'
p5566
S'jump'
p5567
tp5568
I1
s(g3174
g2013
tp5569
I1
s(g684
g4066
tp5570
I1
s(g137
g200
tp5571
I1
s(S'sign'
p5572
g3167
tp5573
I1
s(S'fall'
p5574
S'leave'
p5575
tp5576
I1
s(S'group'
p5577
g5402
tp5578
I1
s(S'air'
p5579
g3055
tp5580
I2
s(S'water'
p5581
g4514
tp5582
I1
s(S'crowd'
p5583
g4763
tp5584
I1
s(g5303
S'wear'
p5585
tp5586
I1
s(S'group'
p5587
S'hold'
p5588
tp5589
I7
s(S'red'
p5590
S'walk'
p5591
tp5592
I1
s(g1539
S'walk'
p5593
tp5594
I1
s(S'woman'
p5595
S'spread'
p5596
tp5597
I1
s(S'phone'
p5598
g3640
tp5599
I1
s(S'front'
p5600
g2848
tp5601
I1
s(g1794
S'be'
p5602
tp5603
I4
s(S'woman'
p5604
S'raise'
p5605
tp5606
I1
s(g5445
g2240
tp5607
I1
s(S'boy'
p5608
S'has'
p5609
tp5610
I1
s(S'woman'
p5611
S'participate'
p5612
tp5613
I1
s(S'sweater'
p5614
g179
tp5615
I2
s(g4436
g341
tp5616
I1
s(S'bench'
p5617
S'drink'
p5618
tp5619
I1
s(S'breed'
p5620
S'be'
p5621
tp5622
I1
s(S'front'
p5623
g5410
tp5624
I3
s(g1086
g440
tp5625
I3
s(g759
S'be'
p5626
tp5627
I5
s(S'child'
p5628
S'open'
p5629
tp5630
I1
s(S'group'
p5631
g2876
tp5632
I1
s(g56
S'be'
p5633
tp5634
I20
s(S'female'
p5635
S'spread'
p5636
tp5637
I1
s(g3219
S'hold'
p5638
tp5639
I3
s(S'rock'
p5640
S'stand'
p5641
tp5642
I1
s(S'one'
p5643
g801
tp5644
I1
s(S'girl'
p5645
g4144
tp5646
I2
s(g3695
g5214
tp5647
I15
s(g4631
g4861
tp5648
I3
s(S'white'
p5649
S'walk'
p5650
tp5651
I1
s(S'barrel'
p5652
g203
tp5653
I1
s(S'pool'
p5654
S'be'
p5655
tp5656
I6
s(S'child'
p5657
S'raise'
p5658
tp5659
I1
s(S'ball'
p5660
S'make'
p5661
tp5662
I1
s(S'collar'
p5663
S'stick'
p5664
tp5665
I1
s(S'leap'
p5666
S'get'
p5667
tp5668
I1
s(S'camera'
p5669
S'hang'
p5670
tp5671
I1
s(g3689
g4999
tp5672
I1
s(S'football'
p5673
g5052
tp5674
I1
s(g2356
g2902
tp5675
I1
s(S'sign'
p5676
g250
tp5677
I1
s(S'boy'
p5678
S'be'
p5679
tp5680
I226
s(S'water'
p5681
S'reach'
p5682
tp5683
I1
s(S'male'
p5684
S'be'
p5685
tp5686
I9
s(S'side'
p5687
S'frozen'
p5688
tp5689
I1
s(S'field'
p5690
S'fly'
p5691
tp5692
I1
s(S'water'
p5693
S'be'
p5694
tp5695
I15
s(S'boy'
p5696
g4366
tp5697
I1
s(S'baseball'
p5698
S'sit'
p5699
tp5700
I1
s(S'train'
p5701
S'stop'
p5702
tp5703
I1
s(S'park'
p5704
S'cover'
p5705
tp5706
I1
s(S'inside'
p5707
g4472
tp5708
I1
s(S'star'
p5709
S'carry'
p5710
tp5711
I1
s(g2492
g5087
tp5712
I1
s(g4409
g4698
tp5713
I1
s(S'crowd'
p5714
S'look'
p5715
tp5716
I1
s(S'boy'
p5717
g297
tp5718
I4
s(S'talk'
p5719
S'wear'
p5720
tp5721
I3
s(g1920
g5368
tp5722
I1
s(g4977
S'wear'
p5723
tp5724
I1
s(g1244
S'worried'
p5725
tp5726
I1
s(g5600
g3187
tp5727
I1
s(S'white'
p5728
S'chase'
p5729
tp5730
I1
s(g5060
S'stick'
p5731
tp5732
I1
s(S'fall'
p5733
g327
tp5734
I1
s(S'flag'
p5735
S'sit'
p5736
tp5737
I1
s(S'girl'
p5738
S'take'
p5739
tp5740
I16
s(S'rock'
p5741
S'look'
p5742
tp5743
I6
s(g1950
S'watch'
p5744
tp5745
I5
s(S'group'
p5746
g1638
tp5747
I2
s(g5635
S'jump'
p5748
tp5749
I1
s(S'arm'
p5750
g395
tp5751
I1
s(S'fan'
p5752
S'run'
p5753
tp5754
I1
s(S'ball'
p5755
S'hold'
p5756
tp5757
I2
s(S'audience'
p5758
S'be'
p5759
tp5760
I1
s(S'something'
p5761
S'stick'
p5762
tp5763
I1
s(S'man'
p5764
g3935
tp5765
I1
s(S'people'
p5766
S'pose'
p5767
tp5768
I1
s(S'baby'
p5769
S'stand'
p5770
tp5771
I1
s(S'board'
p5772
S'covered'
p5773
tp5774
I1
s(S'purse'
p5775
g5593
tp5776
I2
s(S'stand'
p5777
g2163
tp5778
I1
s(S'talk'
p5779
g2172
tp5780
I1
s(S'leather'
p5781
S'wear'
p5782
tp5783
I1
s(S'air'
p5784
g2157
tp5785
I1
s(S'family'
p5786
S'take'
p5787
tp5788
I1
s(S'camera'
p5789
g2981
tp5790
I1
s(S'man'
p5791
S'chat'
p5792
tp5793
I1
s(g791
S'run'
p5794
tp5795
I1
s(S'net'
p5796
S'close'
p5797
tp5798
I1
s(S'front'
p5799
g338
tp5800
I1
s(S'meeting'
p5801
g3143
tp5802
I1
s(S'child'
p5803
S'step'
p5804
tp5805
I1
s(S'guy'
p5806
g1683
tp5807
I4
s(g4590
S'wear'
p5808
tp5809
I2
s(S'dollar'
p5810
g1032
tp5811
I1
s(g2057
S'run'
p5812
tp5813
I1
s(S'police'
p5814
S'jump'
p5815
tp5816
I1
s(g5480
S'hit'
p5817
tp5818
I2
s(S'race'
p5819
g665
tp5820
I1
s(g3294
g5180
tp5821
I1
s(S'air'
p5822
g282
tp5823
I3
s(S'group'
p5824
g5792
tp5825
I1
s(g4551
S'wear'
p5826
tp5827
I1
s(S'police'
p5828
g515
tp5829
I1
s(S'white'
p5830
S'hold'
p5831
tp5832
I1
s(S'head'
p5833
g4611
tp5834
I1
s(S'girl'
p5835
S'avoid'
p5836
tp5837
I1
s(g273
g1792
tp5838
I1
s(S'son'
p5839
g4319
tp5840
I1
s(g3122
g1407
tp5841
I3
s(S'protest'
p5842
g3789
tp5843
I1
s(S'hole'
p5844
S'be'
p5845
tp5846
I1
s(S'race'
p5847
S'leave'
p5848
tp5849
I1
s(S'man'
p5850
S'drive'
p5851
tp5852
I5
s(S'life'
p5853
S'look'
p5854
tp5855
I1
s(S'roll'
p5856
S'hold'
p5857
tp5858
I1
s(S'group'
p5859
g2523
tp5860
I1
s(g3148
g422
tp5861
I1
s(S'man'
p5862
S'colored'
p5863
tp5864
I4
s(S'path'
p5865
g2322
tp5866
I1
s(g2165
g5220
tp5867
I1
s(g4998
g3690
tp5868
I1
s(S'show'
p5869
S'jump'
p5870
tp5871
I2
s(S'person'
p5872
S'participate'
p5873
tp5874
I1
s(S'couple'
p5875
S'stare'
p5876
tp5877
I1
s(g4095
S'view'
p5878
tp5879
I1
s(S'child'
p5880
S'paint'
p5881
tp5882
I8
s(g3305
g3085
tp5883
I1
s(S'white'
p5884
g4940
tp5885
I2
s(S'struggle'
p5886
S'carry'
p5887
tp5888
I1
s(S'winter'
p5889
g4554
tp5890
I2
s(S'air'
p5891
S'set'
p5892
tp5893
I1
s(S'arm'
p5894
g3513
tp5895
I1
s(S'camera'
p5896
S'look'
p5897
tp5898
I1
s(S'man'
p5899
S'reach'
p5900
tp5901
I1
s(g2669
S'jump'
p5902
tp5903
I2
s(S'nose'
p5904
S'cover'
p5905
tp5906
I1
s(g2726
S'stand'
p5907
tp5908
I82
s(S'end'
p5909
g3281
tp5910
I1
s(g1791
g36
tp5911
I1
s(S'rock'
p5912
S'trail'
p5913
tp5914
I1
s(g783
S'jump'
p5915
tp5916
I1
s(S'stand'
p5917
S'be'
p5918
tp5919
I18
s(g566
S'trail'
p5920
tp5921
I1
s(S'woman'
p5922
g5410
tp5923
I9
s(g5512
g4388
tp5924
I1
s(S'toy'
p5925
g1052
tp5926
I1
s(g3642
g5212
tp5927
I1
s(S'leap'
p5928
g2781
tp5929
I1
s(S'child'
p5930
S'curb'
p5931
tp5932
I3
s(g5719
S'be'
p5933
tp5934
I9
s(S'male'
p5935
S'walk'
p5936
tp5937
I3
s(g1746
g831
tp5938
I1
s(S'baby'
p5939
S'climb'
p5940
tp5941
I1
s(S'child'
p5942
S'are'
p5943
tp5944
I1
s(S'red'
p5945
g4654
tp5946
I2
s(S'air'
p5947
S'shore'
p5948
tp5949
I1
s(g2718
S'hold'
p5950
tp5951
I25
s(S'boy'
p5952
S'chase'
p5953
tp5954
I2
s(g917
g4040
tp5955
I2
s(g4438
S'look'
p5956
tp5957
I1
s(S'bottom'
p5958
g3612
tp5959
I1
s(S'girl'
p5960
S'swim'
p5961
tp5962
I13
s(S'park'
p5963
g2806
tp5964
I1
s(S'boy'
p5965
S'bounce'
p5966
tp5967
I4
s(g5208
S'pass'
p5968
tp5969
I1
s(S'something'
p5970
g1449
tp5971
I1
s(S'share'
p5972
S'be'
p5973
tp5974
I1
s(S'board'
p5975
S'watch'
p5976
tp5977
I1
s(S'crowd'
p5978
S'complete'
p5979
tp5980
I1
s(S'car'
p5981
g2290
tp5982
I2
s(S'man'
p5983
S'lead'
p5984
tp5985
I2
s(S'eye'
p5986
g2610
tp5987
I1
s(S'park'
p5988
g2110
tp5989
I1
s(S'person'
p5990
S'crowded'
p5991
tp5992
I2
s(S'boy'
p5993
S'broken'
p5994
tp5995
I2
s(g953
S'log'
p5996
tp5997
I2
s(S'child'
p5998
S'run'
p5999
tp6000
I13
s(S'stand'
p6001
S'do'
p6002
tp6003
I1
s(S'boy'
p6004
g1353
tp6005
I16
s(g862
g5407
tp6006
I1
s(S'child'
p6007
g3526
tp6008
I3
s(S'home'
p6009
g3882
tp6010
I1
s(g415
S'stick'
p6011
tp6012
I1
s(S'ball'
p6013
g4496
tp6014
I3
s(S'water'
p6015
g2259
tp6016
I2
s(S'man'
p6017
S'pair'
p6018
tp6019
I1
s(S'woman'
p6020
g2100
tp6021
I1
s(g4459
g3149
tp6022
I1
s(S'sweater'
p6023
S'run'
p6024
tp6025
I2
s(g3518
S'be'
p6026
tp6027
I3
s(S'sweater'
p6028
S'pose'
p6029
tp6030
I1
s(S'play'
p6031
g3829
tp6032
I2
s(S'man'
p6033
S'help'
p6034
tp6035
I6
s(S'lot'
p6036
S'walk'
p6037
tp6038
I1
s(S'person'
p6039
S'be'
p6040
tp6041
I195
s(S'group'
p6042
g4859
tp6043
I2
s(g935
g1047
tp6044
I1
s(g5198
S'run'
p6045
tp6046
I11
s(g4181
S'make'
p6047
tp6048
I2
s(S'guy'
p6049
S'fly'
p6050
tp6051
I1
s(S'people'
p6052
g4385
tp6053
I1
s(S'ship'
p6054
S'look'
p6055
tp6056
I1
s(S'child'
p6057
S'take'
p6058
tp6059
I2
s(S'man'
p6060
g1876
tp6061
I1
s(S'others'
p6062
g4004
tp6063
I3
s(g4205
S'celebrate'
p6064
tp6065
I1
s(S'toy'
p6066
g1097
tp6067
I2
s(S'watch'
p6068
g5264
tp6069
I1
s(g4306
g1313
tp6070
I1
s(S'face'
p6071
g3428
tp6072
I1
s(S'line'
p6073
g4867
tp6074
I1
s(S'player'
p6075
g1137
tp6076
I1
s(S'woman'
p6077
g1161
tp6078
I1
s(S'building'
p6079
g3783
tp6080
I1
s(S'group'
p6081
S'perform'
p6082
tp6083
I1
s(S'hill'
p6084
S'wear'
p6085
tp6086
I1
s(S'liberty'
p6087
g2744
tp6088
I1
s(S'man'
p6089
g4309
tp6090
I2
s(S'play'
p6091
S'shoot'
p6092
tp6093
I1
s(g3330
g2502
tp6094
I1
s(S'expression'
p6095
S'climb'
p6096
tp6097
I1
s(S'woman'
p6098
S'lay'
p6099
tp6100
I1
s(S'arm'
p6101
g2439
tp6102
I2
s(S'guy'
p6103
S'stick'
p6104
tp6105
I1
s(S'top'
p6106
g4873
tp6107
I1
s(S'woman'
p6108
S'stop'
p6109
tp6110
I2
s(S'woman'
p6111
S'curb'
p6112
tp6113
I1
s(g4697
g4410
tp6114
I4
s(S'person'
p6115
S'harvested'
p6116
tp6117
I1
s(S'car'
p6118
g1476
tp6119
I1
s(S'girl'
p6120
S'drive'
p6121
tp6122
I1
s(S'others'
p6123
S'run'
p6124
tp6125
I1
s(S'child'
p6126
g3718
tp6127
I3
s(S'child'
p6128
g4899
tp6129
I1
s(S'football'
p6130
S'play'
p6131
tp6132
I3
s(S'student'
p6133
g891
tp6134
I1
s(S'man'
p6135
S'fall'
p6136
tp6137
I3
s(S'security'
p6138
g1092
tp6139
I1
s(S'child'
p6140
g4950
tp6141
I1
s(S'person'
p6142
g3734
tp6143
I1
s(g448
S'pose'
p6144
tp6145
I1
s(S'police'
p6146
g2143
tp6147
I1
s(g3745
g2410
tp6148
I2
s(S'band'
p6149
g1390
tp6150
I5
s(g1157
S'be'
p6151
tp6152
I1
s(S'man'
p6153
S'jump'
p6154
tp6155
I62
s(S'player'
p6156
S'stick'
p6157
tp6158
I2
s(S'paper'
p6159
g4197
tp6160
I1
s(S'house'
p6161
S'carry'
p6162
tp6163
I1
s(g4202
S'cover'
p6164
tp6165
I2
s(g314
g4760
tp6166
I1
s(S'book'
p6167
S'walk'
p6168
tp6169
I1
s(g5015
g5071
tp6170
I16
s(g4280
g3718
tp6171
I1
s(S'woman'
p6172
S'address'
p6173
tp6174
I1
s(S'number'
p6175
S'run'
p6176
tp6177
I5
s(S'person'
p6178
S'drink'
p6179
tp6180
I1
s(g1127
S'land'
p6181
tp6182
I1
s(S'team'
p6183
g6131
tp6184
I3
s(g4835
S'get'
p6185
tp6186
I1
s(S'railing'
p6187
g1828
tp6188
I1
s(S'catch'
p6189
g3000
tp6190
I1
s(S'bench'
p6191
g253
tp6192
I4
s(S'people'
p6193
S'play'
p6194
tp6195
I4
s(S'person'
p6196
S'face'
p6197
tp6198
I1
s(g4101
S'drive'
p6199
tp6200
I8
s(S'base'
p6201
S'be'
p6202
tp6203
I1
s(S'people'
p6204
S'stay'
p6205
tp6206
I1
s(S'person'
p6207
S'show'
p6208
tp6209
I1
s(S'person'
p6210
S'treat'
p6211
tp6212
I1
s(S'man'
p6213
S'contain'
p6214
tp6215
I1
s(S'woman'
p6216
S'jump'
p6217
tp6218
I10
s(S'girl'
p6219
g4118
tp6220
I4
s(S'man'
p6221
S'pick'
p6222
tp6223
I1
s(S'path'
p6224
g5836
tp6225
I1
s(S'formula'
p6226
g2151
tp6227
I1
s(S'player'
p6228
g4225
tp6229
I1
s(S'boy'
p6230
S'reach'
p6231
tp6232
I1
s(S'someone'
p6233
S'display'
p6234
tp6235
I1
s(S'child'
p6236
S'pick'
p6237
tp6238
I1
s(S'child'
p6239
S'hang'
p6240
tp6241
I5
s(g1019
g2017
tp6242
I1
s(S'child'
p6243
S'touch'
p6244
tp6245
I2
s(g1028
g1540
tp6246
I1
s(g2539
S'lay'
p6247
tp6248
I3
s(S'tree'
p6249
S'be'
p6250
tp6251
I3
s(g3542
g197
tp6252
I1
s(S'stone'
p6253
g3783
tp6254
I1
s(S'man'
p6255
g1404
tp6256
I1
s(S'branch'
p6257
S'be'
p6258
tp6259
I1
s(S'field'
p6260
S'run'
p6261
tp6262
I2
s(S'someone'
p6263
S'walk'
p6264
tp6265
I2
s(S'road'
p6266
S'climb'
p6267
tp6268
I1
s(S'run'
p6269
S'hold'
p6270
tp6271
I1
s(S'men'
p6272
S'wear'
p6273
tp6274
I1
s(g299
S'carry'
p6275
tp6276
I2
s(S'friend'
p6277
S'make'
p6278
tp6279
I1
s(g6049
S'swim'
p6280
tp6281
I1
s(S'picture'
p6282
S'hold'
p6283
tp6284
I1
s(S'girl'
p6285
S'fill'
p6286
tp6287
I1
s(S'player'
p6288
S'bend'
p6289
tp6290
I1
s(S'group'
p6291
S'hang'
p6292
tp6293
I1
s(g4980
S'cover'
p6294
tp6295
I1
s(S'ball'
p6296
S'run'
p6297
tp6298
I4
s(g1660
g804
tp6299
I2
s(S'person'
p6300
S'perform'
p6301
tp6302
I2
s(S'driver'
p6303
S'be'
p6304
tp6305
I1
s(S'boy'
p6306
g5797
tp6307
I1
s(S'security'
p6308
g2464
tp6309
I1
s(S'one'
p6310
g1239
tp6311
I1
s(g2904
g1876
tp6312
I1
s(g3850
S'be'
p6313
tp6314
I2
s(g2012
g3175
tp6315
I2
s(S'air'
p6316
g2781
tp6317
I2
s(g1329
S'be'
p6318
tp6319
I1
s(g5216
S'run'
p6320
tp6321
I15
s(S'vehicle'
p6322
g2316
tp6323
I1
s(S'front'
p6324
S'take'
p6325
tp6326
I2
s(S'wings'
p6327
S'jump'
p6328
tp6329
I1
s(S'look'
p6330
g4791
tp6331
I1
s(g2404
S'try'
p6332
tp6333
I1
s(S'circle'
p6334
g1622
tp6335
I1
s(S'winter'
p6336
S'make'
p6337
tp6338
I1
s(g2569
S'give'
p6339
tp6340
I10
s(S'group'
p6341
S'do'
p6342
tp6343
I4
s(S'camera'
p6344
S'walk'
p6345
tp6346
I3
s(S'hair'
p6347
g1706
tp6348
I1
s(S'girl'
p6349
S'end'
p6350
tp6351
I1
s(S'crowd'
p6352
S'have'
p6353
tp6354
I1
s(S'play'
p6355
g2240
tp6356
I1
s(g3717
g3292
tp6357
I1
s(g646
S'spark'
p6358
tp6359
I1
s(S'power'
p6360
g1525
tp6361
I1
s(g541
g4043
tp6362
I1
s(S'boy'
p6363
S'break'
p6364
tp6365
I1
s(S'woman'
p6366
S'pull'
p6367
tp6368
I1
s(S'hand'
p6369
g4289
tp6370
I1
s(S'slide'
p6371
S'attempt'
p6372
tp6373
I1
s(S'couple'
p6374
g2172
tp6375
I1
s(g5149
S'paint'
p6376
tp6377
I1
s(S'right'
p6378
g591
tp6379
I2
s(g3962
S'jump'
p6380
tp6381
I2
s(S'smoke'
p6382
g670
tp6383
I2
s(g3336
g831
tp6384
I1
s(g1037
g5536
tp6385
I5
s(S'woman'
p6386
S'fall'
p6387
tp6388
I1
s(S'head'
p6389
S'shore'
p6390
tp6391
I1
s(S'survey'
p6392
S'be'
p6393
tp6394
I1
s(S'stand'
p6395
g1052
tp6396
I1
s(S'play'
p6397
S'paint'
p6398
tp6399
I2
s(S'man'
p6400
S'draw'
p6401
tp6402
I2
s(g11
g5685
tp6403
I8
s(S'museum'
p6404
g2817
tp6405
I1
s(S'woman'
p6406
S'crowded'
p6407
tp6408
I1
s(S'necklace'
p6409
g6029
tp6410
I1
s(S'road'
p6411
S'crossing'
p6412
tp6413
I1
s(S'life'
p6414
g410
tp6415
I1
s(g1558
S'run'
p6416
tp6417
I2
s(S'step'
p6418
S'shore'
p6419
tp6420
I1
s(g3280
S'be'
p6421
tp6422
I6
s(S'person'
p6423
S'stick'
p6424
tp6425
I2
s(S'race'
p6426
g2169
tp6427
I1
s(S'male'
p6428
g3181
tp6429
I1
s(S'attempt'
p6430
S'convert'
p6431
tp6432
I1
s(g5463
g5956
tp6433
I2
s(S'water'
p6434
S'shore'
p6435
tp6436
I2
s(g6009
g162
tp6437
I1
s(g6272
g723
tp6438
I1
s(S'train'
p6439
g5815
tp6440
I1
s(S'man'
p6441
S'cast'
p6442
tp6443
I4
s(S'black'
p6444
g1184
tp6445
I2
s(S'couple'
p6446
g4020
tp6447
I1
s(g3392
g4482
tp6448
I1
s(g2584
g990
tp6449
I1
s(S'arm'
p6450
g2135
tp6451
I1
s(S'suit'
p6452
S'pose'
p6453
tp6454
I1
s(g3286
S'swim'
p6455
tp6456
I12
s(S'father'
p6457
S'launch'
p6458
tp6459
I1
s(S'look'
p6460
g1809
tp6461
I1
s(S'boy'
p6462
S'begin'
p6463
tp6464
I1
s(g5684
g12
tp6465
I1
s(S'player'
p6466
S'get'
p6467
tp6468
I6
s(S'girl'
p6469
S'scream'
p6470
tp6471
I3
s(S'period'
p6472
S'sit'
p6473
tp6474
I1
s(g1956
S'read'
p6475
tp6476
I2
s(S'child'
p6477
S'do'
p6478
tp6479
I4
s(g1643
g4321
tp6480
I1
s(S'water'
p6481
S'go'
p6482
tp6483
I2
s(S'rock'
p6484
S'make'
p6485
tp6486
I1
s(S'person'
p6487
S'lift'
p6488
tp6489
I1
s(S'play'
p6490
S'shore'
p6491
tp6492
I2
s(S'girl'
p6493
S'suit'
p6494
tp6495
I1
s(S'head'
p6496
g3434
tp6497
I1
s(S'woman'
p6498
S'gather'
p6499
tp6500
I1
s(S'man'
p6501
S'climb'
p6502
tp6503
I58
s(S'water'
p6504
g6002
tp6505
I1
s(g2054
S'catch'
p6506
tp6507
I1
s(S'sky'
p6508
g3443
tp6509
I1
s(g5909
g6421
tp6510
I1
s(S'girl'
p6511
S'get'
p6512
tp6513
I3
s(g1676
S'turn'
p6514
tp6515
I1
s(S'woman'
p6516
S'crossing'
p6517
tp6518
I6
s(S'guy'
p6519
S'stand'
p6520
tp6521
I2
s(g2545
S'jump'
p6522
tp6523
I1
s(S'board'
p6524
S'fly'
p6525
tp6526
I1
s(S'man'
p6527
g3724
tp6528
I1
s(S'leap'
p6529
g2308
tp6530
I2
s(S'flow'
p6531
S'carry'
p6532
tp6533
I1
s(g4393
g6325
tp6534
I1
s(S'lot'
p6535
g670
tp6536
I1
s(g2850
S'swim'
p6537
tp6538
I3
s(g181
g1858
tp6539
I3
s(g4298
S'put'
p6540
tp6541
I2
s(S'boy'
p6542
S'stick'
p6543
tp6544
I4
s(S'red'
p6545
S'ring'
p6546
tp6547
I3
s(S'rain'
p6548
S'jump'
p6549
tp6550
I2
s(g3922
S'wear'
p6551
tp6552
I1
s(S'girl'
p6553
S'suspend'
p6554
tp6555
I1
s(S'victory'
p6556
S'run'
p6557
tp6558
I1
s(S'cap'
p6559
S'hold'
p6560
tp6561
I2
s(S'city'
p6562
S'walk'
p6563
tp6564
I1
s(S'rain'
p6565
S'be'
p6566
tp6567
I1
s(S'card'
p6568
g1703
tp6569
I1
s(S'man'
p6570
S'engage'
p6571
tp6572
I1
s(S'crowd'
p6573
S'walk'
p6574
tp6575
I1
s(S'eye'
p6576
S'eat'
p6577
tp6578
I5
s(S'group'
p6579
S'sit'
p6580
tp6581
I14
s(g1083
g410
tp6582
I1
s(g119
g3588
tp6583
I1
s(S'man'
p6584
g3055
tp6585
I4
s(S'machine'
p6586
g3114
tp6587
I1
s(S'store'
p6588
g4634
tp6589
I1
s(S'man'
p6590
S'operate'
p6591
tp6592
I1
s(S'player'
p6593
S'have'
p6594
tp6595
I1
s(S'winter'
p6596
g2964
tp6597
I2
s(S'side'
p6598
g6372
tp6599
I1
s(g3992
g1921
tp6600
I1
s(S'player'
p6601
g3821
tp6602
I1
s(S'player'
p6603
S'challenge'
p6604
tp6605
I1
s(S'collar'
p6606
S'chase'
p6607
tp6608
I2
s(g427
S'get'
p6609
tp6610
I1
s(S'cluster'
p6611
S'play'
p6612
tp6613
I1
s(S'practice'
p6614
S'climb'
p6615
tp6616
I1
s(S'rider'
p6617
S'jump'
p6618
tp6619
I10
s(S'men'
p6620
S'stand'
p6621
tp6622
I2
s(S'crowd'
p6623
g2579
tp6624
I1
s(S'rock'
p6625
g3289
tp6626
I2
stp6627
Rp6628
.