cnltk.probability
FreqDist
p1
((dp2
(S'graffitied'
p3
tp4
I9
s(S'gnome'
p5
tp6
I1
s(S'handicapped'
p7
tp8
I2
s(S'goggle'
p9
tp10
I3
s(S'intricate'
p11
tp12
I1
s(S'campfire'
p13
tp14
I9
s(S'enough'
p15
tp16
I1
s(S'knee'
p17
tp18
I28
s(S'80'
p19
tp20
I1
s(S'dale'
p21
tp22
I2
s(S'feathered'
p23
tp24
I3
s(S'pompadour'
p25
tp26
I1
s(S'breaststroke'
p27
tp28
I1
s(S'mountaintops'
p29
tp30
I1
s(S'overfilled'
p31
tp32
I1
s(S'bangle'
p33
tp34
I1
s(S'transportation'
p35
tp36
I4
s(S'antler'
p37
tp38
I2
s(S'ski-suit'
p39
tp40
I1
s(S'mostly'
p41
tp42
I10
s(S'o'
tp43
I4
s(S'stain'
p44
tp45
I3
s(S'struggle'
p46
tp47
I10
s(S'annoy'
p48
tp49
I1
s(S'objest'
p50
tp51
I1
s(S'situate'
p52
tp53
I1
s(S'gloved'
p54
tp55
I2
s(S'metal'
p56
tp57
I88
s(S'showgirl'
p58
tp59
I1
s(S'advertisement'
p60
tp61
I1
s(S'brimmed'
p62
tp63
I1
s(S'four-wheeler'
p64
tp65
I4
s(S'bride'
p66
tp67
I42
s(S'punch'
p68
tp69
I5
s(S'alley'
p70
tp71
I10
s(S'olympics'
p72
tp73
I3
s(S'way'
p74
tp75
I42
s(S'frisbie'
p76
tp77
I1
s(S'if'
p78
tp79
I4
s(S'trick'
p80
tp81
I360
s(S'proud'
p82
tp83
I1
s(S'wand'
p84
tp85
I9
s(S'ice-skate'
p86
tp87
I1
s(S'soccer'
p88
tp89
I454
s(S'pull'
p90
tp91
I158
s(S'black-haired'
p92
tp93
I1
s(S'floppy'
p94
tp95
I9
s(S'expand'
p96
tp97
I1
s(S'nest'
p98
tp99
I1
s(S'prize'
p100
tp101
I7
s(S'bicycler'
p102
tp103
I10
s(S'propels'
p104
tp105
I1
s(S'go'
p106
tp107
I206
s(S'pale'
p108
tp109
I10
s(S'cradle'
p110
tp111
I1
s(S'bar-type'
p112
tp113
I1
s(S'everyone'
p114
tp115
I2
s(S'distress'
p116
tp117
I1
s(S'ant'
p118
tp119
I1
s(S'foamy'
p120
tp121
I2
s(S'lilies'
p122
tp123
I1
s(S'rottweiller'
p124
tp125
I1
s(S'asleep'
p126
tp127
I15
s(S'toddles'
p128
tp129
I1
s(S'homeless'
p130
tp131
I18
s(S'monkey-bars'
p132
tp133
I1
s(S'sandal'
p134
tp135
I21
s(S'busy'
p136
tp137
I76
s(S'signpost'
p138
tp139
I1
s(S'tulip'
p140
tp141
I16
s(S'trekkies'
p142
tp143
I1
s(S'alone'
p144
tp145
I25
s(S'ollies'
p146
tp147
I3
s(S'outfit'
p148
tp149
I153
s(S'view'
p150
tp151
I73
s(S'trim'
p152
tp153
I4
s(S'alotment'
p154
tp155
I1
s(S'stroll'
p156
tp157
I4
s(S'peirced'
p158
tp159
I1
s(S'mountin'
p160
tp161
I1
s(S'crossing'
p162
tp163
I42
s(S'debris'
p164
tp165
I1
s(S'helicopter'
p166
tp167
I8
s(S'mouth'
p168
tp169
I776
s(S'52'
p170
tp171
I2
s(S'swallow'
p172
tp173
I1
s(S'puppy'
p174
tp175
I108
s(S'they'
p176
tp177
I90
s(S'rickety'
p178
tp179
I2
s(S'church'
p180
tp181
I13
s(S'nibble'
p182
tp183
I3
s(S'patio'
p184
tp185
I12
s(S'rooftop'
p186
tp187
I2
s(S'center'
p188
tp189
I13
s(S'trench'
p190
tp191
I7
s(S'wristwatch'
p192
tp193
I2
s(S'elementary'
p194
tp195
I1
s(S'bottled'
p196
tp197
I2
s(S'worship'
p198
tp199
I1
s(S'barricade'
p200
tp201
I3
s(S'hurry'
p202
tp203
I3
s(S'bathe'
p204
tp205
I83
s(S'hate'
p206
tp207
I1
s(S'mike'
p208
tp209
I1
s(S'whip'
p210
tp211
I2
s(S'billiards'
p212
tp213
I1
s(S'crampon'
p214
tp215
I1
s(S'currently'
p216
tp217
I1
s(S'properly'
p218
tp219
I1
s(S'extravagent'
p220
tp221
I1
s(S'dressed-up'
p222
tp223
I1
s(S'vast'
p224
tp225
I3
s(S'rowboat'
p226
tp227
I10
s(S'wisks'
p228
tp229
I1
s(S'uncrowded'
p230
tp231
I1
s(S'anchor'
p232
tp233
I1
s(S'bouquet'
p234
tp235
I7
s(S'artistic'
p236
tp237
I2
s(S'igloo'
p238
tp239
I5
s(S'crate'
p240
tp241
I4
s(S'carpenter'
p242
tp243
I1
s(S'interrupt'
p244
tp245
I1
s(S'repel'
p246
tp247
I8
s(S'dart'
p248
tp249
I1
s(S'trainer'
p250
tp251
I9
s(S'cafe'
p252
tp253
I16
s(S'earnhardt'
p254
tp255
I1
s(S'twirl'
p256
tp257
I7
s(S'swerve'
p258
tp259
I2
s(S'helment'
p260
tp261
I1
s(S'slalom'
p262
tp263
I4
s(S'completely'
p264
tp265
I4
s(S'bleacher'
p266
tp267
I12
s(S'plantain'
p268
tp269
I1
s(S'outline'
p270
tp271
I3
s(S'bamboo'
p272
tp273
I4
s(S'shoe'
p274
tp275
I79
s(S'pounce'
p276
tp277
I10
s(S'manuever'
p278
tp279
I1
s(S'lighthouse'
p280
tp281
I3
s(S'mountaintop'
p282
tp283
I18
s(S'musher'
p284
tp285
I3
s(S'entangle'
p286
tp287
I3
s(S'sunflower'
p288
tp289
I1
s(S'park'
p290
tp291
I467
s(S'cement'
p292
tp293
I59
s(S'waterspout'
p294
tp295
I2
s(S'boulder'
p296
tp297
I15
s(S'headband'
p298
tp299
I38
s(S'conical'
p300
tp301
I1
s(S'ti'
p302
tp303
I1
s(S'dribble'
p304
tp305
I22
s(S'grove'
p306
tp307
I2
s(S'outstreched'
p308
tp309
I1
s(S'tractor-like'
p310
tp311
I1
s(S'shadowy'
p312
tp313
I1
s(S'pail'
p314
tp315
I8
s(S'adventurer'
p316
tp317
I1
s(S'cruiser'
p318
tp319
I1
s(S'cigerette'
p320
tp321
I1
s(S'ravine'
p322
tp323
I4
s(S'enjoys'
p324
tp325
I1
s(S'western'
p326
tp327
I2
s(S'tomato'
p328
tp329
I1
s(S'pane'
p330
tp331
I2
s(S'headset'
p332
tp333
I5
s(S'pagent'
p334
tp335
I1
s(S'had'
p336
tp337
I1
s(S'yard'
p338
tp339
I159
s(S'into'
p340
tp341
I757
s(S'tickle'
p342
tp343
I1
s(S'burn'
p344
tp345
I11
s(S'scantily-clad'
p346
tp347
I1
s(S'colapsable'
p348
tp349
I1
s(S'blindfolded'
p350
tp351
I2
s(S'silverware'
p352
tp353
I1
s(S'pasture'
p354
tp355
I4
s(S'doughnut'
p356
tp357
I1
s(S'turtle'
p358
tp359
I1
s(S'total'
p360
tp361
I1
s(S'flex'
p362
tp363
I2
s(S'pinscher'
p364
tp365
I1
s(S'uncut'
p366
tp367
I6
s(S'planeta'
p368
tp369
I2
s(S'toe-touch'
p370
tp371
I2
s(S'dig'
p372
tp373
I51
s(S'mono-color'
p374
tp375
I1
s(S'snowcapped'
p376
tp377
I12
s(S'back-to-back'
p378
tp379
I3
s(S'rollerskates'
p380
tp381
I4
s(S'whoa'
p382
tp383
I1
s(S'sledge'
p384
tp385
I4
s(S'vat'
p386
tp387
I1
s(S'smilling'
p388
tp389
I2
s(S'icicle'
p390
tp391
I4
s(S'bakery'
p392
tp393
I1
s(S'topless'
p394
tp395
I12
s(S'tripod'
p396
tp397
I12
s(S'seeing-eye'
p398
tp399
I1
s(S'grate'
p400
tp401
I2
s(S'spider-patterned'
p402
tp403
I1
s(S'wetsuits'
p404
tp405
I4
s(S'ducky'
p406
tp407
I1
s(S'skii'
p408
tp409
I1
s(S'mushroom'
p410
tp411
I2
s(S'dangle'
p412
tp413
I7
s(S'unfurl'
p414
tp415
I1
s(S'test'
p416
tp417
I6
s(S'creepy'
p418
tp419
I1
s(S'iceburg'
p420
tp421
I1
s(S'curly-haired'
p422
tp423
I2
s(S'<START>'
p424
tp425
I30000
s(S'bum'
p426
tp427
I3
s(S'lower'
p428
tp429
I7
s(S'cabin'
p430
tp431
I3
s(S'first'
p432
tp433
I16
s(S'fabric'
p434
tp435
I14
s(S'member'
p436
tp437
I22
s(S'puffy'
p438
tp439
I2
s(S'cast'
p440
tp441
I28
s(S'sit'
p442
tp443
I1734
s(S'moniter'
p444
tp445
I1
s(S'sequoia'
p446
tp447
I1
s(S'burrow'
p448
tp449
I2
s(S'odeon'
p450
tp451
I2
s(S'gap'
p452
tp453
I1
s(S't'
tp454
I1
s(S'hike'
p455
tp456
I89
s(S'atheletes'
p457
tp458
I1
s(S'balcony'
p459
tp460
I20
s(S'contraption'
p461
tp462
I2
s(S'clip'
p463
tp464
I3
s(S'footbridge'
p465
tp466
I1
s(S'that'
p467
tp468
I296
s(S'invention'
p469
tp470
I1
s(S'closeup'
p471
tp472
I57
s(S'pink'
p473
tp474
I543
s(S'wool'
p475
tp476
I2
s(S'hoodie'
p477
tp478
I25
s(S'baked'
p479
tp480
I1
s(S'litttle'
p481
tp482
I1
s(S'container'
p483
tp484
I9
s(S'flat'
p485
tp486
I12
s(S'stonesign'
p487
tp488
I1
s(S'girlfriend'
p489
tp490
I1
s(S'production'
p491
tp492
I1
s(S'dreadlock'
p493
tp494
I11
s(S'sad'
p495
tp496
I1
s(S'wax'
p497
tp498
I1
s(S'topple'
p499
tp500
I2
s(S'sequined'
p501
tp502
I3
s(S'fenced'
p503
tp504
I35
s(S'steady'
p505
tp506
I2
s(S'give'
p507
tp508
I64
s(S'adopt'
p509
tp510
I1
s(S'class'
p511
tp512
I19
s(S'pat'
p513
tp514
I1
s(S'motor'
p515
tp516
I7
s(S'rush'
p517
tp518
I9
s(S'musical'
p519
tp520
I8
s(S'viewer'
p521
tp522
I3
s(S'rapid'
p523
tp524
I31
s(S'kneel'
p525
tp526
I50
s(S'streaked'
p527
tp528
I1
s(S'fitls'
p529
tp530
I1
s(S'foam'
p531
tp532
I14
s(S'drag'
p533
tp534
I19
s(S'backlegs'
p535
tp536
I1
s(S'chili'
p537
tp538
I3
s(S'beautiful'
p539
tp540
I32
s(S'font'
p541
tp542
I1
s(S'chrome'
p543
tp544
I1
s(S'prarie'
p545
tp546
I1
s(S'all'
p547
tp548
I96
s(S'stretch'
p549
tp550
I34
s(S'hatchback'
p551
tp552
I1
s(S'official'
p553
tp554
I6
s(S'racetrack'
p555
tp556
I43
s(S'liberty'
p557
tp558
I4
s(S'experimenter'
p559
tp560
I1
s(S'toddler'
p561
tp562
I133
s(S'strip'
p563
tp564
I21
s(S'canon'
p565
tp566
I4
s(S'names'
p567
tp568
I1
s(S'company'
p569
tp570
I2
s(S'reach'
p571
tp572
I74
s(S'marquee'
p573
tp574
I2
s(S'multicolor'
p575
tp576
I7
s(S'gymnasium'
p577
tp578
I6
s(S'oval'
p579
tp580
I1
s(S'book'
p581
tp582
I64
s(S'height'
p583
tp584
I5
s(S'corporate'
p585
tp586
I1
s(S'gigolo'
p587
tp588
I4
s(S'twenty'
p589
tp590
I1
s(S'laundry'
p591
tp592
I3
s(S'wizard'
p593
tp594
I1
s(S'belong'
p595
tp596
I1
s(S'broadly'
p597
tp598
I1
s(S'broken'
p599
tp600
I7
s(S'blue-green'
p601
tp602
I4
s(S'clothesline'
p603
tp604
I1
s(S'downstream'
p605
tp606
I1
s(S'prop'
p607
tp608
I8
s(S'hi-viz'
p609
tp610
I5
s(S'limb'
p611
tp612
I7
s(S'great'
p613
tp614
I5
s(S'display'
p615
tp616
I49
s(S'hooded'
p617
tp618
I6
s(S'redheaded'
p619
tp620
I21
s(S'palm-tree'
p621
tp622
I1
s(S'converse'
p623
tp624
I8
s(S'bird'
p625
tp626
I184
s(S'snow-covered'
p627
tp628
I36
s(S'wither'
p629
tp630
I1
s(S'wave'
p631
tp632
I365
s(S'excitedly'
p633
tp634
I1
s(S'foal'
p635
tp636
I2
s(S'refrigerator'
p637
tp638
I5
s(S'confront'
p639
tp640
I4
s(S'convoy'
p641
tp642
I1
s(S'mills'
p643
tp644
I1
s(S'scrubby'
p645
tp646
I2
s(S'crank'
p647
tp648
I3
s(S'hundred'
p649
tp650
I3
s(S'wakeboarder'
p651
tp652
I6
s(S'onto'
p653
tp654
I155
s(S'room'
p655
tp656
I95
s(S'collared'
p657
tp658
I4
s(S'riverrafting'
p659
tp660
I1
s(S'codpiece'
p661
tp662
I1
s(S'hanna'
p663
tp664
I1
s(S'pavement'
p665
tp666
I39
s(S'rattan'
p667
tp668
I1
s(S'treefilled'
p669
tp670
I2
s(S'grip'
p671
tp672
I3
s(S'intot'
p673
tp674
I1
s(S'rollercoaster'
p675
tp676
I3
s(S'glower'
p677
tp678
I1
s(S'help'
p679
tp680
I53
s(S'folks'
p681
tp682
I1
s(S'prepairing'
p683
tp684
I1
s(S'embrace'
p685
tp686
I27
s(S'sunlit'
p687
tp688
I2
s(S'mannequin'
p689
tp690
I4
s(S'patterned'
p691
tp692
I3
s(S'basett'
p693
tp694
I1
s(S'huddle'
p695
tp696
I23
s(S'boe'
p697
tp698
I1
s(S'watercraft'
p699
tp700
I7
s(S'vegetation'
p701
tp702
I3
s(S'mid-run'
p703
tp704
I1
s(S'blazer'
p705
tp706
I2
s(S'faithful'
p707
tp708
I1
s(S'breathe'
p709
tp710
I3
s(S'loose'
p711
tp712
I2
s(S'joy'
p713
tp714
I7
s(S'mid-climb'
p715
tp716
I1
s(S'state'
p717
tp718
I2
s(S'speedos'
p719
tp720
I2
s(S'protrude'
p721
tp722
I1
s(S'gontaga'
p723
tp724
I1
s(S'bundled-up'
p725
tp726
I2
s(S'orb'
p727
tp728
I1
s(S'tv'
p729
tp730
I9
s(S'tap'
p731
tp732
I4
s(S'setter'
p733
tp734
I2
s(S'twho'
p735
tp736
I1
s(S'shew'
p737
tp738
I1
s(S'opposite'
p739
tp740
I24
s(S'indoors'
p741
tp742
I26
s(S'saffron'
p743
tp744
I1
s(S'china'
p745
tp746
I2
s(S'ruined'
p747
tp748
I1
s(S'engulf'
p749
tp750
I4
s(S'lifeboat'
p751
tp752
I1
s(S'crustacean'
p753
tp754
I1
s(S'brunette'
p755
tp756
I17
s(S'neon'
p757
tp758
I15
s(S'cob'
p759
tp760
I3
s(S'raling'
p761
tp762
I1
s(S'sheet'
p763
tp764
I18
s(S'confused'
p765
tp766
I1
s(S'horseback'
p767
tp768
I10
s(S'divind'
p769
tp770
I1
s(S'warily'
p771
tp772
I1
s(S'intersection'
p773
tp774
I11
s(S'digital'
p775
tp776
I6
s(S'palid'
p777
tp778
I1
s(S'cherry'
p779
tp780
I1
s(S'explosive'
p781
tp782
I1
s(S'amuse'
p783
tp784
I2
s(S'ad'
p785
tp786
I3
s(S'eyepatch'
p787
tp788
I1
s(S'telephot'
p789
tp790
I1
s(S'ollie'
p791
tp792
I4
s(S'pavillion'
p793
tp794
I1
s(S'dirtbikes'
p795
tp796
I2
s(S'bats'
p797
tp798
I1
s(S'sound'
p799
tp800
I2
s(S'policewoman'
p801
tp802
I2
s(S'slip'
p803
tp804
I14
s(S'america'
p805
tp806
I2
s(S'side'
p807
tp808
I243
s(S'underbrush'
p809
tp810
I1
s(S'empty'
p811
tp812
I32
s(S'pajama'
p813
tp814
I12
s(S'gith'
p815
tp816
I1
s(S'nip'
p817
tp818
I7
s(S'rocker'
p819
tp820
I2
s(S'stuffed'
p821
tp822
I19
s(S'badly'
p823
tp824
I1
s(S'manicured'
p825
tp826
I2
s(S'plain'
p827
tp828
I17
s(S'thatch'
p829
tp830
I1
s(S'billow'
p831
tp832
I3
s(S'crocodile'
p833
tp834
I5
s(S'eastern'
p835
tp836
I15
s(S'sale'
p837
tp838
I4
s(S'college'
p839
tp840
I8
s(S'persian'
p841
tp842
I1
s(S'tie'
p843
tp844
I40
s(S'fiesty'
p845
tp846
I1
s(S'save'
p847
tp848
I2
s(S'merry'
p849
tp850
I3
s(S'bandana'
p851
tp852
I1
s(S'pleople'
p853
tp854
I1
s(S'wrapping'
p855
tp856
I4
s(S'noodle'
p857
tp858
I3
s(S'money'
p859
tp860
I17
s(S'tend'
p861
tp862
I4
s(S'weathered'
p863
tp864
I1
s(S'windboard'
p865
tp866
I1
s(S'dune'
p867
tp868
I24
s(S'moped'
p869
tp870
I3
s(S'6'
tp871
I5
s(S'draw'
p872
tp873
I16
s(S'hall'
p874
tp875
I9
s(S'drap'
p876
tp877
I1
s(S'tug'
p878
tp879
I33
s(S'twist'
p880
tp881
I6
s(S'boarded-up'
p882
tp883
I1
s(S'dupont'
p884
tp885
I1
s(S'retain'
p886
tp887
I3
s(S'design'
p888
tp889
I4
s(S'custom'
p890
tp891
I1
s(S'jack'
p892
tp893
I14
s(S'puddle'
p894
tp895
I75
s(S'backlit'
p896
tp897
I8
s(S'geyser'
p898
tp899
I5
s(S'knife'
p900
tp901
I5
s(S'windows'
p902
tp903
I1
s(S'red'
p904
tp905
I1977
s(S'roller-skate'
p906
tp907
I1
s(S'graffiti-covered'
p908
tp909
I2
s(S'some'
p910
tp911
I453
s(S'chest'
p912
tp913
I22
s(S'stall'
p914
tp915
I9
s(S'ax'
p916
tp917
I1
s(S'brighly'
p918
tp919
I1
s(S'nordic'
p920
tp921
I1
s(S'bloom'
p922
tp923
I3
s(S'activity'
p924
tp925
I3
s(S'wag'
p926
tp927
I1
s(S'ball'
p928
tp929
I1380
s(S'segway'
p930
tp931
I3
s(S'cockpit'
p932
tp933
I1
s(S'pretend'
p934
tp935
I16
s(S'player'
p936
tp937
I761
s(S'mosque'
p938
tp939
I1
s(S'hungry'
p940
tp941
I1
s(S'hods'
p942
tp943
I1
s(S'chandelier'
p944
tp945
I2
s(S'peoplw'
p946
tp947
I1
s(S'orange-hooded'
p948
tp949
I1
s(S'duck'
p950
tp951
I50
s(S'alter'
p952
tp953
I2
s(S'cacti'
p954
tp955
I1
s(S'console'
p956
tp957
I1
s(S'shawl'
p958
tp959
I4
s(S'driver'
p960
tp961
I24
s(S'dinner'
p962
tp963
I8
s(S'bland'
p964
tp965
I1
s(S'flank'
p966
tp967
I1
s(S'unifrom'
p968
tp969
I1
s(S'headphone'
p970
tp971
I39
s(S'swoop'
p972
tp973
I4
s(S'side-by-side'
p974
tp975
I1
s(S'grassy'
p976
tp977
I356
s(S'toothpaste'
p978
tp979
I1
s(S'kayak'
p980
tp981
I81
s(S'backstroke'
p982
tp983
I8
s(S'doghouse'
p984
tp985
I1
s(S'chaperone'
p986
tp987
I1
s(S'headed'
p988
tp989
I2
s(S'windsurf'
p990
tp991
I4
s(S'hairclips'
p992
tp993
I1
s(S'beak'
p994
tp995
I5
s(S'ultimate'
p996
tp997
I2
s(S'goatee'
p998
tp999
I3
s(S'fur'
p1000
tp1001
I24
s(S'batsman'
p1002
tp1003
I5
s(S'mr.'
p1004
tp1005
I3
s(S'sled'
p1006
tp1007
I101
s(S'along'
p1008
tp1009
I380
s(S'nightlife'
p1010
tp1011
I1
s(S'solo'
p1012
tp1013
I1
s(S'cobbled'
p1014
tp1015
I2
s(S'pinch'
p1016
tp1017
I1
s(S'waterside'
p1018
tp1019
I2
s(S'message'
p1020
tp1021
I1
s(S'mat'
p1022
tp1023
I23
s(S'atm'
p1024
tp1025
I5
s(S'picket'
p1026
tp1027
I3
s(S'unhappy'
p1028
tp1029
I4
s(S'formula'
p1030
tp1031
I1
s(S'letter'
p1032
tp1033
I9
s(S'graffiti-strewn'
p1034
tp1035
I1
s(S'engage'
p1036
tp1037
I6
s(S'celebrate'
p1038
tp1039
I9
s(S'ashaft'
p1040
tp1041
I1
s(S'deserted'
p1042
tp1043
I1
s(S'curly'
p1044
tp1045
I31
s(S'trudge'
p1046
tp1047
I1
s(S'collection'
p1048
tp1049
I2
s(S'sign'
p1050
tp1051
I211
s(S'belly'
p1052
tp1053
I8
s(S'pelican'
p1054
tp1055
I7
s(S'overtop'
p1056
tp1057
I1
s(S'oncoming'
p1058
tp1059
I1
s(S'doll'
p1060
tp1061
I6
s(S'gravity'
p1062
tp1063
I1
s(S'tike'
p1064
tp1065
I1
s(S'nurse'
p1066
tp1067
I4
s(S'sailboarder'
p1068
tp1069
I1
s(S'sphere'
p1070
tp1071
I1
s(S'syrup'
p1072
tp1073
I1
s(S'ok'
p1074
tp1075
I4
s(S'teeter'
p1076
tp1077
I2
s(S'lush'
p1078
tp1079
I6
s(S'retreiving'
p1080
tp1081
I1
s(S'pen'
p1082
tp1083
I11
s(S'dark-colored'
p1084
tp1085
I1
s(S'shoe-shine'
p1086
tp1087
I1
s(S'outfut'
p1088
tp1089
I1
s(S'punctured'
p1090
tp1091
I1
s(S'cornfield'
p1092
tp1093
I1
s(S'takedown'
p1094
tp1095
I2
s(S'review'
p1096
tp1097
I1
s(S'collapse'
p1098
tp1099
I2
s(S'fun'
p1100
tp1101
I13
s(S'rustric'
p1102
tp1103
I1
s(S'bug'
p1104
tp1105
I5
s(S'carnival'
p1106
tp1107
I30
s(S'dew'
p1108
tp1109
I2
s(S'seawall'
p1110
tp1111
I1
s(S'kayacker'
p1112
tp1113
I1
s(S'bodyboard'
p1114
tp1115
I4
s(S'karate'
p1116
tp1117
I13
s(S'bandmates'
p1118
tp1119
I1
s(S'rug'
p1120
tp1121
I19
s(S'sweater'
p1122
tp1123
I87
s(S'blast'
p1124
tp1125
I2
s(S'scent'
p1126
tp1127
I1
s(S'brown-eyed'
p1128
tp1129
I1
s(S'thinner'
p1130
tp1131
I1
s(S'run'
p1132
tp1133
I2596
s(S'pilot'
p1134
tp1135
I5
s(S'scottish'
p1136
tp1137
I4
s(S'chef'
p1138
tp1139
I2
s(S'since'
p1140
tp1141
I1
s(S'interior'
p1142
tp1143
I1
s(S'overlooks'
p1144
tp1145
I2
s(S'against'
p1146
tp1147
I154
s(S'spurt'
p1148
tp1149
I1
s(S'accross'
p1150
tp1151
I1
s(S'muscle'
p1152
tp1153
I4
s(S'brass'
p1154
tp1155
I2
s(S'anciet'
p1156
tp1157
I1
s(S'machine'
p1158
tp1159
I28
s(S'hapy'
p1160
tp1161
I1
s(S'paw'
p1162
tp1163
I28
s(S'police'
p1164
tp1165
I38
s(S'nascar'
p1166
tp1167
I2
s(S'above-ground'
p1168
tp1169
I1
s(S'homebase'
p1170
tp1171
I1
s(S'girt'
p1172
tp1173
I1
s(S'fton'
p1174
tp1175
I1
s(S'glacier'
p1176
tp1177
I5
s(S'butterfly-catcher'
p1178
tp1179
I1
s(S'reflection'
p1180
tp1181
I12
s(S'brownish-orange'
p1182
tp1183
I1
s(S'mud-wrestle'
p1184
tp1185
I1
s(S'descend'
p1186
tp1187
I20
s(S'moment'
p1188
tp1189
I5
s(S'doze'
p1190
tp1191
I1
s(S'honest'
p1192
tp1193
I1
s(S'santa'
p1194
tp1195
I39
s(S'lonely'
p1196
tp1197
I1
s(S'freestyle'
p1198
tp1199
I1
s(S'bone'
p1200
tp1201
I11
s(S'dame'
p1202
tp1203
I1
s(S'terrorize'
p1204
tp1205
I1
s(S'high-five'
p1206
tp1207
I2
s(S'grey-suited'
p1208
tp1209
I1
s(S'unspooled'
p1210
tp1211
I1
s(S'luggage'
p1212
tp1213
I13
s(S'centipede'
p1214
tp1215
I4
s(S'pluck'
p1216
tp1217
I1
s(S'pig'
p1218
tp1219
I3
s(S'mcdonalds'
p1220
tp1221
I1
s(S'tatooed'
p1222
tp1223
I1
s(S'operator'
p1224
tp1225
I1
s(S'runway'
p1226
tp1227
I2
s(S'bridesmaid'
p1228
tp1229
I10
s(S'barrier'
p1230
tp1231
I29
s(S'trail'
p1232
tp1233
I118
s(S'jewel'
p1234
tp1235
I1
s(S'manager'
p1236
tp1237
I1
s(S'montana'
p1238
tp1239
I1
s(S'vault'
p1240
tp1241
I6
s(S'juming'
p1242
tp1243
I1
s(S'snake'
p1244
tp1245
I6
s(S'arena'
p1246
tp1247
I9
s(S'hat'
p1248
tp1249
I570
s(S'jog'
p1250
tp1251
I33
s(S'blowup'
p1252
tp1253
I4
s(S'bus'
p1254
tp1255
I60
s(S'wide-brimmed'
p1256
tp1257
I1
s(S'sleeve'
p1258
tp1259
I10
s(S'thing'
p1260
tp1261
I9
s(S'alleyway'
p1262
tp1263
I4
s(S'tape'
p1264
tp1265
I10
s(S'arc'
p1266
tp1267
I1
s(S'shadow-dappled'
p1268
tp1269
I1
s(S'halo'
p1270
tp1271
I2
s(S'wide-legged'
p1272
tp1273
I1
s(S'28'
p1274
tp1275
I1
s(S'curiously'
p1276
tp1277
I4
s(S'unpaved'
p1278
tp1279
I1
s(S'backbend'
p1280
tp1281
I2
s(S'chrismas'
p1282
tp1283
I1
s(S'skimply'
p1284
tp1285
I1
s(S'petal'
p1286
tp1287
I2
s(S'refer'
p1288
tp1289
I1
s(S'sized'
p1290
tp1291
I1
s(S'3rd'
p1292
tp1293
I2
s(S'airport'
p1294
tp1295
I6
s(S'polo'
p1296
tp1297
I8
s(S'stalk'
p1298
tp1299
I2
s(S'pedestal'
p1300
tp1301
I2
s(S'scenery'
p1302
tp1303
I6
s(S'ear'
p1304
tp1305
I83
s(S'withdraw'
p1306
tp1307
I1
s(S'speed'
p1308
tp1309
I40
s(S'agility'
p1310
tp1311
I17
s(S'plank'
p1312
tp1313
I7
s(S'harly'
p1314
tp1315
I1
s(S'torwards'
p1316
tp1317
I1
s(S'monk'
p1318
tp1319
I3
s(S'farris'
p1320
tp1321
I1
s(S'atvs'
p1322
tp1323
I3
s(S'claw'
p1324
tp1325
I1
s(S'radio'
p1326
tp1327
I1
s(S'poem'
p1328
tp1329
I4
s(S'zombie'
p1330
tp1331
I3
s(S'water-wings'
p1332
tp1333
I2
s(S'shadowed'
p1334
tp1335
I1
s(S'spotted'
p1336
tp1337
I12
s(S'flatscreen'
p1338
tp1339
I1
s(S'bag'
p1340
tp1341
I166
s(S'traveler'
p1342
tp1343
I1
s(S'fourth'
p1344
tp1345
I1
s(S'thin'
p1346
tp1347
I11
s(S'spin'
p1348
tp1349
I38
s(S'shark'
p1350
tp1351
I1
s(S'scenic'
p1352
tp1353
I8
s(S'explore'
p1354
tp1355
I3
s(S'flip'
p1356
tp1357
I96
s(S'slam'
p1358
tp1359
I2
s(S'geological'
p1360
tp1361
I1
s(S'drawn'
p1362
tp1363
I2
s(S'obscure'
p1364
tp1365
I6
s(S'terrace'
p1366
tp1367
I3
s(S'blue'
p1368
tp1369
I1668
s(S'student'
p1370
tp1371
I15
s(S'shiny'
p1372
tp1373
I4
s(S'granny'
p1374
tp1375
I1
s(S'beat'
p1376
tp1377
I3
s(S'skiier'
p1378
tp1379
I9
s(S'mitt'
p1380
tp1381
I3
s(S'dolphin'
p1382
tp1383
I6
s(S'gaze'
p1384
tp1385
I10
s(S'falcon'
p1386
tp1387
I1
s(S'tout'
p1388
tp1389
I1
s(S'gaurd'
p1390
tp1391
I1
s(S'tentatively'
p1392
tp1393
I1
s(S'border'
p1394
tp1395
I9
s(S'citizen'
p1396
tp1397
I2
s(S'paisley'
p1398
tp1399
I1
s(S'than'
p1400
tp1401
I3
s(S'sun'
p1402
tp1403
I85
s(S'retreiver'
p1404
tp1405
I1
s(S'artwork'
p1406
tp1407
I3
s(S'swipe'
p1408
tp1409
I1
s(S'bareback'
p1410
tp1411
I2
s(S'guard'
p1412
tp1413
I18
s(S'so'
p1414
tp1415
I10
s(S'occasion'
p1416
tp1417
I2
s(S'pizzeria'
p1418
tp1419
I1
s(S'jacked'
p1420
tp1421
I2
s(S'martial'
p1422
tp1423
I23
s(S'hardly'
p1424
tp1425
I1
s(S'loan'
p1426
tp1427
I1
s(S'tobaggons'
p1428
tp1429
I1
s(S'blog'
p1430
tp1431
I1
s(S'dust'
p1432
tp1433
I14
s(S'rates'
p1434
tp1435
I1
s(S'shave'
p1436
tp1437
I9
s(S'babies'
p1438
tp1439
I1
s(S'metropolitain'
p1440
tp1441
I1
s(S'poorly'
p1442
tp1443
I1
s(S'sprinkle'
p1444
tp1445
I1
s(S'mechanism'
p1446
tp1447
I1
s(S'backside'
p1448
tp1449
I2
s(S'scubba'
p1450
tp1451
I1
s(S'banana'
p1452
tp1453
I4
s(S'woolly'
p1454
tp1455
I1
s(S'crow'
p1456
tp1457
I3
s(S'van'
p1458
tp1459
I15
s(S'motorcyclist'
p1460
tp1461
I49
s(S'blow'
p1462
tp1463
I94
s(S'awkward'
p1464
tp1465
I1
s(S'before'
p1466
tp1467
I27
s(S'site'
p1468
tp1469
I11
s(S'messy'
p1470
tp1471
I4
s(S'perfom'
p1472
tp1473
I1
s(S'portland'
p1474
tp1475
I2
s(S'somersault'
p1476
tp1477
I5
s(S'poor'
p1478
tp1479
I1
s(S'motorbike'
p1480
tp1481
I30
s(S'daschund'
p1482
tp1483
I2
s(S'tow-rope'
p1484
tp1485
I1
s(S'mittened'
p1486
tp1487
I1
s(S'simultaneously'
p1488
tp1489
I1
s(S'fort'
p1490
tp1491
I3
s(S'pitch'
p1492
tp1493
I26
s(S'containig'
p1494
tp1495
I1
s(S'endorsement-covered'
p1496
tp1497
I1
s(S'sloped'
p1498
tp1499
I3
s(S'cross-country'
p1500
tp1501
I12
s(S'york'
p1502
tp1503
I3
s(S'town'
p1504
tp1505
I14
s(S'whose'
p1506
tp1507
I5
s(S'bull'
p1508
tp1509
I43
s(S'sequin'
p1510
tp1511
I1
s(S'half-buried'
p1512
tp1513
I1
s(S'bog'
p1514
tp1515
I1
s(S'no'
p1516
tp1517
I65
s(S'donate'
p1518
tp1519
I1
s(S'suck'
p1520
tp1521
I8
s(S'hallway'
p1522
tp1523
I16
s(S'act'
p1524
tp1525
I10
s(S'rather'
p1526
tp1527
I1
s(S'tiger'
p1528
tp1529
I16
s(S'camp'
p1530
tp1531
I19
s(S'patron'
p1532
tp1533
I1
s(S'bring'
p1534
tp1535
I8
s(S'countertop'
p1536
tp1537
I3
s(S'husk'
p1538
tp1539
I3
s(S'cheeked'
p1540
tp1541
I1
s(S'performance'
p1542
tp1543
I7
s(S'bodysuit'
p1544
tp1545
I1
s(S'clemson'
p1546
tp1547
I1
s(S'wearhing'
p1548
tp1549
I1
s(S'drape'
p1550
tp1551
I3
s(S'slacks'
p1552
tp1553
I3
s(S'perforced'
p1554
tp1555
I1
s(S'district'
p1556
tp1557
I1
s(S'how'
p1558
tp1559
I10
s(S'watch'
p1560
tp1561
I589
s(S'spill'
p1562
tp1563
I4
s(S'mexican'
p1564
tp1565
I1
s(S'bike'
p1566
tp1567
I728
s(S'laugh'
p1568
tp1569
I126
s(S'sort'
p1570
tp1571
I11
s(S'mountain'
p1572
tp1573
I538
s(S'square'
p1574
tp1575
I18
s(S'bra'
p1576
tp1577
I4
s(S'crash'
p1578
tp1579
I33
s(S'rapids'
p1580
tp1581
I1
s(S'coliding'
p1582
tp1583
I1
s(S'fingerpaint'
p1584
tp1585
I1
s(S'fastest'
p1586
tp1587
I1
s(S'beachgoer'
p1588
tp1589
I3
s(S'headfirst'
p1590
tp1591
I15
s(S'crest'
p1592
tp1593
I4
s(S'passifier'
p1594
tp1595
I1
s(S'tatoos'
p1596
tp1597
I1
s(S'process'
p1598
tp1599
I2
s(S'rase'
p1600
tp1601
I1
s(S'highway'
p1602
tp1603
I7
s(S'mean'
p1604
tp1605
I4
s(S'shrub'
p1606
tp1607
I5
s(S'neatly'
p1608
tp1609
I1
s(S'injure'
p1610
tp1611
I3
s(S'open-air'
p1612
tp1613
I1
s(S'windbreaker'
p1614
tp1615
I1
s(S'zchtv'
p1616
tp1617
I1
s(S'disheveled'
p1618
tp1619
I1
s(S'outward'
p1620
tp1621
I1
s(S'neighborhood'
p1622
tp1623
I14
s(S'graffti'
p1624
tp1625
I1
s(S'rescue'
p1626
tp1627
I5
s(S'sillouhette'
p1628
tp1629
I1
s(S'cheeseburger'
p1630
tp1631
I1
s(S'lag'
p1632
tp1633
I1
s(S'mile'
p1634
tp1635
I1
s(S'appears'
p1636
tp1637
I1
s(S'zebra'
p1638
tp1639
I1
s(S'frolic'
p1640
tp1641
I12
s(S'kiss'
p1642
tp1643
I75
s(S'pacifier'
p1644
tp1645
I11
s(S'basker'
p1646
tp1647
I1
s(S'sidecar'
p1648
tp1649
I6
s(S'long-handled'
p1650
tp1651
I2
s(S'brand'
p1652
tp1653
I2
s(S'crowd'
p1654
tp1655
I367
s(S'funky'
p1656
tp1657
I1
s(S'direct'
p1658
tp1659
I1
s(S'wrap'
p1660
tp1661
I20
s(S'strange'
p1662
tp1663
I14
s(S'feild'
p1664
tp1665
I3
s(S'slippery'
p1666
tp1667
I1
s(S'tan'
p1668
tp1669
I306
s(S'keeper'
p1670
tp1671
I1
s(S'easily'
p1672
tp1673
I1
s(S'strew'
p1674
tp1675
I6
s(S'aquatic'
p1676
tp1677
I1
s(S'84'
p1678
tp1679
I2
s(S'hillock'
p1680
tp1681
I1
s(S'elaborate'
p1682
tp1683
I9
s(S'cave'
p1684
tp1685
I19
s(S'boardwalk'
p1686
tp1687
I13
s(S'29'
p1688
tp1689
I1
s(S'white'
p1690
tp1691
I2922
s(S'steap'
p1692
tp1693
I1
s(S'retail'
p1694
tp1695
I2
s(S'upstream'
p1696
tp1697
I1
s(S'arbor'
p1698
tp1699
I1
s(S'buoy'
p1700
tp1701
I1
s(S'somthing'
p1702
tp1703
I4
s(S'hopper'
p1704
tp1705
I4
s(S'front'
p1706
tp1707
I995
s(S'hound'
p1708
tp1709
I5
s(S'fade'
p1710
tp1711
I2
s(S'coconut'
p1712
tp1713
I1
s(S'lots'
p1714
tp1715
I3
s(S'shell'
p1716
tp1717
I1
s(S'bleak'
p1718
tp1719
I1
s(S'fantasy'
p1720
tp1721
I1
s(S'crouches'
p1722
tp1723
I11
s(S'directory'
p1724
tp1725
I1
s(S'arid'
p1726
tp1727
I1
s(S'determination'
p1728
tp1729
I1
s(S'tooth'
p1730
tp1731
I2
s(S'picure'
p1732
tp1733
I1
s(S'poolside'
p1734
tp1735
I2
s(S'win'
p1736
tp1737
I4
s(S'romantic'
p1738
tp1739
I1
s(S'tho'
p1740
tp1741
I1
s(S'midfield'
p1742
tp1743
I1
s(S'genocide'
p1744
tp1745
I3
s(S'bright-colored'
p1746
tp1747
I1
s(S'mullet'
p1748
tp1749
I1
s(S'drill'
p1750
tp1751
I9
s(S'paperwork'
p1752
tp1753
I7
s(S'huskey'
p1754
tp1755
I1
s(S'skeleton'
p1756
tp1757
I5
s(S'produce'
p1758
tp1759
I4
s(S'possibly'
p1760
tp1761
I1
s(S'aqua'
p1762
tp1763
I10
s(S'flexibility'
p1764
tp1765
I1
s(S'carve'
p1766
tp1767
I13
s(S'a'
tp1768
I51584
s(S'river'
p1769
tp1770
I162
s(S'discouraged'
p1771
tp1772
I1
s(S'music'
p1773
tp1774
I26
s(S'basketball'
p1775
tp1776
I274
s(S'image'
p1777
tp1778
I19
s(S'pyrotechnics'
p1779
tp1780
I2
s(S'talk'
p1781
tp1782
I187
s(S'india'
p1783
tp1784
I3
s(S'greenbay'
p1785
tp1786
I1
s(S'foul'
p1787
tp1788
I1
s(S'bit'
p1789
tp1790
I3
s(S'branch'
p1791
tp1792
I53
s(S'goof'
p1793
tp1794
I1
s(S'energy'
p1795
tp1796
I2
s(S'uniquely-shaped'
p1797
tp1798
I1
s(S'russell'
p1799
tp1800
I3
s(S'bunch'
p1801
tp1802
I43
s(S'sum'
p1803
tp1804
I1
s(S'perplex'
p1805
tp1806
I1
s(S'carjack'
p1807
tp1808
I1
s(S'just'
p1809
tp1810
I39
s(S'shorthaired'
p1811
tp1812
I6
s(S'metro'
p1813
tp1814
I1
s(S'air'
p1815
tp1816
I769
s(S'skinny'
p1817
tp1818
I12
s(S'impact'
p1819
tp1820
I1
s(S'tray'
p1821
tp1822
I6
s(S'tracksuit'
p1823
tp1824
I5
s(S'enter'
p1825
tp1826
I9
s(S'wearubg'
p1827
tp1828
I1
s(S'terrior'
p1829
tp1830
I1
s(S'saxophone'
p1831
tp1832
I4
s(S'pebble'
p1833
tp1834
I2
s(S'fumble'
p1835
tp1836
I1
s(S'profile'
p1837
tp1838
I4
s(S'streetway'
p1839
tp1840
I1
s(S'prevent'
p1841
tp1842
I3
s(S'bikins'
p1843
tp1844
I1
s(S'suspend'
p1845
tp1846
I19
s(S'age'
p1847
tp1848
I8
s(S'windsail'
p1849
tp1850
I1
s(S'verizon'
p1851
tp1852
I1
s(S'most'
p1853
tp1854
I2
s(S'posign'
p1855
tp1856
I1
s(S'rellow'
p1857
tp1858
I1
s(S'slat'
p1859
tp1860
I1
s(S'trace'
p1861
tp1862
I1
s(S'riverside'
p1863
tp1864
I1
s(S'foothill'
p1865
tp1866
I1
s(S'11'
p1867
tp1868
I1
s(S'stomach'
p1869
tp1870
I13
s(S'fashioned'
p1871
tp1872
I2
s(S'underwater'
p1873
tp1874
I45
s(S'graphic'
p1875
tp1876
I2
s(S'ups'
p1877
tp1878
I1
s(S'athletic'
p1879
tp1880
I12
s(S'wire'
p1881
tp1882
I35
s(S'store'
p1883
tp1884
I90
s(S'osme'
p1885
tp1886
I1
s(S'additional'
p1887
tp1888
I1
s(S'n'
tp1889
I2
s(S'confuse'
p1890
tp1891
I2
s(S'ques'
p1892
tp1893
I1
s(S'follow'
p1894
tp1895
I62
s(S'defend'
p1896
tp1897
I9
s(S'bookcase'
p1898
tp1899
I1
s(S'handgun'
p1900
tp1901
I3
s(S'sinks'
p1902
tp1903
I1
s(S'position'
p1904
tp1905
I11
s(S'bulldozer'
p1906
tp1907
I1
s(S'prairie'
p1908
tp1909
I1
s(S'surge'
p1910
tp1911
I1
s(S'fluorecent'
p1912
tp1913
I1
s(S'ceremony'
p1914
tp1915
I2
s(S'rice'
p1916
tp1917
I2
s(S'dumpster'
p1918
tp1919
I1
s(S'buffalo'
p1920
tp1921
I2
s(S'christmas'
p1922
tp1923
I29
s(S'burlap'
p1924
tp1925
I1
s(S'moutainside'
p1926
tp1927
I1
s(S'mulch'
p1928
tp1929
I1
s(S'fairies'
p1930
tp1931
I2
s(S'rugger'
p1932
tp1933
I1
s(S'potao'
p1934
tp1935
I1
s(S'm'
tp1936
I1
s(S'biker'
p1937
tp1938
I148
s(S'opinion'
p1939
tp1940
I1
s(S'mucky'
p1941
tp1942
I1
s(S'rainbow'
p1943
tp1944
I18
s(S'tiara'
p1945
tp1946
I2
s(S'drawing'
p1947
tp1948
I2
s(S'cut'
p1949
tp1950
I34
s(S'oversized'
p1951
tp1952
I2
s(S'gamble'
p1953
tp1954
I1
s(S'widow'
p1955
tp1956
I2
s(S'hairy'
p1957
tp1958
I5
s(S'hot'
p1959
tp1960
I26
s(S'fluid'
p1961
tp1962
I1
s(S'thrust'
p1963
tp1964
I1
s(S'bullseye'
p1965
tp1966
I1
s(S'jailbird'
p1967
tp1968
I1
s(S'veil'
p1969
tp1970
I3
s(S'matching'
p1971
tp1972
I30
s(S'retrieve'
p1973
tp1974
I36
s(S'landscaped'
p1975
tp1976
I1
s(S'elf'
p1977
tp1978
I1
s(S'mown'
p1979
tp1980
I1
s(S'trampoline'
p1981
tp1982
I81
s(S'paddle'
p1983
tp1984
I80
s(S'tease'
p1985
tp1986
I1
s(S'outise'
p1987
tp1988
I1
s(S'ou'
p1989
tp1990
I1
s(S'root'
p1991
tp1992
I3
s(S'lock'
p1993
tp1994
I7
s(S'dumps'
p1995
tp1996
I3
s(S'whom'
p1997
tp1998
I3
s(S'encourage'
p1999
tp2000
I2
s(S'hello'
p2001
tp2002
I5
s(S'krueger'
p2003
tp2004
I1
s(S'path'
p2005
tp2006
I226
s(S'walk'
p2007
tp2008
I1503
s(S'somone'
p2009
tp2010
I1
s(S'goer'
p2011
tp2012
I1
s(S'harbor'
p2013
tp2014
I3
s(S'nadal'
p2015
tp2016
I2
s(S'murky'
p2017
tp2018
I12
s(S'route'
p2019
tp2020
I3
s(S'portable'
p2021
tp2022
I4
s(S'scrolled'
p2023
tp2024
I1
s(S'emty'
p2025
tp2026
I1
s(S'button-down'
p2027
tp2028
I1
s(S'stroke'
p2029
tp2030
I2
s(S'cloak'
p2031
tp2032
I3
s(S'train'
p2033
tp2034
I102
s(S'public'
p2035
tp2036
I34
s(S'found'
p2037
tp2038
I2
s(S'moon'
p2039
tp2040
I3
s(S'fry'
p2041
tp2042
I1
s(S'protector'
p2043
tp2044
I2
s(S'saxaphones'
p2045
tp2046
I1
s(S'strength'
p2047
tp2048
I1
s(S'neon-colored'
p2049
tp2050
I1
s(S'applebee'
p2051
tp2052
I1
s(S'bouncey'
p2053
tp2054
I1
s(S'p'
tp2055
I2
s(S'preoccupy'
p2056
tp2057
I1
s(S'punt'
p2058
tp2059
I3
s(S'chime'
p2060
tp2061
I1
s(S'speaker'
p2062
tp2063
I4
s(S'baton'
p2064
tp2065
I4
s(S'floaties'
p2066
tp2067
I10
s(S'drainpipe'
p2068
tp2069
I1
s(S'remax'
p2070
tp2071
I1
s(S'sleeved'
p2072
tp2073
I9
s(S'out'
p2074
tp2075
I554
s(S'mustard'
p2076
tp2077
I2
s(S'underneath'
p2078
tp2079
I19
s(S'vend'
p2080
tp2081
I3
s(S'furious'
p2082
tp2083
I1
s(S'handheld'
p2084
tp2085
I2
s(S'recoil'
p2086
tp2087
I3
s(S'calm'
p2088
tp2089
I8
s(S'cold-weather'
p2090
tp2091
I2
s(S'motorbiker'
p2092
tp2093
I1
s(S'youngle'
p2094
tp2095
I1
s(S'pumpkin'
p2096
tp2097
I12
s(S'oh'
p2098
tp2099
I1
s(S'arched'
p2100
tp2101
I3
s(S'hiker'
p2102
tp2103
I97
s(S'hardscape'
p2104
tp2105
I1
s(S'excite'
p2106
tp2107
I8
s(S'quilted'
p2108
tp2109
I1
s(S'sight'
p2110
tp2111
I2
s(S'pod'
p2112
tp2113
I1
s(S'chess'
p2114
tp2115
I5
s(S'basset'
p2116
tp2117
I1
s(S'carrier'
p2118
tp2119
I5
s(S'emerge'
p2120
tp2121
I19
s(S'eat'
p2122
tp2123
I167
s(S'lick'
p2124
tp2125
I51
s(S'sombrero'
p2126
tp2127
I2
s(S'hulk'
p2128
tp2129
I1
s(S'almost'
p2130
tp2131
I14
s(S'inflatbale'
p2132
tp2133
I1
s(S'employee'
p2134
tp2135
I2
s(S'greyish'
p2136
tp2137
I2
s(S'motorcrossing'
p2138
tp2139
I1
s(S'accent'
p2140
tp2141
I5
s(S'sari'
p2142
tp2143
I4
s(S'black-and-white'
p2144
tp2145
I4
s(S'pickup'
p2146
tp2147
I4
s(S'sparkler'
p2148
tp2149
I14
s(S'further'
p2150
tp2151
I1
s(S'sparse'
p2152
tp2153
I3
s(S'anime'
p2154
tp2155
I1
s(S'entertainer'
p2156
tp2157
I2
s(S'mist'
p2158
tp2159
I3
s(S'accompany'
p2160
tp2161
I5
s(S'tow-headed'
p2162
tp2163
I1
s(S'hamburger'
p2164
tp2165
I6
s(S'oklahoma'
p2166
tp2167
I15
s(S'wetsuit'
p2168
tp2169
I68
s(S'chinese'
p2170
tp2171
I7
s(S'stoppie'
p2172
tp2173
I1
s(S'undershirt'
p2174
tp2175
I2
s(S'bigwheels'
p2176
tp2177
I1
s(S'technical'
p2178
tp2179
I2
s(S'shake'
p2180
tp2181
I75
s(S'streamer'
p2182
tp2183
I4
s(S'circular'
p2184
tp2185
I5
s(S'photography'
p2186
tp2187
I1
s(S'wands'
p2188
tp2189
I1
s(S'griding'
p2190
tp2191
I1
s(S'advertise'
p2192
tp2193
I21
s(S'setting'
p2194
tp2195
I1
s(S'residential'
p2196
tp2197
I5
s(S'recently'
p2198
tp2199
I6
s(S'hawaiian'
p2200
tp2201
I2
s(S'venue'
p2202
tp2203
I1
s(S'jetty'
p2204
tp2205
I4
s(S'tile'
p2206
tp2207
I11
s(S'meet'
p2208
tp2209
I7
s(S'makeshift'
p2210
tp2211
I5
s(S'limousine'
p2212
tp2213
I5
s(S'otherwise'
p2214
tp2215
I1
s(S'headwear'
p2216
tp2217
I1
s(S'projector'
p2218
tp2219
I1
s(S'safe'
p2220
tp2221
I1
s(S'record'
p2222
tp2223
I11
s(S'amphitheater'
p2224
tp2225
I2
s(S'brush-land'
p2226
tp2227
I1
s(S'chainmail'
p2228
tp2229
I1
s(S'yellowish'
p2230
tp2231
I1
s(S'tbe'
p2232
tp2233
I1
s(S'bumper'
p2234
tp2235
I1
s(S'olympic'
p2236
tp2237
I2
s(S'crewman'
p2238
tp2239
I1
s(S'fox'
p2240
tp2241
I1
s(S'frog'
p2242
tp2243
I5
s(S'granite'
p2244
tp2245
I1
s(S'embed'
p2246
tp2247
I1
s(S'source'
p2248
tp2249
I2
s(S'10'
p2250
tp2251
I1
s(S'plush'
p2252
tp2253
I4
s(S'air-filled'
p2254
tp2255
I2
s(S'photo'
p2256
tp2257
I72
s(S'drak'
p2258
tp2259
I1
s(S'dive'
p2260
tp2261
I70
s(S'kickflip'
p2262
tp2263
I1
s(S'near'
p2264
tp2265
I756
s(S'schoolgirl'
p2266
tp2267
I3
s(S'cart'
p2268
tp2269
I65
s(S'directly'
p2270
tp2271
I2
s(S'silver'
p2272
tp2273
I51
s(S'kitchen'
p2274
tp2275
I40
s(S'torn'
p2276
tp2277
I1
s(S'well'
p2278
tp2279
I11
s(S'eyebrow'
p2280
tp2281
I4
s(S'aerobatic'
p2282
tp2283
I1
s(S'fleece'
p2284
tp2285
I4
s(S'oak'
p2286
tp2287
I1
s(S'conversation'
p2288
tp2289
I7
s(S'casually-dressed'
p2290
tp2291
I1
s(S'maraca'
p2292
tp2293
I1
s(S'lope'
p2294
tp2295
I1
s(S'sailboard'
p2296
tp2297
I2
s(S'marsh'
p2298
tp2299
I6
s(S'line'
p2300
tp2301
I140
s(S'closed'
p2302
tp2303
I2
s(S'bumble'
p2304
tp2305
I1
s(S'headscarf'
p2306
tp2307
I22
s(S'island'
p2308
tp2309
I5
s(S'pink-coated'
p2310
tp2311
I1
s(S'work'
p2312
tp2313
I37
s(S'eatery'
p2314
tp2315
I1
s(S'dog'
p2316
tp2317
I7779
s(S'midget'
p2318
tp2319
I2
s(S'climb'
p2320
tp2321
I588
s(S'tanktops'
p2322
tp2323
I1
s(S'fashionably'
p2324
tp2325
I2
s(S'sculpture'
p2326
tp2327
I18
s(S'color-block'
p2328
tp2329
I1
s(S'motorcycle'
p2330
tp2331
I211
s(S'chipmunk'
p2332
tp2333
I1
s(S'jumper'
p2334
tp2335
I11
s(S'skatepark'
p2336
tp2337
I3
s(S'start'
p2338
tp2339
I26
s(S'furred'
p2340
tp2341
I1
s(S'nine'
p2342
tp2343
I2
s(S'framed'
p2344
tp2345
I4
s(S'overturn'
p2346
tp2347
I1
s(S'rock-climb'
p2348
tp2349
I3
s(S'coach'
p2350
tp2351
I18
s(S'attampts'
p2352
tp2353
I1
s(S'archway'
p2354
tp2355
I5
s(S'bro'
p2356
tp2357
I1
s(S'leafless'
p2358
tp2359
I5
s(S'ranger'
p2360
tp2361
I2
s(S'fries'
p2362
tp2363
I3
s(S"'slide"
p2364
tp2365
I1
s(S'london'
p2366
tp2367
I1
s(S'stripe'
p2368
tp2369
I25
s(S'ot'
p2370
tp2371
I1
s(S'stir'
p2372
tp2373
I3
s(S'basement'
p2374
tp2375
I3
s(S'oout'
p2376
tp2377
I1
s(S'port-a-potties'
p2378
tp2379
I2
s(S'cavort'
p2380
tp2381
I2
s(S'claus'
p2382
tp2383
I8
s(S'buisness'
p2384
tp2385
I1
s(S'layered'
p2386
tp2387
I1
s(S'thatched'
p2388
tp2389
I3
s(S'headwrap'
p2390
tp2391
I2
s(S'two'
p2392
tp2393
I4244
s(S'aged'
p2394
tp2395
I10
s(S'crawl'
p2396
tp2397
I25
s(S'coverall'
p2398
tp2399
I2
s(S'dove'
p2400
tp2401
I1
s(S'stunt-leap'
p2402
tp2403
I1
s(S'storefront'
p2404
tp2405
I7
s(S'bite'
p2406
tp2407
I107
s(S'pocket'
p2408
tp2409
I3
s(S'bowl'
p2410
tp2411
I34
s(S'feamle'
p2412
tp2413
I1
s(S'bullhorn'
p2414
tp2415
I2
s(S'mug'
p2416
tp2417
I10
s(S'year'
p2418
tp2419
I1
s(S'overhear'
p2420
tp2421
I1
s(S'tale'
p2422
tp2423
I1
s(S'special'
p2424
tp2425
I5
s(S'graffiti-heavy'
p2426
tp2427
I1
s(S'horn'
p2428
tp2429
I9
s(S'roadway'
p2430
tp2431
I4
s(S'graffiti-filled'
p2432
tp2433
I2
s(S'skirt'
p2434
tp2435
I81
s(S'hankerchief'
p2436
tp2437
I1
s(S'expansive'
p2438
tp2439
I1
s(S'outstreached'
p2440
tp2441
I7
s(S'pyramid'
p2442
tp2443
I5
s(S'broad'
p2444
tp2445
I1
s(S'swing-toy'
p2446
tp2447
I1
s(S'sportman'
p2448
tp2449
I1
s(S'destination'
p2450
tp2451
I1
s(S'snap'
p2452
tp2453
I7
s(S'concentrate'
p2454
tp2455
I3
s(S'seated'
p2456
tp2457
I4
s(S'butter'
p2458
tp2459
I5
s(S'schoolchildren'
p2460
tp2461
I1
s(S'scare'
p2462
tp2463
I4
s(S'jockey'
p2464
tp2465
I28
s(S'pan'
p2466
tp2467
I7
s(S'medow'
p2468
tp2469
I1
s(S'netted'
p2470
tp2471
I1
s(S'winter'
p2472
tp2473
I88
s(S'underfoot'
p2474
tp2475
I1
s(S'notre'
p2476
tp2477
I1
s(S'tankini'
p2478
tp2479
I1
s(S'device'
p2480
tp2481
I19
s(S'romantically'
p2482
tp2483
I1
s(S'bushy'
p2484
tp2485
I2
s(S'poll'
p2486
tp2487
I1
s(S'mountian'
p2488
tp2489
I2
s(S'outdoors'
p2490
tp2491
I126
s(S'saw'
p2492
tp2493
I2
s(S'halfway'
p2494
tp2495
I3
s(S'elegant'
p2496
tp2497
I3
s(S'fuchsia'
p2498
tp2499
I1
s(S'dusk'
p2500
tp2501
I19
s(S'attemping'
p2502
tp2503
I1
s(S'poof'
p2504
tp2505
I1
s(S'tourquoise'
p2506
tp2507
I1
s(S'stange'
p2508
tp2509
I1
s(S'piercings'
p2510
tp2511
I2
s(S'compact'
p2512
tp2513
I1
s(S'matt'
p2514
tp2515
I1
s(S'few'
p2516
tp2517
I46
s(S'preparation'
p2518
tp2519
I1
s(S'resort'
p2520
tp2521
I7
s(S'rage'
p2522
tp2523
I2
s(S'motorize'
p2524
tp2525
I5
s(S'artifact'
p2526
tp2527
I1
s(S'horizon'
p2528
tp2529
I12
s(S'miss'
p2530
tp2531
I6
s(S'sewer'
p2532
tp2533
I1
s(S'lollipop'
p2534
tp2535
I4
s(S'tunnel'
p2536
tp2537
I54
s(S'own'
p2538
tp2539
I7
s(S'wheat'
p2540
tp2541
I1
s(S'eachother'
p2542
tp2543
I1
s(S'hackey'
p2544
tp2545
I1
s(S'holy'
p2546
tp2547
I1
s(S'rainy'
p2548
tp2549
I4
s(S'bouncy'
p2550
tp2551
I7
s(S'roil'
p2552
tp2553
I1
s(S'halter'
p2554
tp2555
I5
s(S'snow-patched'
p2556
tp2557
I1
s(S'rover'
p2558
tp2559
I2
s(S'approach'
p2560
tp2561
I22
s(S'attraction'
p2562
tp2563
I3
s(S'longsleeve'
p2564
tp2565
I2
s(S'nose'
p2566
tp2567
I80
s(S'formal'
p2568
tp2569
I21
s(S'hydrant'
p2570
tp2571
I1
s(S'nike'
p2572
tp2573
I3
s(S'entitle'
p2574
tp2575
I1
s(S'tool'
p2576
tp2577
I11
s(S'park-like'
p2578
tp2579
I1
s(S'equiment'
p2580
tp2581
I1
s(S'someone'
p2582
tp2583
I111
s(S'hut'
p2584
tp2585
I13
s(S'onesie'
p2586
tp2587
I1
s(S'crust'
p2588
tp2589
I2
s(S'computer'
p2590
tp2591
I25
s(S'construct'
p2592
tp2593
I1
s(S'ferris'
p2594
tp2595
I1
s(S'davison'
p2596
tp2597
I1
s(S'painting'
p2598
tp2599
I4
s(S'giant'
p2600
tp2601
I31
s(S'rail'
p2602
tp2603
I89
s(S'birdcage'
p2604
tp2605
I2
s(S'schoolboy'
p2606
tp2607
I1
s(S'field'
p2608
tp2609
I1000
s(S'rodeo'
p2610
tp2611
I22
s(S'carriage'
p2612
tp2613
I15
s(S'fuzzy'
p2614
tp2615
I7
s(S'cold'
p2616
tp2617
I22
s(S'afghan'
p2618
tp2619
I3
s(S'wildly'
p2620
tp2621
I2
s(S'stage'
p2622
tp2623
I40
s(S'spelunker'
p2624
tp2625
I3
s(S'involve'
p2626
tp2627
I5
s(S'mid-flight'
p2628
tp2629
I5
s(S'canoe'
p2630
tp2631
I64
s(S'lightly'
p2632
tp2633
I1
s(S'chunky'
p2634
tp2635
I1
s(S'one-handed'
p2636
tp2637
I3
s(S'ski'
p2638
tp2639
I207
s(S'13'
p2640
tp2641
I2
s(S'order'
p2642
tp2643
I5
s(S'theater'
p2644
tp2645
I6
s(S'clothes'
p2646
tp2647
I108
s(S'laptop'
p2648
tp2649
I14
s(S'pedigree'
p2650
tp2651
I1
s(S'stork'
p2652
tp2653
I1
s(S'boatful'
p2654
tp2655
I1
s(S'assemble'
p2656
tp2657
I1
s(S'sharp'
p2658
tp2659
I19
s(S'midst'
p2660
tp2661
I8
s(S'disk'
p2662
tp2663
I8
s(S'overpass'
p2664
tp2665
I8
s(S'long'
p2666
tp2667
I213
s(S'veteran'
p2668
tp2669
I1
s(S'around'
p2670
tp2671
I489
s(S'toothbrush'
p2672
tp2673
I3
s(S'family'
p2674
tp2675
I55
s(S'festive'
p2676
tp2677
I6
s(S'attention'
p2678
tp2679
I7
s(S'small'
p2680
tp2681
I989
s(S'dwell'
p2682
tp2683
I2
s(S'fatigue'
p2684
tp2685
I1
s(S'dried'
p2686
tp2687
I3
s(S'racquet'
p2688
tp2689
I17
s(S'several'
p2690
tp2691
I238
s(S'baggage'
p2692
tp2693
I2
s(S'spanish'
p2694
tp2695
I1
s(S'pours'
p2696
tp2697
I1
s(S'soil'
p2698
tp2699
I2
s(S'seidwalk'
p2700
tp2701
I1
s(S'eleven'
p2702
tp2703
I2
s(S'pregnant'
p2704
tp2705
I2
s(S'replace'
p2706
tp2707
I2
s(S'ls'
p2708
tp2709
I1
s(S'bottle'
p2710
tp2711
I58
s(S'bridge'
p2712
tp2713
I105
s(S'tattooed'
p2714
tp2715
I7
s(S'grow'
p2716
tp2717
I1
s(S'leather'
p2718
tp2719
I49
s(S'brides'
p2720
tp2721
I1
s(S'temporary'
p2722
tp2723
I1
s(S'cool'
p2724
tp2725
I3
s(S'tan-skinned'
p2726
tp2727
I1
s(S'county'
p2728
tp2729
I1
s(S'greenpeace'
p2730
tp2731
I1
s(S'downpour'
p2732
tp2733
I1
s(S'ballet'
p2734
tp2735
I6
s(S'facility'
p2736
tp2737
I2
s(S'australian'
p2738
tp2739
I4
s(S'hurridly'
p2740
tp2741
I1
s(S'wakeboard'
p2742
tp2743
I23
s(S'distored'
p2744
tp2745
I1
s(S'usual'
p2746
tp2747
I1
s(S'behinf'
p2748
tp2749
I1
s(S'river-rapids'
p2750
tp2751
I1
s(S'jackson'
p2752
tp2753
I6
s(S'goucho'
p2754
tp2755
I1
s(S'mid-swing'
p2756
tp2757
I2
s(S'digger'
p2758
tp2759
I2
s(S'crazy'
p2760
tp2761
I2
s(S'videotape'
p2762
tp2763
I5
s(S'clever'
p2764
tp2765
I1
s(S'fully'
p2766
tp2767
I1
s(S'barely'
p2768
tp2769
I2
s(S'visible'
p2770
tp2771
I12
s(S'chow'
p2772
tp2773
I2
s(S'seed'
p2774
tp2775
I6
s(S'pursed'
p2776
tp2777
I1
s(S'dim'
p2778
tp2779
I13
s(S'ensemble'
p2780
tp2781
I1
s(S'tethered'
p2782
tp2783
I1
s(S'hdr'
p2784
tp2785
I1
s(S'tire'
p2786
tp2787
I88
s(S'transparent'
p2788
tp2789
I2
s(S'wife'
p2790
tp2791
I2
s(S'noticable'
p2792
tp2793
I1
s(S'world'
p2794
tp2795
I4
s(S'notice'
p2796
tp2797
I3
s(S'gray-haired'
p2798
tp2799
I4
s(S'gurnee'
p2800
tp2801
I1
s(S'cycle'
p2802
tp2803
I11
s(S'marry'
p2804
tp2805
I3
s(S'participates'
p2806
tp2807
I1
s(S'florida'
p2808
tp2809
I7
s(S'momma'
p2810
tp2811
I1
s(S'chin'
p2812
tp2813
I8
s(S'hooker'
p2814
tp2815
I2
s(S'tinkerbell'
p2816
tp2817
I5
s(S'stoplight'
p2818
tp2819
I1
s(S'ee'
p2820
tp2821
I1
s(S'inflated'
p2822
tp2823
I4
s(S'cascade'
p2824
tp2825
I2
s(S'dalmation'
p2826
tp2827
I4
s(S'harmonica'
p2828
tp2829
I2
s(S'rest'
p2830
tp2831
I73
s(S'aboard'
p2832
tp2833
I1
s(S'enjoy'
p2834
tp2835
I61
s(S'unfinished'
p2836
tp2837
I1
s(S'squirrel'
p2838
tp2839
I9
s(S'chello'
p2840
tp2841
I1
s(S'piercing'
p2842
tp2843
I4
s(S'cropped'
p2844
tp2845
I1
s(S'spare'
p2846
tp2847
I1
s(S'tackler'
p2848
tp2849
I2
s(S'ask'
p2850
tp2851
I8
s(S'foggyday'
p2852
tp2853
I1
s(S'scarf'
p2854
tp2855
I70
s(S'tea'
p2856
tp2857
I3
s(S'blanket'
p2858
tp2859
I53
s(S'chalk'
p2860
tp2861
I11
s(S'aquos'
p2862
tp2863
I1
s(S'perches'
p2864
tp2865
I1
s(S'girl'
p2866
tp2867
I3050
s(S'perked'
p2868
tp2869
I1
s(S'turquoise'
p2870
tp2871
I8
s(S'film'
p2872
tp2873
I9
s(S'he'
p2874
tp2875
I150
s(S'stubby'
p2876
tp2877
I1
s(S'sail'
p2878
tp2879
I24
s(S'fails'
p2880
tp2881
I1
s(S'second'
p2882
tp2883
I12
s(S'lunchbox'
p2884
tp2885
I2
s(S'piano'
p2886
tp2887
I9
s(S'suntan'
p2888
tp2889
I1
s(S'fly'
p2890
tp2891
I215
s(S'snuggle'
p2892
tp2893
I3
s(S'horse-drawn'
p2894
tp2895
I1
s(S'powerlines'
p2896
tp2897
I1
s(S'tread'
p2898
tp2899
I9
s(S'doorbell'
p2900
tp2901
I2
s(S'pleadingly'
p2902
tp2903
I1
s(S'variety'
p2904
tp2905
I1
s(S'antiquated'
p2906
tp2907
I1
s(S'contact'
p2908
tp2909
I1
s(S'mesa'
p2910
tp2911
I1
s(S'piggy'
p2912
tp2913
I5
s(S'fadora'
p2914
tp2915
I1
s(S'chase'
p2916
tp2917
I262
s(S'synchronized'
p2918
tp2919
I2
s(S'irish'
p2920
tp2921
I4
s(S'relax'
p2922
tp2923
I27
s(S'driftrood'
p2924
tp2925
I1
s(S'busk'
p2926
tp2927
I1
s(S'misty'
p2928
tp2929
I4
s(S'grand'
p2930
tp2931
I1
s(S'distorted'
p2932
tp2933
I7
s(S'bulldog'
p2934
tp2935
I5
s(S'short'
p2936
tp2937
I336
s(S'gradual'
p2938
tp2939
I1
s(S'hide'
p2940
tp2941
I19
s(S'happy'
p2942
tp2943
I34
s(S'knight'
p2944
tp2945
I1
s(S'launch'
p2946
tp2947
I10
s(S'mastif'
p2948
tp2949
I1
s(S'telephone'
p2950
tp2951
I8
s(S'gathering'
p2952
tp2953
I17
s(S'playground'
p2954
tp2955
I130
s(S'teen'
p2956
tp2957
I13
s(S'yawn'
p2958
tp2959
I9
s(S'wait'
p2960
tp2961
I149
s(S'sheepdog'
p2962
tp2963
I3
s(S'recyclable'
p2964
tp2965
I1
s(S'onward'
p2966
tp2967
I2
s(S'flowery'
p2968
tp2969
I9
s(S'brief'
p2970
tp2971
I1
s(S'spar'
p2972
tp2973
I8
s(S'snowbank'
p2974
tp2975
I10
s(S'handout'
p2976
tp2977
I1
s(S'fence'
p2978
tp2979
I284
s(S'female'
p2980
tp2981
I95
s(S'flock'
p2982
tp2983
I17
s(S'upward'
p2984
tp2985
I3
s(S'suburban'
p2986
tp2987
I6
s(S'tropical'
p2988
tp2989
I9
s(S'object'
p2990
tp2991
I126
s(S'gift'
p2992
tp2993
I5
s(S'fixture'
p2994
tp2995
I1
s(S'collide'
p2996
tp2997
I8
s(S'community'
p2998
tp2999
I6
s(S'lotion'
p3000
tp3001
I1
s(S'sect'
p3002
tp3003
I1
s(S'still'
p3004
tp3005
I11
s(S'diver'
p3006
tp3007
I11
s(S'armful'
p3008
tp3009
I1
s(S'brook'
p3010
tp3011
I2
s(S'dhe'
p3012
tp3013
I1
s(S'625'
p3014
tp3015
I1
s(S'flag'
p3016
tp3017
I126
s(S'nursery'
p3018
tp3019
I2
s(S'daytime'
p3020
tp3021
I1
s(S'dirtbike'
p3022
tp3023
I1
s(S'marlin'
p3024
tp3025
I1
s(S'railway'
p3026
tp3027
I2
s(S'fireplug'
p3028
tp3029
I1
s(S'buck'
p3030
tp3031
I7
s(S'torso'
p3032
tp3033
I2
s(S'terrain'
p3034
tp3035
I28
s(S'12'
p3036
tp3037
I2
s(S'toss'
p3038
tp3039
I31
s(S'grafitti'
p3040
tp3041
I2
s(S'collapsed'
p3042
tp3043
I1
s(S'swarm'
p3044
tp3045
I3
s(S'artist'
p3046
tp3047
I14
s(S'ware'
p3048
tp3049
I3
s(S'classmate'
p3050
tp3051
I1
s(S'religious'
p3052
tp3053
I8
s(S'archer'
p3054
tp3055
I1
s(S'wicker'
p3056
tp3057
I5
s(S'crazily'
p3058
tp3059
I1
s(S'chap'
p3060
tp3061
I4
s(S'hollywood'
p3062
tp3063
I2
s(S'prance'
p3064
tp3065
I5
s(S'santana'
p3066
tp3067
I1
s(S'utensil'
p3068
tp3069
I1
s(S'once'
p3070
tp3071
I2
s(S'inflatable'
p3072
tp3073
I57
s(S'buddy'
p3074
tp3075
I1
s(S'tonge'
p3076
tp3077
I1
s(S'communications'
p3078
tp3079
I1
s(S'capri'
p3080
tp3081
I4
s(S'oxford'
p3082
tp3083
I2
s(S'competition'
p3084
tp3085
I38
s(S'brindle'
p3086
tp3087
I2
s(S'shiner'
p3088
tp3089
I2
s(S'lakefront'
p3090
tp3091
I1
s(S'brandish'
p3092
tp3093
I1
s(S'fringe'
p3094
tp3095
I2
s(S'dandelion'
p3096
tp3097
I12
s(S'worm'
p3098
tp3099
I1
s(S'push'
p3100
tp3101
I108
s(S'fit'
p3102
tp3103
I2
s(S'doe'
p3104
tp3105
I1
s(S'security'
p3106
tp3107
I9
s(S'greenhouse'
p3108
tp3109
I6
s(S'read'
p3110
tp3111
I109
s(S'accident'
p3112
tp3113
I2
s(S'caravan'
p3114
tp3115
I2
s(S'lemon'
p3116
tp3117
I1
s(S'thought'
p3118
tp3119
I1
s(S'alongside'
p3120
tp3121
I28
s(S'serve'
p3122
tp3123
I8
s(S'retangular'
p3124
tp3125
I1
s(S'trump'
p3126
tp3127
I1
s(S'ring'
p3128
tp3129
I69
s(S'longeared'
p3130
tp3131
I1
s(S'wrestler'
p3132
tp3133
I46
s(S'repair'
p3134
tp3135
I1
s(S'under'
p3136
tp3137
I184
s(S'lacross'
p3138
tp3139
I1
s(S'smirk'
p3140
tp3141
I1
s(S'formally'
p3142
tp3143
I2
s(S'exposure'
p3144
tp3145
I1
s(S'smell'
p3146
tp3147
I6
s(S'stubbled'
p3148
tp3149
I1
s(S'redhead'
p3150
tp3151
I1
s(S'peacoat'
p3152
tp3153
I1
s(S'boundary'
p3154
tp3155
I3
s(S'boredom'
p3156
tp3157
I1
s(S'classroom'
p3158
tp3159
I1
s(S'index'
p3160
tp3161
I1
s(S'or'
p3162
tp3163
I65
s(S'blue-tinted'
p3164
tp3165
I1
s(S'puzzle'
p3166
tp3167
I1
s(S'rode'
p3168
tp3169
I1
s(S'bikini'
p3170
tp3171
I57
s(S'misses'
p3172
tp3173
I1
s(S'overnight'
p3174
tp3175
I1
s(S'paddock'
p3176
tp3177
I1
s(S'pf'
p3178
tp3179
I1
s(S'railroad'
p3180
tp3181
I10
s(S'apron'
p3182
tp3183
I17
s(S'stocking'
p3184
tp3185
I1
s(S'light'
p3186
tp3187
I157
s(S'assistance'
p3188
tp3189
I4
s(S'complete'
p3190
tp3191
I8
s(S'action'
p3192
tp3193
I18
s(S'shock'
p3194
tp3195
I2
s(S'rocket'
p3196
tp3197
I9
s(S'abandon'
p3198
tp3199
I4
s(S'sleeding'
p3200
tp3201
I1
s(S'skin'
p3202
tp3203
I3
s(S'paraglide'
p3204
tp3205
I1
s(S'naval'
p3206
tp3207
I1
s(S'dark-skinned'
p3208
tp3209
I7
s(S'necktie'
p3210
tp3211
I1
s(S'hay'
p3212
tp3213
I30
s(S'sandbox'
p3214
tp3215
I1
s(S'flight'
p3216
tp3217
I25
s(S'but'
p3218
tp3219
I19
s(S'robust'
p3220
tp3221
I1
s(S'silk'
p3222
tp3223
I2
s(S'chew'
p3224
tp3225
I71
s(S'polka-dot'
p3226
tp3227
I1
s(S'intense'
p3228
tp3229
I1
s(S'spiderman'
p3230
tp3231
I24
s(S'jaw'
p3232
tp3233
I1
s(S'wisconsin'
p3234
tp3235
I1
s(S'provocative'
p3236
tp3237
I1
s(S'enjoyable'
p3238
tp3239
I1
s(S'top-down'
p3240
tp3241
I1
s(S'damaged'
p3242
tp3243
I2
s(S'photograhi'
p3244
tp3245
I1
s(S'poodle'
p3246
tp3247
I42
s(S'department'
p3248
tp3249
I3
s(S'fencer'
p3250
tp3251
I6
s(S'bridal'
p3252
tp3253
I7
s(S'lined'
p3254
tp3255
I1
s(S'25'
p3256
tp3257
I3
s(S'gazebo'
p3258
tp3259
I2
s(S'loom'
p3260
tp3261
I2
s(S'she'
p3262
tp3263
I62
s(S'rise'
p3264
tp3265
I11
s(S'only'
p3266
tp3267
I21
s(S'brochure'
p3268
tp3269
I2
s(S'rip'
p3270
tp3271
I3
s(S'exit'
p3272
tp3273
I4
s(S'enforcment'
p3274
tp3275
I1
s(S'greenery'
p3276
tp3277
I5
s(S'halway'
p3278
tp3279
I1
s(S'social'
p3280
tp3281
I1
s(S'wallride'
p3282
tp3283
I1
s(S'tented'
p3284
tp3285
I2
s(S'double'
p3286
tp3287
I4
s(S'cream'
p3288
tp3289
I37
s(S'rollerskate'
p3290
tp3291
I10
s(S'astro'
p3292
tp3293
I1
s(S'gettnig'
p3294
tp3295
I1
s(S'shirted'
p3296
tp3297
I4
s(S'fellow'
p3298
tp3299
I10
s(S'sunlight'
p3300
tp3301
I10
s(S'fan'
p3302
tp3303
I20
s(S'lamb'
p3304
tp3305
I6
s(S'walled'
p3306
tp3307
I1
s(S'tanned'
p3308
tp3309
I2
s(S'in'
p3310
tp3311
I14085
s(S'clap'
p3312
tp3313
I9
s(S'scalling'
p3314
tp3315
I1
s(S'also'
p3316
tp3317
I17
s(S'tour'
p3318
tp3319
I2
s(S'comfortable'
p3320
tp3321
I1
s(S'skill'
p3322
tp3323
I3
s(S'beckon'
p3324
tp3325
I1
s(S'law'
p3326
tp3327
I2
s(S'other'
p3328
tp3329
I567
s(S'bits'
p3330
tp3331
I2
s(S'maple'
p3332
tp3333
I1
s(S'sailboat'
p3334
tp3335
I7
s(S'jubilant'
p3336
tp3337
I1
s(S'athlete'
p3338
tp3339
I18
s(S'decoration'
p3340
tp3341
I6
s(S'business'
p3342
tp3343
I9
s(S'upset'
p3344
tp3345
I3
s(S'scan'
p3346
tp3347
I1
s(S'strike'
p3348
tp3349
I11
s(S'stream'
p3350
tp3351
I74
s(S'mark'
p3352
tp3353
I17
s(S'swims'
p3354
tp3355
I1
s(S'fin'
p3356
tp3357
I1
s(S'kayaks'
p3358
tp3359
I2
s(S'christ'
p3360
tp3361
I1
s(S'recline'
p3362
tp3363
I4
s(S'cable'
p3364
tp3365
I4
s(S'foil'
p3366
tp3367
I1
s(S'similarly'
p3368
tp3369
I3
s(S'lucky'
p3370
tp3371
I2
s(S'play-fighting'
p3372
tp3373
I1
s(S'legged'
p3374
tp3375
I4
s(S'scowl'
p3376
tp3377
I2
s(S'decorative'
p3378
tp3379
I4
s(S'performs'
p3380
tp3381
I4
s(S'sightsee'
p3382
tp3383
I2
s(S'towards'
p3384
tp3385
I173
s(S'many'
p3386
tp3387
I135
s(S'tumbleweed'
p3388
tp3389
I2
s(S'lime'
p3390
tp3391
I3
s(S'serveral'
p3392
tp3393
I1
s(S'mogul'
p3394
tp3395
I1
s(S'light-up'
p3396
tp3397
I1
s(S'barber'
p3398
tp3399
I2
s(S'driveway'
p3400
tp3401
I11
s(S'sliiding'
p3402
tp3403
I1
s(S'lighter'
p3404
tp3405
I2
s(S'aisle'
p3406
tp3407
I3
s(S'communal'
p3408
tp3409
I1
s(S'ceramic'
p3410
tp3411
I1
s(S'doorway'
p3412
tp3413
I25
s(S'marker'
p3414
tp3415
I13
s(S'aerodynamic'
p3416
tp3417
I2
s(S'rosy'
p3418
tp3419
I1
s(S'prisoner'
p3420
tp3421
I3
s(S'head'
p3422
tp3423
I310
s(S'eyeglasses'
p3424
tp3425
I2
s(S'meadow'
p3426
tp3427
I11
s(S'pressure'
p3428
tp3429
I1
s(S'call'
p3430
tp3431
I7
s(S'advertisment'
p3432
tp3433
I1
s(S'hardhat'
p3434
tp3435
I10
s(S'sleep'
p3436
tp3437
I55
s(S'creative'
p3438
tp3439
I1
s(S'plan'
p3440
tp3441
I1
s(S'glittery'
p3442
tp3443
I2
s(S'huskies'
p3444
tp3445
I1
s(S'depict'
p3446
tp3447
I4
s(S'kick'
p3448
tp3449
I163
s(S'carreis'
p3450
tp3451
I1
s(S'stoop'
p3452
tp3453
I5
s(S'frost'
p3454
tp3455
I2
s(S'push-up'
p3456
tp3457
I1
s(S'mishap'
p3458
tp3459
I1
s(S'distance'
p3460
tp3461
I78
s(S'choice'
p3462
tp3463
I1
s(S'strainer'
p3464
tp3465
I1
s(S'motorist'
p3466
tp3467
I1
s(S'scar'
p3468
tp3469
I1
s(S'pretty'
p3470
tp3471
I4
s(S'clover'
p3472
tp3473
I4
s(S'pet'
p3474
tp3475
I33
s(S'together'
p3476
tp3477
I315
s(S'really'
p3478
tp3479
I5
s(S'angry'
p3480
tp3481
I1
s(S'propel'
p3482
tp3483
I3
s(S'diverse'
p3484
tp3485
I1
s(S'supplies'
p3486
tp3487
I3
s(S'seller'
p3488
tp3489
I1
s(S'midpitch'
p3490
tp3491
I1
s(S'legs'
p3492
tp3493
I1
s(S'smash'
p3494
tp3495
I1
s(S'fallen'
p3496
tp3497
I5
s(S'bunny'
p3498
tp3499
I12
s(S'clause'
p3500
tp3501
I3
s(S'end'
p3502
tp3503
I52
s(S'gutarist'
p3504
tp3505
I1
s(S'ipod'
p3506
tp3507
I3
s(S'seaguls'
p3508
tp3509
I1
s(S'everything'
p3510
tp3511
I1
s(S'locker'
p3512
tp3513
I7
s(S'contemporary'
p3514
tp3515
I1
s(S'golden'
p3516
tp3517
I88
s(S'mold'
p3518
tp3519
I1
s(S'program'
p3520
tp3521
I1
s(S'relaxes'
p3522
tp3523
I2
s(S'fashion'
p3524
tp3525
I3
s(S'warmly'
p3526
tp3527
I7
s(S'man'
p3528
tp3529
I6167
s(S'flotation'
p3530
tp3531
I1
s(S'jump'
p3532
tp3533
I2151
s(S'favorite'
p3534
tp3535
I2
s(S'observes'
p3536
tp3537
I3
s(S'tabby'
p3538
tp3539
I3
s(S'worn'
p3540
tp3541
I1
s(S'gothic'
p3542
tp3543
I2
s(S'not-so-crowded'
p3544
tp3545
I1
s(S'long-legged'
p3546
tp3547
I1
s(S'squat'
p3548
tp3549
I11
s(S'maker'
p3550
tp3551
I1
s(S'devil'
p3552
tp3553
I5
s(S'facefirst'
p3554
tp3555
I1
s(S'transit'
p3556
tp3557
I2
s(S'men'
p3558
tp3559
I70
s(S'cup'
p3560
tp3561
I51
s(S'pump'
p3562
tp3563
I8
s(S'tier'
p3564
tp3565
I1
s(S'hit'
p3566
tp3567
I120
s(S'roast'
p3568
tp3569
I1
s(S'kit'
p3570
tp3571
I1
s(S'newspaper'
p3572
tp3573
I32
s(S'hop'
p3574
tp3575
I7
s(S'do'
p3576
tp3577
I523
s(S'v'
tp3578
I2
s(S'bullfighting'
p3579
tp3580
I1
s(S'painter'
p3581
tp3582
I1
s(S'grouchy'
p3583
tp3584
I1
s(S'ground'
p3585
tp3586
I276
s(S'smu'
p3587
tp3588
I2
s(S'intervene'
p3589
tp3590
I1
s(S'actor'
p3591
tp3592
I1
s(S'covered'
p3593
tp3594
I11
s(S'histerically'
p3595
tp3596
I1
s(S'foyer'
p3597
tp3598
I1
s(S'pistol'
p3599
tp3600
I2
s(S'brightly-lit'
p3601
tp3602
I1
s(S'where'
p3603
tp3604
I32
s(S'flooded'
p3605
tp3606
I3
s(S'creature'
p3607
tp3608
I5
s(S'float'
p3609
tp3610
I65
s(S'jersy'
p3611
tp3612
I1
s(S'oregon'
p3613
tp3614
I2
s(S'surf'
p3615
tp3616
I157
s(S'mets'
p3617
tp3618
I4
s(S'canooer'
p3619
tp3620
I1
s(S'anti-tax'
p3621
tp3622
I1
s(S'backseat'
p3623
tp3624
I1
s(S'competiting'
p3625
tp3626
I1
s(S'disabled'
p3627
tp3628
I1
s(S'suburb'
p3629
tp3630
I1
s(S'stone-filled'
p3631
tp3632
I1
s(S'camel'
p3633
tp3634
I29
s(S'lion'
p3635
tp3636
I2
s(S'interview'
p3637
tp3638
I10
s(S'meditate'
p3639
tp3640
I1
s(S'parent'
p3641
tp3642
I11
s(S'fend'
p3643
tp3644
I1
s(S'forth'
p3645
tp3646
I1
s(S'tattered'
p3647
tp3648
I3
s(S'dancefloor'
p3649
tp3650
I1
s(S'orange-stained'
p3651
tp3652
I1
s(S'exotic'
p3653
tp3654
I1
s(S'ahead'
p3655
tp3656
I17
s(S'indescript'
p3657
tp3658
I2
s(S'backstand'
p3659
tp3660
I1
s(S'balck'
p3661
tp3662
I3
s(S'banner'
p3663
tp3664
I18
s(S'paperback'
p3665
tp3666
I3
s(S'perhaps'
p3667
tp3668
I2
s(S'bass'
p3669
tp3670
I2
s(S'shower'
p3671
tp3672
I19
s(S'groom'
p3673
tp3674
I14
s(S'lean'
p3675
tp3676
I138
s(S'wipeout'
p3677
tp3678
I1
s(S'teamates'
p3679
tp3680
I1
s(S'tiled'
p3681
tp3682
I3
s(S'harnessed'
p3683
tp3684
I2
s(S'dreeds'
p3685
tp3686
I1
s(S'monument'
p3687
tp3688
I14
s(S'number'
p3689
tp3690
I88
s(S'wood'
p3691
tp3692
I205
s(S'compete'
p3693
tp3694
I42
s(S'knoll'
p3695
tp3696
I1
s(S'anticipate'
p3697
tp3698
I2
s(S'recreational'
p3699
tp3700
I2
s(S'shaved'
p3701
tp3702
I8
s(S'ankle'
p3703
tp3704
I5
s(S'plane'
p3705
tp3706
I16
s(S'turf'
p3707
tp3708
I1
s(S'fight'
p3709
tp3710
I159
s(S'another'
p3711
tp3712
I713
s(S'local'
p3713
tp3714
I2
s(S'gnaw'
p3715
tp3716
I5
s(S'blurry'
p3717
tp3718
I20
s(S'auditorium'
p3719
tp3720
I4
s(S'piggyback'
p3721
tp3722
I4
s(S'outstretched'
p3723
tp3724
I30
s(S'guidewire'
p3725
tp3726
I1
s(S'crown'
p3727
tp3728
I7
s(S'wii'
p3729
tp3730
I1
s(S'agains'
p3731
tp3732
I1
s(S'arch'
p3733
tp3734
I5
s(S'finish'
p3735
tp3736
I8
s(S'embroider'
p3737
tp3738
I1
s(S'upper-class'
p3739
tp3740
I1
s(S'grey-blue'
p3741
tp3742
I1
s(S'secured'
p3743
tp3744
I1
s(S'wilderness'
p3745
tp3746
I5
s(S'father'
p3747
tp3748
I16
s(S'joust'
p3749
tp3750
I3
s(S'reed'
p3751
tp3752
I2
s(S'acrobat'
p3753
tp3754
I1
s(S'crudely'
p3755
tp3756
I1
s(S'pout'
p3757
tp3758
I1
s(S'background'
p3759
tp3760
I437
s(S'treated'
p3761
tp3762
I1
s(S'fake'
p3763
tp3764
I17
s(S'leashed'
p3765
tp3766
I5
s(S'discovery'
p3767
tp3768
I1
s(S'geisha'
p3769
tp3770
I1
s(S'shaky'
p3771
tp3772
I1
s(S'range'
p3773
tp3774
I23
s(S'comforter'
p3775
tp3776
I1
s(S'bear'
p3777
tp3778
I27
s(S'blaze'
p3779
tp3780
I2
s(S'locate'
p3781
tp3782
I7
s(S'hawaiin'
p3783
tp3784
I1
s(S'doorstep'
p3785
tp3786
I1
s(S'gondola'
p3787
tp3788
I2
s(S'long-bearded'
p3789
tp3790
I1
s(S'vapour'
p3791
tp3792
I1
s(S'hillside'
p3793
tp3794
I20
s(S'guitarist'
p3795
tp3796
I6
s(S'contemplate'
p3797
tp3798
I2
s(S'bucket'
p3799
tp3800
I48
s(S'lake'
p3801
tp3802
I233
s(S'seabird'
p3803
tp3804
I1
s(S'counry'
p3805
tp3806
I1
s(S'matchin'
p3807
tp3808
I1
s(S'speedo'
p3809
tp3810
I4
s(S'breastfeed'
p3811
tp3812
I1
s(S'kiss-costumed'
p3813
tp3814
I2
s(S'trimmed'
p3815
tp3816
I1
s(S'dollar'
p3817
tp3818
I6
s(S'judge'
p3819
tp3820
I4
s(S'gesticulate'
p3821
tp3822
I1
s(S'wrestilng'
p3823
tp3824
I1
s(S'staue'
p3825
tp3826
I1
s(S'load'
p3827
tp3828
I4
s(S'herself'
p3829
tp3830
I16
s(S'pinata'
p3831
tp3832
I9
s(S'medium'
p3833
tp3834
I22
s(S'mosaic'
p3835
tp3836
I1
s(S'louis'
p3837
tp3838
I4
s(S'top'
p3839
tp3840
I391
s(S'earring'
p3841
tp3842
I12
s(S'ladle'
p3843
tp3844
I4
s(S'light-colored'
p3845
tp3846
I4
s(S'refreshment'
p3847
tp3848
I2
s(S'lecture'
p3849
tp3850
I2
s(S'amused'
p3851
tp3852
I1
s(S'use'
p3853
tp3854
I83
s(S'food'
p3855
tp3856
I68
s(S'rust'
p3857
tp3858
I1
s(S'alien'
p3859
tp3860
I1
s(S'tournament'
p3861
tp3862
I5
s(S'pyramid-shaped'
p3863
tp3864
I2
s(S'belays'
p3865
tp3866
I1
s(S'convenience'
p3867
tp3868
I1
s(S'racket'
p3869
tp3870
I40
s(S'station'
p3871
tp3872
I26
s(S'oppose'
p3873
tp3874
I34
s(S'herb'
p3875
tp3876
I1
s(S'dress'
p3877
tp3878
I732
s(S'blindfold'
p3879
tp3880
I9
s(S'alertly'
p3881
tp3882
I1
s(S'glow'
p3883
tp3884
I3
s(S'nude'
p3885
tp3886
I3
s(S'orangesunset'
p3887
tp3888
I1
s(S'thre'
p3889
tp3890
I1
s(S'refuse'
p3891
tp3892
I2
s(S'inline'
p3893
tp3894
I15
s(S'curb'
p3895
tp3896
I21
s(S'yorkshire'
p3897
tp3898
I2
s(S'diaper'
p3899
tp3900
I6
s(S'fiveteen'
p3901
tp3902
I1
s(S'ethnic'
p3903
tp3904
I2
s(S'celebratory'
p3905
tp3906
I1
s(S'dessert'
p3907
tp3908
I1
s(S'overhang'
p3909
tp3910
I10
s(S'story'
p3911
tp3912
I2
s(S'swim'
p3913
tp3914
I491
s(S'yuong'
p3915
tp3916
I1
s(S'icy'
p3917
tp3918
I13
s(S'continue'
p3919
tp3920
I2
s(S'logo'
p3921
tp3922
I11
s(S'stay'
p3923
tp3924
I2
s(S'which'
p3925
tp3926
I38
s(S'fantastic'
p3927
tp3928
I1
s(S'check'
p3929
tp3930
I19
s(S'lasso'
p3931
tp3932
I7
s(S'hurdle-jumper'
p3933
tp3934
I1
s(S'fold'
p3935
tp3936
I17
s(S'firefighter'
p3937
tp3938
I10
s(S'congregation'
p3939
tp3940
I1
s(S'thrash'
p3941
tp3942
I1
s(S'8'
tp3943
I13
s(S'mime'
p3944
tp3945
I3
s(S'overturned'
p3946
tp3947
I3
s(S'i'
tp3948
I12
s(S'soup'
p3949
tp3950
I2
s(S'dummy'
p3951
tp3952
I4
s(S'bedroom'
p3953
tp3954
I5
s(S'bigg'
p3955
tp3956
I1
s(S'shelter'
p3957
tp3958
I3
s(S'jungle-gym'
p3959
tp3960
I1
s(S'wildebeast'
p3961
tp3962
I1
s(S'peach'
p3963
tp3964
I7
s(S'platform'
p3965
tp3966
I36
s(S'downriver'
p3967
tp3968
I1
s(S'trade'
p3969
tp3970
I3
s(S'low'
p3971
tp3972
I54
s(S'pokemon'
p3973
tp3974
I2
s(S'highchair'
p3975
tp3976
I1
s(S'spew'
p3977
tp3978
I1
s(S'childern'
p3979
tp3980
I1
s(S'dandylions'
p3981
tp3982
I1
s(S'busstop'
p3983
tp3984
I1
s(S'rifle'
p3985
tp3986
I3
s(S'well-dressed'
p3987
tp3988
I2
s(S'backhand'
p3989
tp3990
I2
s(S'stripy'
p3991
tp3992
I4
s(S'mustache'
p3993
tp3994
I7
s(S'fluffy'
p3995
tp3996
I47
s(S'droop'
p3997
tp3998
I1
s(S'whisper'
p3999
tp4000
I3
s(S'profession'
p4001
tp4002
I1
s(S'sheltie'
p4003
tp4004
I2
s(S'pooh'
p4005
tp4006
I2
s(S'leaned'
p4007
tp4008
I1
s(S'mardi'
p4009
tp4010
I2
s(S'urge'
p4011
tp4012
I1
s(S'receiver'
p4013
tp4014
I1
s(S'spandex'
p4015
tp4016
I2
s(S'try'
p4017
tp4018
I223
s(S'pin'
p4019
tp4020
I5
s(S'individual'
p4021
tp4022
I12
s(S'gate'
p4023
tp4024
I26
s(S'watermelon'
p4025
tp4026
I6
s(S'keep'
p4027
tp4028
I11
s(S'seagull'
p4029
tp4030
I11
s(S'architectural'
p4031
tp4032
I2
s(S'good'
p4033
tp4034
I6
s(S'skip'
p4035
tp4036
I9
s(S'caribbean'
p4037
tp4038
I1
s(S'like'
p4039
tp4040
I64
s(S'torch'
p4041
tp4042
I1
s(S'truck'
p4043
tp4044
I69
s(S'golden-brown'
p4045
tp4046
I1
s(S'summer'
p4047
tp4048
I10
s(S'waiter'
p4049
tp4050
I5
s(S'sun-setting'
p4051
tp4052
I1
s(S'vintage'
p4053
tp4054
I1
s(S'mount'
p4055
tp4056
I2
s(S'crevice'
p4057
tp4058
I2
s(S'mask'
p4059
tp4060
I72
s(S'handrail'
p4061
tp4062
I27
s(S'bruised'
p4063
tp4064
I1
s(S'golden-colored'
p4065
tp4066
I1
s(S'noy'
p4067
tp4068
I1
s(S'dry'
p4069
tp4070
I70
s(S'crafted'
p4071
tp4072
I1
s(S'lie'
p4073
tp4074
I101
s(S'easter'
p4075
tp4076
I6
s(S'licks'
p4077
tp4078
I1
s(S'hockey'
p4079
tp4080
I144
s(S'polka-dotted'
p4081
tp4082
I2
s(S'proximity'
p4083
tp4084
I1
s(S'cappedhills'
p4085
tp4086
I1
s(S'chidl'
p4087
tp4088
I1
s(S'tartan'
p4089
tp4090
I2
s(S'inscribe'
p4091
tp4092
I1
s(S'secluded'
p4093
tp4094
I1
s(S'medal'
p4095
tp4096
I7
s(S'lose'
p4097
tp4098
I2
s(S'alligator'
p4099
tp4100
I4
s(S'fronr'
p4101
tp4102
I1
s(S'courtyard'
p4103
tp4104
I18
s(S'exchange'
p4105
tp4106
I1
s(S'black-clad'
p4107
tp4108
I1
s(S'artificial'
p4109
tp4110
I8
s(S'drool'
p4111
tp4112
I2
s(S'domed'
p4113
tp4114
I1
s(S'decide'
p4115
tp4116
I2
s(S'cock'
p4117
tp4118
I1
s(S'thermos'
p4119
tp4120
I1
s(S'amusement'
p4121
tp4122
I33
s(S'hoodoo'
p4123
tp4124
I1
s(S'shutter'
p4125
tp4126
I2
s(S'queen'
p4127
tp4128
I2
s(S"'"
tp4129
I19
s(S'firetruck'
p4130
tp4131
I6
s(S'somehow'
p4132
tp4133
I1
s(S'intend'
p4134
tp4135
I1
s(S'jostle'
p4136
tp4137
I1
s(S'article'
p4138
tp4139
I1
s(S'silly'
p4140
tp4141
I12
s(S'groomsman'
p4142
tp4143
I5
s(S'profusely'
p4144
tp4145
I1
s(S'groupe'
p4146
tp4147
I1
s(S'waterskis'
p4148
tp4149
I3
s(S'german-shepherd'
p4150
tp4151
I1
s(S'parallel'
p4152
tp4153
I8
s(S'nicely'
p4154
tp4155
I2
s(S'ribbon'
p4156
tp4157
I28
s(S'barefoot'
p4158
tp4159
I36
s(S'coral'
p4160
tp4161
I1
s(S'feet'
p4162
tp4163
I64
s(S'daschunds'
p4164
tp4165
I1
s(S'neclace'
p4166
tp4167
I1
s(S'steamboat'
p4168
tp4169
I1
s(S'lift'
p4170
tp4171
I34
s(S'become'
p4172
tp4173
I5
s(S'cliffside'
p4174
tp4175
I3
s(S'grond'
p4176
tp4177
I1
s(S'fishemen'
p4178
tp4179
I1
s(S'pro'
p4180
tp4181
I2
s(S'grandmother'
p4182
tp4183
I1
s(S'unoccupied'
p4184
tp4185
I1
s(S'as'
p4186
tp4187
I625
s(S'hula-hoop'
p4188
tp4189
I7
s(S'diploma'
p4190
tp4191
I1
s(S'floater'
p4192
tp4193
I1
s(S'cling'
p4194
tp4195
I9
s(S'parody'
p4196
tp4197
I1
s(S'teach'
p4198
tp4199
I13
s(S'can'
p4200
tp4201
I42
s(S'axe'
p4202
tp4203
I2
s(S'armor'
p4204
tp4205
I1
s(S'structure'
p4206
tp4207
I65
s(S'clutch'
p4208
tp4209
I5
s(S'muddy'
p4210
tp4211
I67
s(S'electric'
p4212
tp4213
I7
s(S'judgement'
p4214
tp4215
I1
s(S'33'
p4216
tp4217
I1
s(S'interlock'
p4218
tp4219
I1
s(S'boot'
p4220
tp4221
I54
s(S'husky-like'
p4222
tp4223
I1
s(S'upraise'
p4224
tp4225
I1
s(S'crucifixion'
p4226
tp4227
I1
s(S'directs'
p4228
tp4229
I2
s(S':'
tp4230
I2
s(S'tight'
p4231
tp4232
I10
s(S'slightly'
p4233
tp4234
I10
s(S'guess'
p4235
tp4236
I1
s(S'pathway'
p4237
tp4238
I10
s(S'dog-shirt'
p4239
tp4240
I1
s(S'shaggy'
p4241
tp4242
I25
s(S'below'
p4243
tp4244
I45
s(S'potato'
p4245
tp4246
I6
s(S'slide'
p4247
tp4248
I402
s(S'patrol'
p4249
tp4250
I1
s(S'cape'
p4251
tp4252
I17
s(S'staff'
p4253
tp4254
I2
s(S'versus'
p4255
tp4256
I1
s(S'jockeys'
p4257
tp4258
I2
s(S'cello'
p4259
tp4260
I1
s(S'occupied'
p4261
tp4262
I2
s(S'hind'
p4263
tp4264
I44
s(S'newlywed'
p4265
tp4266
I2
s(S'fall'
p4267
tp4268
I168
s(S'starlet'
p4269
tp4270
I1
s(S'doge'
p4271
tp4272
I1
s(S'jumpsuites'
p4273
tp4274
I1
s(S'recieving'
p4275
tp4276
I2
s(S'professional'
p4277
tp4278
I27
s(S'caution'
p4279
tp4280
I6
s(S'electronics'
p4281
tp4282
I3
s(S'stick'
p4283
tp4284
I473
s(S'quarter'
p4285
tp4286
I4
s(S'sprawl'
p4287
tp4288
I4
s(S'shimp'
p4289
tp4290
I1
s(S'shorthair'
p4291
tp4292
I1
s(S'snarly'
p4293
tp4294
I1
s(S'craw'
p4295
tp4296
I1
s(S'ponytail'
p4297
tp4298
I15
s(S'incoming'
p4299
tp4300
I5
s(S'darker'
p4301
tp4302
I2
s(S'17'
p4303
tp4304
I1
s(S'daredevil'
p4305
tp4306
I1
s(S'parachutist'
p4307
tp4308
I1
s(S'footprint'
p4309
tp4310
I1
s(S'disgusted'
p4311
tp4312
I1
s(S'corridor'
p4313
tp4314
I4
s(S'encircle'
p4315
tp4316
I1
s(S'justice'
p4317
tp4318
I1
s(S'97'
p4319
tp4320
I1
s(S'navel'
p4321
tp4322
I1
s(S'carpet'
p4323
tp4324
I46
s(S'anatomy'
p4325
tp4326
I1
s(S'seaside'
p4327
tp4328
I1
s(S'suspension'
p4329
tp4330
I1
s(S'visit'
p4331
tp4332
I2
s(S'separate'
p4333
tp4334
I1
s(S'caterpillar'
p4335
tp4336
I1
s(S'badminton'
p4337
tp4338
I9
s(S'styrofoam'
p4339
tp4340
I1
s(S'fenced-in'
p4341
tp4342
I4
s(S'farm'
p4343
tp4344
I12
s(S'alike'
p4345
tp4346
I6
s(S'littered'
p4347
tp4348
I1
s(S'incline'
p4349
tp4350
I5
s(S'admire'
p4351
tp4352
I10
s(S'cougar'
p4353
tp4354
I1
s(S'chopstick'
p4355
tp4356
I9
s(S'panel'
p4357
tp4358
I6
s(S'monitor'
p4359
tp4360
I7
s(S'inertia'
p4361
tp4362
I1
s(S'dead'
p4363
tp4364
I22
s(S'para'
p4365
tp4366
I2
s(S'deck'
p4367
tp4368
I30
s(S'modification'
p4369
tp4370
I1
s(S'slender'
p4371
tp4372
I1
s(S'aid'
p4373
tp4374
I5
s(S'hurdle'
p4375
tp4376
I81
s(S'rebound'
p4377
tp4378
I1
s(S'me'
p4379
tp4380
I1
s(S'meander'
p4381
tp4382
I2
s(S'spark'
p4383
tp4384
I4
s(S'singer'
p4385
tp4386
I8
s(S'raise'
p4387
tp4388
I65
s(S'note'
p4389
tp4390
I5
s(S'passenager'
p4391
tp4392
I1
s(S'window'
p4393
tp4394
I120
s(S'checked'
p4395
tp4396
I2
s(S'earflap'
p4397
tp4398
I1
s(S'beack'
p4399
tp4400
I1
s(S'gush'
p4401
tp4402
I1
s(S'lot'
p4403
tp4404
I100
s(S'fairly'
p4405
tp4406
I1
s(S'tutu'
p4407
tp4408
I21
s(S'dunk'
p4409
tp4410
I9
s(S'sleeveless'
p4411
tp4412
I6
s(S'mother'
p4413
tp4414
I31
s(S'saturate'
p4415
tp4416
I1
s(S'hairstyle'
p4417
tp4418
I3
s(S'hard-hats'
p4419
tp4420
I1
s(S'patriotic'
p4421
tp4422
I1
s(S'foreign'
p4423
tp4424
I1
s(S'gigantic'
p4425
tp4426
I1
s(S'denim'
p4427
tp4428
I23
s(S'holiday'
p4429
tp4430
I1
s(S'affectionately'
p4431
tp4432
I2
s(S'inground'
p4433
tp4434
I3
s(S'vision'
p4435
tp4436
I1
s(S'chop'
p4437
tp4438
I3
s(S'suggestive'
p4439
tp4440
I1
s(S'bound'
p4441
tp4442
I26
s(S'soggy'
p4443
tp4444
I1
s(S'kneepads'
p4445
tp4446
I1
s(S'streched'
p4447
tp4448
I1
s(S'promotional'
p4449
tp4450
I1
s(S'chicken'
p4451
tp4452
I12
s(S'spouse'
p4453
tp4454
I1
s(S'arrow'
p4455
tp4456
I4
s(S'begin'
p4457
tp4458
I25
s(S'footballer'
p4459
tp4460
I14
s(S'celebration'
p4461
tp4462
I2
s(S'inside'
p4463
tp4464
I139
s(S'wiener'
p4465
tp4466
I2
s(S'muxzzled'
p4467
tp4468
I1
s(S'male'
p4469
tp4470
I93
s(S'trot'
p4471
tp4472
I18
s(S'helmet'
p4473
tp4474
I322
s(S'onstage'
p4475
tp4476
I21
s(S'lantern'
p4477
tp4478
I1
s(S'get'
p4479
tp4480
I255
s(S'upside-down'
p4481
tp4482
I12
s(S'who'
p4483
tp4484
I162
s(S'army'
p4485
tp4486
I10
s(S'white-bearded'
p4487
tp4488
I2
s(S'salvar'
p4489
tp4490
I2
s(S'deposit'
p4491
tp4492
I1
s(S'windshield'
p4493
tp4494
I1
s(S'steeple'
p4495
tp4496
I1
s(S'rim'
p4497
tp4498
I1
s(S'festival'
p4499
tp4500
I9
s(S'merchandise'
p4501
tp4502
I3
s(S'fribee'
p4503
tp4504
I1
s(S'bicycle'
p4505
tp4506
I339
s(S'balloon'
p4507
tp4508
I55
s(S'lawnchair'
p4509
tp4510
I1
s(S'determined'
p4511
tp4512
I1
s(S'shopper'
p4513
tp4514
I2
s(S'jar'
p4515
tp4516
I8
s(S'dirt'
p4517
tp4518
I400
s(S'aluminum'
p4519
tp4520
I1
s(S'oddly'
p4521
tp4522
I1
s(S'massive'
p4523
tp4524
I4
s(S'athelete'
p4525
tp4526
I1
s(S'excited'
p4527
tp4528
I2
s(S'gondolier'
p4529
tp4530
I1
s(S'rapidly'
p4531
tp4532
I1
s(S'furry'
p4533
tp4534
I45
s(S'sippy'
p4535
tp4536
I3
s(S'covering'
p4537
tp4538
I3
s(S'length'
p4539
tp4540
I2
s(S'tee'
p4541
tp4542
I6
s(S'distort'
p4543
tp4544
I1
s(S'climing'
p4545
tp4546
I1
s(S'miami'
p4547
tp4548
I18
s(S'two-piece'
p4549
tp4550
I2
s(S"'s"
p4551
tp4552
I288
s(S'parade'
p4553
tp4554
I58
s(S'soaked'
p4555
tp4556
I2
s(S'abarrotes'
p4557
tp4558
I1
s(S'examine'
p4559
tp4560
I10
s(S'hi'
p4561
tp4562
I3
s(S'rider'
p4563
tp4564
I170
s(S'kill'
p4565
tp4566
I1
s(S'blood'
p4567
tp4568
I3
s(S'wan'
p4569
tp4570
I1
s(S'powerboat'
p4571
tp4572
I1
s(S'spotlight'
p4573
tp4574
I4
s(S'fire-dancer'
p4575
tp4576
I1
s(S'is'
p4577
tp4578
I16
s(S'weimaraner'
p4579
tp4580
I2
s(S'gold-colored'
p4581
tp4582
I1
s(S'elderly'
p4583
tp4584
I69
s(S'table'
p4585
tp4586
I185
s(S'wig'
p4587
tp4588
I11
s(S'with'
p4589
tp4590
I5763
s(S'off-camera'
p4591
tp4592
I7
s(S'headdress'
p4593
tp4594
I9
s(S'tights'
p4595
tp4596
I9
s(S'british'
p4597
tp4598
I3
s(S'plling'
p4599
tp4600
I1
s(S'elder'
p4601
tp4602
I4
s(S'windowed'
p4603
tp4604
I1
s(S'itself'
p4605
tp4606
I17
s(S'piste'
p4607
tp4608
I1
s(S'goth'
p4609
tp4610
I1
s(S'casterol'
p4611
tp4612
I1
s(S'album'
p4613
tp4614
I2
s(S'flail'
p4615
tp4616
I2
s(S'mirror'
p4617
tp4618
I13
s(S'unusual'
p4619
tp4620
I5
s(S'snowflake'
p4621
tp4622
I1
s(S'heather'
p4623
tp4624
I1
s(S'kangaroo'
p4625
tp4626
I1
s(S'shirtness'
p4627
tp4628
I1
s(S'mud'
p4629
tp4630
I90
s(S'pillowcase'
p4631
tp4632
I1
s(S'flips'
p4633
tp4634
I2
s(S'greets'
p4635
tp4636
I1
s(S'patiently'
p4637
tp4638
I2
s(S'regularly'
p4639
tp4640
I1
s(S'ash'
p4641
tp4642
I1
s(S'cam'
p4643
tp4644
I3
s(S'wheeled'
p4645
tp4646
I9
s(S'recliner'
p4647
tp4648
I1
s(S'door'
p4649
tp4650
I56
s(S'sponge'
p4651
tp4652
I5
s(S'mouthpiece'
p4653
tp4654
I1
s(S'meal'
p4655
tp4656
I10
s(S'reddish-brown'
p4657
tp4658
I1
s(S'blurred'
p4659
tp4660
I7
s(S'coordinator'
p4661
tp4662
I1
s(S'thick'
p4663
tp4664
I6
s(S'school'
p4665
tp4666
I32
s(S'hardwood'
p4667
tp4668
I8
s(S'cannon'
p4669
tp4670
I4
s(S'skyward'
p4671
tp4672
I2
s(S'fedora'
p4673
tp4674
I1
s(S'environment'
p4675
tp4676
I2
s(S'geese'
p4677
tp4678
I16
s(S'autumnal'
p4679
tp4680
I1
s(S'fortune'
p4681
tp4682
I1
s(S'heavy'
p4683
tp4684
I17
s(S'then'
p4685
tp4686
I1
s(S'offstage'
p4687
tp4688
I2
s(S'coat'
p4689
tp4690
I230
s(S'sun-shaped'
p4691
tp4692
I1
s(S'parasails'
p4693
tp4694
I2
s(S'binoculars'
p4695
tp4696
I5
s(S'hotrod'
p4697
tp4698
I1
s(S'payphone'
p4699
tp4700
I1
s(S'wrist'
p4701
tp4702
I4
s(S'windsurfer'
p4703
tp4704
I5
s(S'senior'
p4705
tp4706
I2
s(S'toast'
p4707
tp4708
I1
s(S'seperate'
p4709
tp4710
I1
s(S'series'
p4711
tp4712
I6
s(S'from'
p4713
tp4714
I700
s(S'iove'
p4715
tp4716
I1
s(S'flirt'
p4717
tp4718
I1
s(S'soak'
p4719
tp4720
I16
s(S'dome'
p4721
tp4722
I3
s(S'llama'
p4723
tp4724
I3
s(S'rotweiler'
p4725
tp4726
I2
s(S'fatigues'
p4727
tp4728
I2
s(S'throw'
p4729
tp4730
I198
s(S'moustache'
p4731
tp4732
I6
s(S'hula'
p4733
tp4734
I32
s(S'conifer'
p4735
tp4736
I1
s(S'manual'
p4737
tp4738
I1
s(S'haystack'
p4739
tp4740
I3
s(S'aquarium'
p4741
tp4742
I3
s(S'steel'
p4743
tp4744
I4
s(S'chat'
p4745
tp4746
I11
s(S'solitary'
p4747
tp4748
I2
s(S'celtic'
p4749
tp4750
I1
s(S'bushel'
p4751
tp4752
I1
s(S'word'
p4753
tp4754
I1
s(S'beside'
p4755
tp4756
I172
s(S'continues'
p4757
tp4758
I1
s(S'theme'
p4759
tp4760
I3
s(S'woody'
p4761
tp4762
I1
s(S'fiery'
p4763
tp4764
I2
s(S'shop'
p4765
tp4766
I109
s(S'poncho'
p4767
tp4768
I2
s(S'bronze'
p4769
tp4770
I1
s(S'facepaint'
p4771
tp4772
I4
s(S'constructed'
p4773
tp4774
I1
s(S'll'
p4775
tp4776
I1
s(S't-shirt'
p4777
tp4778
I133
s(S'vacant'
p4779
tp4780
I1
s(S'handkerchief'
p4781
tp4782
I1
s(S'egytian-like'
p4783
tp4784
I1
s(S'two-tone'
p4785
tp4786
I1
s(S'persues'
p4787
tp4788
I1
s(S'bench'
p4789
tp4790
I308
s(S'intensely'
p4791
tp4792
I1
s(S'crosswalk'
p4793
tp4794
I18
s(S'preserves'
p4795
tp4796
I1
s(S'-ependent'
p4797
tp4798
I1
s(S'kite'
p4799
tp4800
I32
s(S'intently'
p4801
tp4802
I4
s(S'rocky'
p4803
tp4804
I188
s(S'here'
p4805
tp4806
I1
s(S'swing-type'
p4807
tp4808
I1
s(S'totter'
p4809
tp4810
I2
s(S'hawk'
p4811
tp4812
I1
s(S'rottweiler'
p4813
tp4814
I4
s(S'bearded'
p4815
tp4816
I36
s(S'hole'
p4817
tp4818
I38
s(S'red-carpeted'
p4819
tp4820
I1
s(S'retriever'
p4821
tp4822
I36
s(S'wet'
p4823
tp4824
I135
s(S'spaniel'
p4825
tp4826
I4
s(S'cover'
p4827
tp4828
I266
s(S'lobster'
p4829
tp4830
I3
s(S'blower'
p4831
tp4832
I2
s(S'orangish'
p4833
tp4834
I1
s(S'know'
p4835
tp4836
I2
s(S'packer'
p4837
tp4838
I2
s(S'non-working'
p4839
tp4840
I1
s(S'runner'
p4841
tp4842
I41
s(S'over'
p4843
tp4844
I1062
s(S'sweats'
p4845
tp4846
I2
s(S'cigar'
p4847
tp4848
I3
s(S'jumpropes'
p4849
tp4850
I1
s(S'marina'
p4851
tp4852
I3
s(S'obscene'
p4853
tp4854
I1
s(S'partner'
p4855
tp4856
I2
s(S'smilely'
p4857
tp4858
I1
s(S'bmx'
p4859
tp4860
I50
s(S'rag'
p4861
tp4862
I5
s(S'sure'
p4863
tp4864
I1
s(S'shirt'
p4865
tp4866
I1464
s(S'cosplayer'
p4867
tp4868
I1
s(S'socialize'
p4869
tp4870
I4
s(S'pedestrian'
p4871
tp4872
I13
s(S'cemetery'
p4873
tp4874
I1
s(S'scientist'
p4875
tp4876
I1
s(S'tongue'
p4877
tp4878
I99
s(S'cushion'
p4879
tp4880
I8
s(S'phillie'
p4881
tp4882
I1
s(S'plaid'
p4883
tp4884
I41
s(S'go-kart'
p4885
tp4886
I3
s(S'camper'
p4887
tp4888
I2
s(S'east'
p4889
tp4890
I1
s(S'shrine'
p4891
tp4892
I3
s(S'key'
p4893
tp4894
I1
s(S'impersonator'
p4895
tp4896
I2
s(S'attire'
p4897
tp4898
I15
s(S'outdoor'
p4899
tp4900
I87
s(S'sprinking'
p4901
tp4902
I1
s(S'throught'
p4903
tp4904
I2
s(S'down'
p4905
tp4906
I1365
s(S'headlight'
p4907
tp4908
I4
s(S'curious'
p4909
tp4910
I4
s(S'aloft'
p4911
tp4912
I1
s(S'chinatown'
p4913
tp4914
I1
s(S'dyed'
p4915
tp4916
I1
s(S'groceries'
p4917
tp4918
I3
s(S'printed'
p4919
tp4920
I2
s(S'argue'
p4921
tp4922
I2
s(S'innertube'
p4923
tp4924
I16
s(S'gallopsing'
p4925
tp4926
I1
s(S'emit'
p4927
tp4928
I2
s(S'surprised'
p4929
tp4930
I2
s(S'21'
p4931
tp4932
I2
s(S'current'
p4933
tp4934
I6
s(S'romp'
p4935
tp4936
I7
s(S'merry-go-round'
p4937
tp4938
I13
s(S'lassie'
p4939
tp4940
I3
s(S'report'
p4941
tp4942
I1
s(S'pad'
p4943
tp4944
I16
s(S'nametags'
p4945
tp4946
I1
s(S'corrugated'
p4947
tp4948
I1
s(S'battons'
p4949
tp4950
I1
s(S'wintertime'
p4951
tp4952
I1
s(S'mcdonald'
p4953
tp4954
I1
s(S'sveral'
p4955
tp4956
I1
s(S'very'
p4957
tp4958
I131
s(S'bull-branded'
p4959
tp4960
I1
s(S'curvy'
p4961
tp4962
I4
s(S'sushi'
p4963
tp4964
I1
s(S'audience'
p4965
tp4966
I26
s(S'associated'
p4967
tp4968
I1
s(S'build'
p4969
tp4970
I4
s(S'ankle-high'
p4971
tp4972
I1
s(S'pit'
p4973
tp4974
I15
s(S'thw'
p4975
tp4976
I1
s(S'movie'
p4977
tp4978
I7
s(S'boarder'
p4979
tp4980
I4
s(S'knitted'
p4981
tp4982
I1
s(S'sailor'
p4983
tp4984
I4
s(S'u'
tp4985
I1
s(S'button-up'
p4986
tp4987
I1
s(S'pour'
p4988
tp4989
I24
s(S'perfoms'
p4990
tp4991
I1
s(S'squirt'
p4992
tp4993
I23
s(S'toboggan'
p4994
tp4995
I3
s(S'paragliding'
p4996
tp4997
I1
s(S'type'
p4998
tp4999
I17
s(S'dappled'
p5000
tp5001
I2
s(S'camcorder'
p5002
tp5003
I4
s(S'humorous'
p5004
tp5005
I1
s(S'fishscales'
p5006
tp5007
I1
s(S'better'
p5008
tp5009
I2
s(S'skate'
p5010
tp5011
I134
s(S'bean'
p5012
tp5013
I1
s(S'overgrown'
p5014
tp5015
I2
s(S'dreary'
p5016
tp5017
I1
s(S'surfboarder'
p5018
tp5019
I4
s(S'ditch'
p5020
tp5021
I8
s(S'pup'
p5022
tp5023
I2
s(S'quietly'
p5024
tp5025
I2
s(S'tubular'
p5026
tp5027
I2
s(S'reclines'
p5028
tp5029
I1
s(S'gorgeous'
p5030
tp5031
I1
s(S'drop'
p5032
tp5033
I12
s(S'suite'
p5034
tp5035
I1
s(S'seater'
p5036
tp5037
I1
s(S'discuss'
p5038
tp5039
I1
s(S'sundown'
p5040
tp5041
I1
s(S'flashlight'
p5042
tp5043
I1
s(S'purchase'
p5044
tp5045
I4
s(S'steal'
p5046
tp5047
I1
s(S'what'
p5048
tp5049
I15
s(S'dragster'
p5050
tp5051
I4
s(S'drumset'
p5052
tp5053
I1
s(S'vendor'
p5054
tp5055
I12
s(S'award'
p5056
tp5057
I7
s(S"'n"
p5058
tp5059
I2
s(S'arcade'
p5060
tp5061
I15
s(S'passin'
p5062
tp5063
I1
s(S'someones'
p5064
tp5065
I1
s(S'them'
p5066
tp5067
I191
s(S'rose'
p5068
tp5069
I2
s(S'railing'
p5070
tp5071
I100
s(S'cattail'
p5072
tp5073
I2
s(S'playful'
p5074
tp5075
I30
s(S'boogie'
p5076
tp5077
I14
s(S'ion'
p5078
tp5079
I1
s(S'red-haired'
p5080
tp5081
I4
s(S'tow'
p5082
tp5083
I8
s(S'coast'
p5084
tp5085
I4
s(S'want'
p5086
tp5087
I2
s(S'ref'
p5088
tp5089
I2
s(S'lane'
p5090
tp5091
I7
s(S'character'
p5092
tp5093
I4
s(S'nearby'
p5094
tp5095
I105
s(S'hippie'
p5096
tp5097
I1
s(S'thirty'
p5098
tp5099
I1
s(S'strawberry'
p5100
tp5101
I1
s(S'min'
p5102
tp5103
I1
s(S'peircings'
p5104
tp5105
I1
s(S'barrior'
p5106
tp5107
I1
s(S'dresser'
p5108
tp5109
I2
s(S'crotch'
p5110
tp5111
I1
s(S'leaguer'
p5112
tp5113
I1
s(S'storm'
p5114
tp5115
I7
s(S'soda'
p5116
tp5117
I19
s(S'mesh'
p5118
tp5119
I4
s(S'towel'
p5120
tp5121
I15
s(S'scooter'
p5122
tp5123
I50
s(S'warn'
p5124
tp5125
I1
s(S'kildare'
p5126
tp5127
I1
s(S'novelty'
p5128
tp5129
I2
s(S'jewlery'
p5130
tp5131
I1
s(S'tightly'
p5132
tp5133
I2
s(S'carring'
p5134
tp5135
I4
s(S'egg'
p5136
tp5137
I6
s(S'listen'
p5138
tp5139
I20
s(S'illustrated'
p5140
tp5141
I1
s(S'plug'
p5142
tp5143
I2
s(S'her'
p5144
tp5145
I862
s(S'saddle'
p5146
tp5147
I7
s(S'courthouse'
p5148
tp5149
I1
s(S'coyote'
p5150
tp5151
I2
s(S'junk'
p5152
tp5153
I3
s(S'brilliant'
p5154
tp5155
I2
s(S'project'
p5156
tp5157
I1
s(S'divide'
p5158
tp5159
I2
s(S'mistletoe'
p5160
tp5161
I1
s(S'frolicks'
p5162
tp5163
I2
s(S'spotter'
p5164
tp5165
I3
s(S'springer'
p5166
tp5167
I1
s(S'tip'
p5168
tp5169
I6
s(S'preserver'
p5170
tp5171
I1
s(S'minimal'
p5172
tp5173
I2
s(S'don'
p5174
tp5175
I3
s(S'alcohol'
p5176
tp5177
I2
s(S'spigot'
p5178
tp5179
I4
s(S'firework'
p5180
tp5181
I8
s(S'up'
p5182
tp5183
I903
s(S'rally'
p5184
tp5185
I8
s(S'herd'
p5186
tp5187
I8
s(S'flop'
p5188
tp5189
I16
s(S'mickey'
p5190
tp5191
I6
s(S'dimlight'
p5192
tp5193
I1
s(S'urban'
p5194
tp5195
I33
s(S'terrier'
p5196
tp5197
I30
s(S'contain'
p5198
tp5199
I7
s(S'infant'
p5200
tp5201
I12
s(S'smartly'
p5202
tp5203
I4
s(S'stump'
p5204
tp5205
I18
s(S'cheerfully'
p5206
tp5207
I1
s(S'travel'
p5208
tp5209
I27
s(S'garbage'
p5210
tp5211
I9
s(S'cluster'
p5212
tp5213
I4
s(S'leg'
p5214
tp5215
I139
s(S'welcome'
p5216
tp5217
I2
s(S'sleigh'
p5218
tp5219
I4
s(S'carying'
p5220
tp5221
I1
s(S'weird'
p5222
tp5223
I2
s(S'ropey'
p5224
tp5225
I1
s(S'unseen'
p5226
tp5227
I6
s(S'offf'
p5228
tp5229
I1
s(S'marking'
p5230
tp5231
I14
s(S'boston'
p5232
tp5233
I9
s(S'pac-man'
p5234
tp5235
I1
s(S'accelerates'
p5236
tp5237
I1
s(S'apparatus'
p5238
tp5239
I2
s(S'leopard'
p5240
tp5241
I1
s(S'tricycle'
p5242
tp5243
I21
s(S'bath'
p5244
tp5245
I12
s(S'uggs'
p5246
tp5247
I1
s(S'``'
p5248
tp5249
I162
s(S'wrestle'
p5250
tp5251
I91
s(S'multiple'
p5252
tp5253
I7
s(S'ill'
p5254
tp5255
I2
s(S'ladies'
p5256
tp5257
I3
s(S'almost-dried'
p5258
tp5259
I1
s(S'ladie'
p5260
tp5261
I1
s(S'ohio'
p5262
tp5263
I1
s(S'downsteps'
p5264
tp5265
I1
s(S'uniform'
p5266
tp5267
I268
s(S'darker-skinned'
p5268
tp5269
I1
s(S'wedgie'
p5270
tp5271
I1
s(S'sea'
p5272
tp5273
I24
s(S'city'
p5274
tp5275
I229
s(S'overflow'
p5276
tp5277
I1
s(S'signer'
p5278
tp5279
I1
s(S'marble'
p5280
tp5281
I6
s(S'brawl'
p5282
tp5283
I1
s(S'chip'
p5284
tp5285
I3
s(S'dice'
p5286
tp5287
I1
s(S'noisemaker'
p5288
tp5289
I1
s(S'moutains'
p5290
tp5291
I1
s(S'street-shot'
p5292
tp5293
I1
s(S'peruse'
p5294
tp5295
I1
s(S'playpen'
p5296
tp5297
I14
s(S'easy'
p5298
tp5299
I1
s(S'stairs'
p5300
tp5301
I1
s(S'african'
p5302
tp5303
I31
s(S'buy'
p5304
tp5305
I9
s(S'feathery'
p5306
tp5307
I1
s(S'waitresses'
p5308
tp5309
I1
s(S'dupar'
p5310
tp5311
I1
s(S'step'
p5312
tp5313
I135
s(S'cash'
p5314
tp5315
I4
s(S'tag'
p5316
tp5317
I15
s(S'collegiate'
p5318
tp5319
I1
s(S'snowmobile'
p5320
tp5321
I19
s(S'bow-like'
p5322
tp5323
I1
s(S'tank-top'
p5324
tp5325
I1
s(S'measure'
p5326
tp5327
I3
s(S'nod'
p5328
tp5329
I1
s(S'substance'
p5330
tp5331
I1
s(S'wear'
p5332
tp5333
I2399
s(S'screen'
p5334
tp5335
I21
s(S'target'
p5336
tp5337
I11
s(S'22'
p5338
tp5339
I1
s(S'pitcher'
p5340
tp5341
I11
s(S'picnic'
p5342
tp5343
I16
s(S'crystal-clear'
p5344
tp5345
I1
s(S'pudding'
p5346
tp5347
I2
s(S'lesson'
p5348
tp5349
I1
s(S'merchant'
p5350
tp5351
I1
s(S'copper'
p5352
tp5353
I3
s(S'partake'
p5354
tp5355
I1
s(S'drenched'
p5356
tp5357
I2
s(S'spiky'
p5358
tp5359
I4
s(S'garland'
p5360
tp5361
I1
s(S'backgroud'
p5362
tp5363
I2
s(S'progress'
p5364
tp5365
I6
s(S'hilltop'
p5366
tp5367
I2
s(S'writing'
p5368
tp5369
I25
s(S'bluetooth'
p5370
tp5371
I1
s(S'gain'
p5372
tp5373
I2
s(S'lacrosse'
p5374
tp5375
I7
s(S'wal'
p5376
tp5377
I1
s(S'varied'
p5378
tp5379
I1
s(S'bystander'
p5380
tp5381
I2
s(S'well-kept'
p5382
tp5383
I1
s(S'drive'
p5384
tp5385
I116
s(S'prepared'
p5386
tp5387
I1
s(S'binky'
p5388
tp5389
I1
s(S'matador'
p5390
tp5391
I1
s(S'freefall'
p5392
tp5393
I1
s(S'come'
p5394
tp5395
I81
s(S'campus'
p5396
tp5397
I5
s(S'pray'
p5398
tp5399
I3
s(S'false'
p5400
tp5401
I2
s(S'forehead'
p5402
tp5403
I6
s(S'flagger'
p5404
tp5405
I1
s(S'avrovulcan.com'
p5406
tp5407
I2
s(S'strung'
p5408
tp5409
I1
s(S'lone'
p5410
tp5411
I59
s(S'choke'
p5412
tp5413
I1
s(S'formation'
p5414
tp5415
I31
s(S'ypoung'
p5416
tp5417
I1
s(S'cellphone'
p5418
tp5419
I81
s(S'soft'
p5420
tp5421
I9
s(S'tell'
p5422
tp5423
I2
s(S'snowdrift'
p5424
tp5425
I1
s(S'spring'
p5426
tp5427
I6
s(S'sniff'
p5428
tp5429
I34
s(S'youth'
p5430
tp5431
I7
s(S'antenna'
p5432
tp5433
I3
s(S'bush'
p5434
tp5435
I37
s(S'chained'
p5436
tp5437
I1
s(S'cheer'
p5438
tp5439
I23
s(S'spiked'
p5440
tp5441
I4
s(S'kong'
p5442
tp5443
I1
s(S'waing'
p5444
tp5445
I1
s(S'hoof'
p5446
tp5447
I2
s(S'summit'
p5448
tp5449
I5
s(S'algae'
p5450
tp5451
I1
s(S'peanut'
p5452
tp5453
I5
s(S'coated'
p5454
tp5455
I1
s(S'cheerleader'
p5456
tp5457
I31
s(S'garmet'
p5458
tp5459
I1
s(S'padded'
p5460
tp5461
I5
s(S'powdery'
p5462
tp5463
I1
s(S'3-wheeler'
p5464
tp5465
I1
s(S'flops'
p5466
tp5467
I1
s(S'web'
p5468
tp5469
I3
s(S'numerous'
p5470
tp5471
I4
s(S'seedoo'
p5472
tp5473
I1
s(S'flamboyant'
p5474
tp5475
I1
s(S'steam'
p5476
tp5477
I3
s(S'retreived'
p5478
tp5479
I1
s(S'ralley'
p5480
tp5481
I1
s(S'exhibt'
p5482
tp5483
I1
s(S'jazz'
p5484
tp5485
I1
s(S'ankle-deep'
p5486
tp5487
I1
s(S'donut'
p5488
tp5489
I5
s(S'subaru'
p5490
tp5491
I1
s(S'charge'
p5492
tp5493
I3
s(S'poise'
p5494
tp5495
I4
s(S'catch'
p5496
tp5497
I475
s(S'defender'
p5498
tp5499
I5
s(S'pierced'
p5500
tp5501
I5
s(S'trap'
p5502
tp5503
I1
s(S'burnt'
p5504
tp5505
I1
s(S'longhaired'
p5506
tp5507
I11
s(S'sat'
p5508
tp5509
I1
s(S'marine-life-themed'
p5510
tp5511
I1
s(S'slides'
p5512
tp5513
I1
s(S'register'
p5514
tp5515
I3
s(S'snowy'
p5516
tp5517
I318
s(S'move'
p5518
tp5519
I60
s(S'wrinkled'
p5520
tp5521
I2
s(S'elevator'
p5522
tp5523
I5
s(S'lkievely'
p5524
tp5525
I1
s(S'grown'
p5526
tp5527
I2
s(S'include'
p5528
tp5529
I10
s(S'belay'
p5530
tp5531
I1
s(S'newly'
p5532
tp5533
I3
s(S'land'
p5534
tp5535
I57
s(S'dense'
p5536
tp5537
I1
s(S'whie'
p5538
tp5539
I1
s(S'cower'
p5540
tp5541
I1
s(S'hunter'
p5542
tp5543
I2
s(S'oriental'
p5544
tp5545
I9
s(S'throat'
p5546
tp5547
I1
s(S'upside'
p5548
tp5549
I68
s(S'crumble'
p5550
tp5551
I2
s(S'physical'
p5552
tp5553
I1
s(S'florist'
p5554
tp5555
I1
s(S'gorup'
p5556
tp5557
I1
s(S'unified'
p5558
tp5559
I1
s(S'masses'
p5560
tp5561
I1
s(S'product'
p5562
tp5563
I5
s(S'yong'
p5564
tp5565
I1
s(S'autumn'
p5566
tp5567
I11
s(S'glass'
p5568
tp5569
I50
s(S'yacht'
p5570
tp5571
I1
s(S'manually'
p5572
tp5573
I1
s(S'surgical'
p5574
tp5575
I2
s(S'suntanning'
p5576
tp5577
I1
s(S'wicket'
p5578
tp5579
I2
s(S'you'
p5580
tp5581
I17
s(S'effects'
p5582
tp5583
I1
s(S'submerges'
p5584
tp5585
I1
s(S'aggresively'
p5586
tp5587
I1
s(S'batman'
p5588
tp5589
I12
s(S'paraphernalia'
p5590
tp5591
I1
s(S'grapple'
p5592
tp5593
I4
s(S'pasta'
p5594
tp5595
I5
s(S'crib'
p5596
tp5597
I3
s(S'furocious'
p5598
tp5599
I1
s(S'darkly'
p5600
tp5601
I2
s(S'juggler'
p5602
tp5603
I1
s(S'leather-clad'
p5604
tp5605
I1
s(S'dryed'
p5606
tp5607
I1
s(S'backgound'
p5608
tp5609
I1
s(S'roughly'
p5610
tp5611
I3
s(S'booth'
p5612
tp5613
I15
s(S'sunbathe'
p5614
tp5615
I1
s(S'giggle'
p5616
tp5617
I1
s(S'aig'
p5618
tp5619
I2
s(S'scuffle'
p5620
tp5621
I2
s(S'squad'
p5622
tp5623
I1
s(S'spacious'
p5624
tp5625
I1
s(S'messanger'
p5626
tp5627
I1
s(S'helmeted'
p5628
tp5629
I9
s(S'ceiling'
p5630
tp5631
I8
s(S'jumphouse'
p5632
tp5633
I1
s(S't-ball'
p5634
tp5635
I3
s(S'aquestrian'
p5636
tp5637
I1
s(S'icey'
p5638
tp5639
I1
s(S'parka'
p5640
tp5641
I11
s(S'scuba'
p5642
tp5643
I17
s(S'smooth'
p5644
tp5645
I5
s(S'pink-hooded'
p5646
tp5647
I1
s(S'trows'
p5648
tp5649
I1
s(S'client'
p5650
tp5651
I1
s(S'bell'
p5652
tp5653
I2
s(S'softdrinks'
p5654
tp5655
I1
s(S'liquid'
p5656
tp5657
I6
s(S'say'
p5658
tp5659
I35
s(S'chicago'
p5660
tp5661
I1
s(S'eyese'
p5662
tp5663
I1
s(S'sunshade'
p5664
tp5665
I5
s(S'decortive'
p5666
tp5667
I1
s(S'speckled'
p5668
tp5669
I2
s(S'sits'
p5670
tp5671
I9
s(S'solicit'
p5672
tp5673
I1
s(S'be'
p5674
tp5675
I9835
s(S'pool'
p5676
tp5677
I511
s(S'equestrian'
p5678
tp5679
I5
s(S'dark'
p5680
tp5681
I179
s(S'x'
tp5682
I1
s(S'texts'
p5683
tp5684
I1
s(S'bounds'
p5685
tp5686
I1
s(S'awning'
p5687
tp5688
I7
s(S'corral'
p5689
tp5690
I1
s(S'picute'
p5691
tp5692
I1
s(S'windboarder'
p5693
tp5694
I1
s(S'entire'
p5695
tp5696
I1
s(S'little'
p5697
tp5698
I1266
s(S'farmland'
p5699
tp5700
I1
s(S'fleecy'
p5701
tp5702
I1
s(S'participant'
p5703
tp5704
I2
s(S'corn'
p5705
tp5706
I15
s(S'traditional'
p5707
tp5708
I10
s(S'samsung'
p5709
tp5710
I2
s(S'bobbed'
p5711
tp5712
I1
s(S'much'
p5713
tp5714
I5
s(S'black-shirt'
p5715
tp5716
I1
s(S'buzy'
p5717
tp5718
I2
s(S'endzone'
p5719
tp5720
I1
s(S'dad'
p5721
tp5722
I6
s(S'strong'
p5723
tp5724
I2
s(S'mature'
p5725
tp5726
I1
s(S'long-sleeved'
p5727
tp5728
I1
s(S'spashes'
p5729
tp5730
I1
s(S'prison'
p5731
tp5732
I1
s(S'recieve'
p5733
tp5734
I1
s(S'punk'
p5735
tp5736
I2
s(S'cross'
p5737
tp5738
I63
s(S'scarily'
p5739
tp5740
I1
s(S'pointy'
p5741
tp5742
I7
s(S'tent-like'
p5743
tp5744
I1
s(S'middle'
p5745
tp5746
I116
s(S'sooner'
p5747
tp5748
I23
s(S'meeting'
p5749
tp5750
I5
s(S'wintery'
p5751
tp5752
I1
s(S'mock'
p5753
tp5754
I3
s(S'adorn'
p5755
tp5756
I3
s(S'ca'
p5757
tp5758
I1
s(S'red-dressed'
p5759
tp5760
I1
s(S'kisses'
p5761
tp5762
I1
s(S'23'
p5763
tp5764
I2
s(S'antoher'
p5765
tp5766
I1
s(S'turbaned'
p5767
tp5768
I1
s(S'close'
p5769
tp5770
I57
s(S'bodyless'
p5771
tp5772
I1
s(S'toolbox'
p5773
tp5774
I2
s(S'wooly'
p5775
tp5776
I1
s(S'super'
p5777
tp5778
I2
s(S'brige'
p5779
tp5780
I1
s(S'rottwieler'
p5781
tp5782
I1
s(S'camouflage'
p5783
tp5784
I26
s(S'row'
p5785
tp5786
I55
s(S'tube'
p5787
tp5788
I39
s(S'sweatshir'
p5789
tp5790
I1
s(S'gold'
p5791
tp5792
I50
s(S'white-haired'
p5793
tp5794
I1
s(S'eagerly'
p5795
tp5796
I1
s(S'at'
p5797
tp5798
I2102
s(S'kayaker'
p5799
tp5800
I15
s(S'canned'
p5801
tp5802
I2
s(S'dip'
p5803
tp5804
I3
s(S'final'
p5805
tp5806
I1
s(S'countryside'
p5807
tp5808
I11
s(S'catcher'
p5809
tp5810
I17
s(S'village'
p5811
tp5812
I6
s(S'wrinkley'
p5813
tp5814
I1
s(S"n't"
p5815
tp5816
I2
s(S'puck'
p5817
tp5818
I14
s(S'surroundings'
p5819
tp5820
I1
s(S'christmastime'
p5821
tp5822
I1
s(S'it'
p5823
tp5824
I291
s(S'sunglasses'
p5825
tp5826
I183
s(S'does'
p5827
tp5828
I1
s(S'sweatshirt'
p5829
tp5830
I59
s(S'sing'
p5831
tp5832
I47
s(S'smoke'
p5833
tp5834
I97
s(S'shovel'
p5835
tp5836
I30
s(S'stamds'
p5837
tp5838
I1
s(S'explosion'
p5839
tp5840
I6
s(S'forceful'
p5841
tp5842
I1
s(S'darts'
p5843
tp5844
I1
s(S'pullup'
p5845
tp5846
I1
s(S'surround'
p5847
tp5848
I157
s(S'robe'
p5849
tp5850
I21
s(S'customer'
p5851
tp5852
I5
s(S'child'
p5853
tp5854
I1957
s(S'stereo'
p5855
tp5856
I1
s(S'cowgirl'
p5857
tp5858
I5
s(S'calf'
p5859
tp5860
I1
s(S'fairground'
p5861
tp5862
I7
s(S'cannonball'
p5863
tp5864
I1
s(S'collides'
p5865
tp5866
I1
s(S'petterned'
p5867
tp5868
I1
s(S'bookshelf'
p5869
tp5870
I3
s(S'edge'
p5871
tp5872
I133
s(S'horizontal'
p5873
tp5874
I7
s(S'samoyads'
p5875
tp5876
I1
s(S'4x4'
p5877
tp5878
I1
s(S'gnaws'
p5879
tp5880
I2
s(S'bash'
p5881
tp5882
I1
s(S'car'
p5883
tp5884
I373
s(S'concerned'
p5885
tp5886
I1
s(S'medieval'
p5887
tp5888
I6
s(S'will'
p5889
tp5890
I1
s(S'insect'
p5891
tp5892
I6
s(S'garment'
p5893
tp5894
I1
s(S'restroom'
p5895
tp5896
I1
s(S'limo'
p5897
tp5898
I4
s(S'scantily'
p5899
tp5900
I5
s(S'korean'
p5901
tp5902
I1
s(S'tussle'
p5903
tp5904
I7
s(S'opponent'
p5905
tp5906
I11
s(S'defy'
p5907
tp5908
I1
s(S'jet'
p5909
tp5910
I17
s(S'till'
p5911
tp5912
I1
s(S'ready'
p5913
tp5914
I98
s(S'battle'
p5915
tp5916
I8
s(S'blacktop'
p5917
tp5918
I4
s(S'represent'
p5919
tp5920
I1
s(S'peaceful'
p5921
tp5922
I2
s(S'four-wheeled'
p5923
tp5924
I2
s(S'market'
p5925
tp5926
I29
s(S'half-completed'
p5927
tp5928
I1
s(S'extreme'
p5929
tp5930
I6
s(S'excess'
p5931
tp5932
I1
s(S'consume'
p5933
tp5934
I2
s(S'extend'
p5935
tp5936
I9
s(S'pucker'
p5937
tp5938
I2
s(S'converge'
p5939
tp5940
I1
s(S'arrive'
p5941
tp5942
I1
s(S'zaftig'
p5943
tp5944
I1
s(S'telegraph'
p5945
tp5946
I1
s(S'jr.'
p5947
tp5948
I2
s(S'fighter'
p5949
tp5950
I3
s(S'pillow'
p5951
tp5952
I14
s(S'saver'
p5953
tp5954
I1
s(S'ump'
p5955
tp5956
I1
s(S'peddal'
p5957
tp5958
I1
s(S'flute'
p5959
tp5960
I10
s(S'fron'
p5961
tp5962
I1
s(S'goldfish'
p5963
tp5964
I1
s(S'curved'
p5965
tp5966
I3
s(S'jungle'
p5967
tp5968
I19
s(S'videocameras'
p5969
tp5970
I1
s(S'rummage'
p5971
tp5972
I2
s(S'greenish'
p5973
tp5974
I2
s(S'blossom'
p5975
tp5976
I4
s(S'utility'
p5977
tp5978
I1
s(S'string'
p5979
tp5980
I27
s(S'collision'
p5981
tp5982
I1
s(S'submissive'
p5983
tp5984
I1
s(S'disc'
p5985
tp5986
I19
s(S'multi-print'
p5987
tp5988
I1
s(S'reflective'
p5989
tp5990
I12
s(S'canopy'
p5991
tp5992
I6
s(S'connect'
p5993
tp5994
I4
s(S'everybody'
p5995
tp5996
I1
s(S'trash'
p5997
tp5998
I7
s(S'beneath'
p5999
tp6000
I13
s(S'tge'
p6001
tp6002
I1
s(S'joyful'
p6003
tp6004
I1
s(S'floatation'
p6005
tp6006
I4
s(S'stripped'
p6007
tp6008
I4
s(S'group'
p6009
tp6010
I913
s(S'sweatsuit'
p6011
tp6012
I2
s(S'surfboard'
p6013
tp6014
I121
s(S'large'
p6015
tp6016
I921
s(S'ashtray'
p6017
tp6018
I1
s(S'american'
p6019
tp6020
I68
s(S'discover'
p6021
tp6022
I1
s(S'complex'
p6023
tp6024
I2
s(S'htting'
p6025
tp6026
I1
s(S'fluorescent'
p6027
tp6028
I1
s(S'one'
p6029
tp6030
I870
s(S'bumpy'
p6031
tp6032
I5
s(S'swimcap'
p6033
tp6034
I1
s(S'thorugh'
p6035
tp6036
I1
s(S'chi'
p6037
tp6038
I1
s(S'star'
p6039
tp6040
I23
s(S'shoeless'
p6041
tp6042
I2
s(S'agency'
p6043
tp6044
I1
s(S'mobility'
p6045
tp6046
I1
s(S'unicycle'
p6047
tp6048
I36
s(S'tree-lined'
p6049
tp6050
I5
s(S'broach'
p6051
tp6052
I1
s(S'litlle'
p6053
tp6054
I1
s(S'mad'
p6055
tp6056
I1
s(S'kitten'
p6057
tp6058
I4
s(S'stone'
p6059
tp6060
I109
s(S'sideways'
p6061
tp6062
I12
s(S'join'
p6063
tp6064
I3
s(S'tinsel'
p6065
tp6066
I1
s(S'gator'
p6067
tp6068
I1
s(S'live'
p6069
tp6070
I10
s(S'slant'
p6071
tp6072
I1
s(S'library'
p6073
tp6074
I4
s(S'easel'
p6075
tp6076
I4
s(S'parachuter'
p6077
tp6078
I1
s(S'gust'
p6079
tp6080
I1
s(S'rounded'
p6081
tp6082
I1
s(S'spool'
p6083
tp6084
I2
s(S'dump'
p6085
tp6086
I4
s(S'graze'
p6087
tp6088
I5
s(S'walker'
p6089
tp6090
I6
s(S'stingray'
p6091
tp6092
I1
s(S'expressway'
p6093
tp6094
I1
s(S'snowscapes'
p6095
tp6096
I1
s(S'bathroom'
p6097
tp6098
I16
s(S'soap'
p6099
tp6100
I3
s(S'masquerade'
p6101
tp6102
I1
s(S'tractor'
p6103
tp6104
I6
s(S'grin'
p6105
tp6106
I12
s(S'pillow-fight'
p6107
tp6108
I1
s(S'modern'
p6109
tp6110
I4
s(S'skyline'
p6111
tp6112
I11
s(S'playgym'
p6113
tp6114
I1
s(S'wolf'
p6115
tp6116
I2
s(S'hip'
p6117
tp6118
I9
s(S'foliage'
p6119
tp6120
I13
s(S'duke'
p6121
tp6122
I2
s(S'croquette'
p6123
tp6124
I1
s(S'cameraman'
p6125
tp6126
I6
s(S'parasail'
p6127
tp6128
I13
s(S'lounge'
p6129
tp6130
I16
s(S'hair'
p6131
tp6132
I316
s(S'overlook'
p6133
tp6134
I93
s(S'armoire'
p6135
tp6136
I1
s(S'protection'
p6137
tp6138
I2
s(S'graffiti'
p6139
tp6140
I45
s(S'stoic'
p6141
tp6142
I1
s(S'raceway'
p6143
tp6144
I3
s(S'cargo'
p6145
tp6146
I4
s(S'bubble'
p6147
tp6148
I105
s(S'split'
p6149
tp6150
I8
s(S'organic'
p6151
tp6152
I1
s(S'siluettes'
p6153
tp6154
I1
s(S'mommy'
p6155
tp6156
I1
s(S'pose'
p6157
tp6158
I495
s(S'waterski'
p6159
tp6160
I23
s(S'squeak'
p6161
tp6162
I1
s(S'goofy'
p6163
tp6164
I3
s(S'landform'
p6165
tp6166
I1
s(S'em'
p6167
tp6168
I1
s(S'boogieboard'
p6169
tp6170
I2
s(S'mouthguards'
p6171
tp6172
I2
s(S'bellbottoms'
p6173
tp6174
I2
s(S'playhouse'
p6175
tp6176
I6
s(S'brown-haired'
p6177
tp6178
I7
s(S'elbow'
p6179
tp6180
I2
s(S'unite'
p6181
tp6182
I1
s(S'smile'
p6183
tp6184
I582
s(S'escort'
p6185
tp6186
I3
s(S'something'
p6187
tp6188
I252
s(S'track'
p6189
tp6190
I244
s(S'nfl'
p6191
tp6192
I1
s(S'eye'
p6193
tp6194
I101
s(S'nice'
p6195
tp6196
I5
s(S'incredible'
p6197
tp6198
I1
s(S'sheep'
p6199
tp6200
I37
s(S'overcoat'
p6201
tp6202
I3
s(S'pinball'
p6203
tp6204
I1
s(S'chief'
p6205
tp6206
I1
s(S'amongst'
p6207
tp6208
I7
s(S'bark'
p6209
tp6210
I37
s(S'du'
p6211
tp6212
I1
s(S'pillar'
p6213
tp6214
I3
s(S'sheperd'
p6215
tp6216
I2
s(S'specialized'
p6217
tp6218
I2
s(S'aligator'
p6219
tp6220
I1
s(S'fur-trimmed'
p6221
tp6222
I1
s(S'upwards'
p6223
tp6224
I3
s(S'sparrow'
p6225
tp6226
I2
s(S'warehouse'
p6227
tp6228
I2
s(S'snorkel'
p6229
tp6230
I2
s(S'experience'
p6231
tp6232
I1
s(S'metallic'
p6233
tp6234
I1
s(S'leotard'
p6235
tp6236
I10
s(S'fireball'
p6237
tp6238
I2
s(S'file'
p6239
tp6240
I3
s(S'wince'
p6241
tp6242
I1
s(S'beanie'
p6243
tp6244
I8
s(S'round'
p6245
tp6246
I34
s(S'snowfield'
p6247
tp6248
I2
s(S'florescent'
p6249
tp6250
I2
s(S'lame'
p6251
tp6252
I1
s(S'mid'
p6253
tp6254
I3
s(S'else'
p6255
tp6256
I1
s(S'either'
p6257
tp6258
I10
s(S'twilight'
p6259
tp6260
I3
s(S'stockcar'
p6261
tp6262
I1
s(S'half-pipe'
p6263
tp6264
I2
s(S'messily'
p6265
tp6266
I3
s(S'cries'
p6267
tp6268
I3
s(S'watersports'
p6269
tp6270
I1
s(S'busines'
p6271
tp6272
I1
s(S'fast'
p6273
tp6274
I40
s(S'bicyler'
p6275
tp6276
I1
s(S'venice'
p6277
tp6278
I1
s(S'heel'
p6279
tp6280
I10
s(S'4-wheel'
p6281
tp6282
I1
s(S'roman'
p6283
tp6284
I2
s(S'finger'
p6285
tp6286
I45
s(S'flume'
p6287
tp6288
I1
s(S'witches'
p6289
tp6290
I1
s(S'cute'
p6291
tp6292
I7
s(S'interested'
p6293
tp6294
I1
s(S'hood'
p6295
tp6296
I31
s(S'handle'
p6297
tp6298
I21
s(S'spiritual'
p6299
tp6300
I1
s(S'military'
p6301
tp6302
I18
s(S'floatlys'
p6303
tp6304
I1
s(S'tax'
p6305
tp6306
I1
s(S'address'
p6307
tp6308
I1
s(S'pooping'
p6309
tp6310
I1
s(S'fowl'
p6311
tp6312
I1
s(S'teenager'
p6313
tp6314
I43
s(S'attempt'
p6315
tp6316
I96
s(S'tongee'
p6317
tp6318
I1
s(S'darkness'
p6319
tp6320
I1
s(S'assist'
p6321
tp6322
I6
s(S'parrot'
p6323
tp6324
I3
s(S'turbulent'
p6325
tp6326
I1
s(S'condominium'
p6327
tp6328
I1
s(S'barbwire'
p6329
tp6330
I2
s(S'toilet'
p6331
tp6332
I17
s(S'r.v'
p6333
tp6334
I1
s(S'joke'
p6335
tp6336
I2
s(S'floored'
p6337
tp6338
I3
s(S'tourist'
p6339
tp6340
I6
s(S'nature'
p6341
tp6342
I4
s(S'asia'
p6343
tp6344
I2
s(S'gin'
p6345
tp6346
I1
s(S'pause'
p6347
tp6348
I8
s(S'shrowded'
p6349
tp6350
I1
s(S'furnace'
p6351
tp6352
I2
s(S'words'
p6353
tp6354
I4
s(S'gren'
p6355
tp6356
I1
s(S'memorial'
p6357
tp6358
I1
s(S'dramatically'
p6359
tp6360
I3
s(S's'
tp6361
I1
s(S'jet-skis'
p6362
tp6363
I1
s(S'wind'
p6364
tp6365
I19
s(S'for'
p6366
tp6367
I708
s(S'salmon'
p6368
tp6369
I1
s(S'shaped'
p6370
tp6371
I4
s(S'frilly'
p6372
tp6373
I2
s(S'gorge'
p6374
tp6375
I1
s(S'barn-like'
p6376
tp6377
I1
s(S'brightly-colred'
p6378
tp6379
I1
s(S'attractive'
p6380
tp6381
I3
s(S'europe'
p6382
tp6383
I1
s(S'passenger'
p6384
tp6385
I7
s(S'cartoon'
p6386
tp6387
I1
s(S'wooden'
p6388
tp6389
I209
s(S'automobile'
p6390
tp6391
I3
s(S'cine'
p6392
tp6393
I1
s(S'sheppard'
p6394
tp6395
I1
s(S'warm'
p6396
tp6397
I18
s(S'pensively'
p6398
tp6399
I1
s(S'shoulder'
p6400
tp6401
I60
s(S'fist'
p6402
tp6403
I7
s(S'convert'
p6404
tp6405
I1
s(S'heavy-metal'
p6406
tp6407
I1
s(S'unamused'
p6408
tp6409
I1
s(S'playgroud'
p6410
tp6411
I2
s(S'thumb'
p6412
tp6413
I20
s(S'blocker'
p6414
tp6415
I1
s(S'dinosaur'
p6416
tp6417
I3
s(S'bicyclist'
p6418
tp6419
I66
s(S'bead'
p6420
tp6421
I20
s(S'wade'
p6422
tp6423
I55
s(S'contracption'
p6424
tp6425
I1
s(S'hang-glider'
p6426
tp6427
I1
s(S'suspender'
p6428
tp6429
I3
s(S'desert-like'
p6430
tp6431
I1
s(S'promting'
p6432
tp6433
I1
s(S'vest'
p6434
tp6435
I87
s(S'purple'
p6436
tp6437
I244
s(S'shot'
p6438
tp6439
I43
s(S'clothe'
p6440
tp6441
I11
s(S'verbal'
p6442
tp6443
I1
s(S'marsh-like'
p6444
tp6445
I1
s(S'physique'
p6446
tp6447
I1
s(S'government'
p6448
tp6449
I1
s(S'spray'
p6450
tp6451
I63
s(S'link'
p6452
tp6453
I14
s(S'whist'
p6454
tp6455
I8
s(S'waterboard'
p6456
tp6457
I1
s(S'closer'
p6458
tp6459
I1
s(S'reveal'
p6460
tp6461
I2
s(S'court'
p6462
tp6463
I65
s(S'slice'
p6464
tp6465
I2
s(S'jacket'
p6466
tp6467
I558
s(S'handler'
p6468
tp6469
I1
s(S'survey'
p6470
tp6471
I1
s(S'take'
p6472
tp6473
I365
s(S'real'
p6474
tp6475
I2
s(S'unner'
p6476
tp6477
I1
s(S'farmer'
p6478
tp6479
I5
s(S'retrive'
p6480
tp6481
I1
s(S'emblem'
p6482
tp6483
I1
s(S'half'
p6484
tp6485
I24
s(S'there'
p6486
tp6487
I229
s(S'feature'
p6488
tp6489
I2
s(S'lodge'
p6490
tp6491
I1
s(S'grownup'
p6492
tp6493
I2
s(S'slicker'
p6494
tp6495
I2
s(S'rafael'
p6496
tp6497
I1
s(S'last'
p6498
tp6499
I1
s(S'chestnut'
p6500
tp6501
I1
s(S'skull'
p6502
tp6503
I16
s(S'mind'
p6504
tp6505
I1
s(S'zepra'
p6506
tp6507
I1
s(S'helments'
p6508
tp6509
I1
s(S'floral'
p6510
tp6511
I13
s(S'priest'
p6512
tp6513
I4
s(S'underside'
p6514
tp6515
I2
s(S'alert'
p6516
tp6517
I3
s(S'stand'
p6518
tp6519
I2347
s(S'respond'
p6520
tp6521
I1
s(S'freshly'
p6522
tp6523
I3
s(S'shepherd'
p6524
tp6525
I54
s(S'marine'
p6526
tp6527
I1
s(S'gymnast'
p6528
tp6529
I7
s(S'trooper'
p6530
tp6531
I2
s(S'political'
p6532
tp6533
I1
s(S'chainsaw'
p6534
tp6535
I7
s(S'ilk'
p6536
tp6537
I1
s(S'scrape'
p6538
tp6539
I1
s(S'mail'
p6540
tp6541
I1
s(S'studio'
p6542
tp6543
I6
s(S'squint'
p6544
tp6545
I4
s(S'ashy'
p6546
tp6547
I1
s(S'smokestack'
p6548
tp6549
I1
s(S'handstand'
p6550
tp6551
I32
s(S'redbull'
p6552
tp6553
I3
s(S'pizza'
p6554
tp6555
I9
s(S'within'
p6556
tp6557
I9
s(S'swat'
p6558
tp6559
I1
s(S'checker'
p6560
tp6561
I5
s(S'somebody'
p6562
tp6563
I3
s(S'encripted'
p6564
tp6565
I1
s(S'lecturer'
p6566
tp6567
I1
s(S'handlebar'
p6568
tp6569
I7
s(S'shred'
p6570
tp6571
I2
s(S'magnificant'
p6572
tp6573
I1
s(S'stretcher'
p6574
tp6575
I2
s(S'contents'
p6576
tp6577
I3
s(S'agile'
p6578
tp6579
I1
s(S'obama'
p6580
tp6581
I12
s(S'wheelchair'
p6582
tp6583
I29
s(S'scanner'
p6584
tp6585
I1
s(S'ball-thrower'
p6586
tp6587
I1
s(S'system'
p6588
tp6589
I1
s(S'speech'
p6590
tp6591
I1
s(S'miniature'
p6592
tp6593
I5
s(S'case'
p6594
tp6595
I19
s(S'shoulder-deep'
p6596
tp6597
I1
s(S'post'
p6598
tp6599
I17
s(S'crocs'
p6600
tp6601
I2
s(S'palying'
p6602
tp6603
I1
s(S'massage'
p6604
tp6605
I5
s(S'uno'
p6606
tp6607
I4
s(S'chunk'
p6608
tp6609
I4
s(S'rake'
p6610
tp6611
I1
s(S'stiffing'
p6612
tp6613
I1
s(S'crystal'
p6614
tp6615
I3
s(S'cue'
p6616
tp6617
I1
s(S'crucified'
p6618
tp6619
I1
s(S'maroon'
p6620
tp6621
I6
s(S'forward'
p6622
tp6623
I19
s(S'carousel'
p6624
tp6625
I2
s(S'headlong'
p6626
tp6627
I2
s(S'downhill'
p6628
tp6629
I35
s(S'tophats'
p6630
tp6631
I2
s(S'pilar'
p6632
tp6633
I1
s(S'tiretracks'
p6634
tp6635
I1
s(S'milk'
p6636
tp6637
I6
s(S'campflauge'
p6638
tp6639
I1
s(S'black-green'
p6640
tp6641
I1
s(S'king'
p6642
tp6643
I1
s(S'lolly'
p6644
tp6645
I3
s(S'bullrider'
p6646
tp6647
I1
s(S'swish'
p6648
tp6649
I1
s(S'bonfire'
p6650
tp6651
I2
s(S'paved'
p6652
tp6653
I35
s(S'motion'
p6654
tp6655
I16
s(S'vibrant'
p6656
tp6657
I1
s(S'soled'
p6658
tp6659
I1
s(S'golf'
p6660
tp6661
I13
s(S'arabian'
p6662
tp6663
I2
s(S'mine'
p6664
tp6665
I1
s(S'rimmed'
p6666
tp6667
I2
s(S'masked'
p6668
tp6669
I3
s(S'polaris'
p6670
tp6671
I2
s(S'hospital'
p6672
tp6673
I10
s(S'right'
p6674
tp6675
I64
s(S'march'
p6676
tp6677
I23
s(S'apple'
p6678
tp6679
I18
s(S'heron'
p6680
tp6681
I2
s(S'shetland'
p6682
tp6683
I1
s(S'fawkes'
p6684
tp6685
I1
s(S'underhang'
p6686
tp6687
I1
s(S'baggy'
p6688
tp6689
I1
s(S'trophy'
p6690
tp6691
I5
s(S'bathtub'
p6692
tp6693
I13
s(S'yarn-like'
p6694
tp6695
I1
s(S'sash'
p6696
tp6697
I3
s(S'uneven'
p6698
tp6699
I1
s(S'sitts'
p6700
tp6701
I1
s(S'stoney'
p6702
tp6703
I1
s(S'football'
p6704
tp6705
I377
s(S'soldier'
p6706
tp6707
I7
s(S'teddy'
p6708
tp6709
I6
s(S'possible'
p6710
tp6711
I2
s(S'bohemian'
p6712
tp6713
I1
s(S'machinery'
p6714
tp6715
I1
s(S'and'
p6716
tp6717
I6674
s(S'enforcement'
p6718
tp6719
I1
s(S'off-road'
p6720
tp6721
I8
s(S'panda'
p6722
tp6723
I1
s(S'strand'
p6724
tp6725
I1
s(S'resaurant'
p6726
tp6727
I1
s(S'bungee'
p6728
tp6729
I9
s(S'breath'
p6730
tp6731
I4
s(S'cap'
p6732
tp6733
I154
s(S'racer'
p6734
tp6735
I52
s(S'spectate'
p6736
tp6737
I1
s(S'raft'
p6738
tp6739
I80
s(S'pianist'
p6740
tp6741
I1
s(S'sunbather'
p6742
tp6743
I2
s(S'strapless'
p6744
tp6745
I1
s(S'splatter'
p6746
tp6747
I2
s(S'tattoed'
p6748
tp6749
I1
s(S'muti'
p6750
tp6751
I1
s(S'magazine'
p6752
tp6753
I12
s(S'campground'
p6754
tp6755
I2
s(S'crossed'
p6756
tp6757
I2
s(S'rid'
p6758
tp6759
I5
s(S'internet'
p6760
tp6761
I1
s(S'tram'
p6762
tp6763
I2
s(S'apart'
p6764
tp6765
I6
s(S'hoddie'
p6766
tp6767
I1
s(S'uphill'
p6768
tp6769
I10
s(S'point'
p6770
tp6771
I94
s(S'surrounded'
p6772
tp6773
I1
s(S'except'
p6774
tp6775
I4
s(S'volleyball'
p6776
tp6777
I48
s(S'corgi'
p6778
tp6779
I3
s(S'ghandi'
p6780
tp6781
I1
s(S'far'
p6782
tp6783
I9
s(S'bting'
p6784
tp6785
I1
s(S'establishment'
p6786
tp6787
I2
s(S'faucet'
p6788
tp6789
I2
s(S'youg'
p6790
tp6791
I1
s(S'linet'
p6792
tp6793
I1
s(S'bottom'
p6794
tp6795
I41
s(S'reindeer'
p6796
tp6797
I3
s(S'chart'
p6798
tp6799
I2
s(S'apply'
p6800
tp6801
I3
s(S'dirty'
p6802
tp6803
I36
s(S'tawny'
p6804
tp6805
I1
s(S'ambulance'
p6806
tp6807
I5
s(S'himself'
p6808
tp6809
I25
s(S'indigo'
p6810
tp6811
I1
s(S'interact'
p6812
tp6813
I15
s(S'wheelie'
p6814
tp6815
I23
s(S'paleontologist'
p6816
tp6817
I1
s(S'bicylist'
p6818
tp6819
I1
s(S'mp3'
p6820
tp6821
I2
s(S'safely'
p6822
tp6823
I2
s(S'mountain-dew'
p6824
tp6825
I1
s(S'silhouette'
p6826
tp6827
I27
s(S'skier'
p6828
tp6829
I156
s(S'lionist'
p6830
tp6831
I1
s(S'manmade'
p6832
tp6833
I1
s(S'sand'
p6834
tp6835
I336
s(S'camera-phone'
p6836
tp6837
I1
s(S'sheltered'
p6838
tp6839
I1
s(S'jagged'
p6840
tp6841
I6
s(S'cheese'
p6842
tp6843
I2
s(S'make'
p6844
tp6845
I257
s(S'riverbank'
p6846
tp6847
I3
s(S'punches'
p6848
tp6849
I1
s(S'canyon'
p6850
tp6851
I9
s(S'281'
p6852
tp6853
I2
s(S'pullover'
p6854
tp6855
I1
s(S'quarterpipe'
p6856
tp6857
I1
s(S'human'
p6858
tp6859
I10
s(S'goal'
p6860
tp6861
I56
s(S'prom'
p6862
tp6863
I3
s(S'prey'
p6864
tp6865
I2
s(S'crowded'
p6866
tp6867
I46
s(S'majestically'
p6868
tp6869
I1
s(S'high-flying'
p6870
tp6871
I1
s(S'apex'
p6872
tp6873
I1
s(S'long-spandex'
p6874
tp6875
I1
s(S'jumpsuit'
p6876
tp6877
I10
s(S'gras'
p6878
tp6879
I1
s(S'spoon'
p6880
tp6881
I2
s(S'charm'
p6882
tp6883
I1
s(S'trolley'
p6884
tp6885
I1
s(S'skateboarder'
p6886
tp6887
I249
s(S'&'
tp6888
I5
s(S'hack'
p6889
tp6890
I1
s(S'rv'
p6891
tp6892
I4
s(S'challange'
p6893
tp6894
I1
s(S'soar'
p6895
tp6896
I12
s(S'severe'
p6897
tp6898
I1
s(S'paddler'
p6899
tp6900
I1
s(S'lampost'
p6901
tp6902
I1
s(S'snowploe'
p6903
tp6904
I1
s(S'windmill'
p6905
tp6906
I2
s(S'short-sleeved'
p6907
tp6908
I1
s(S'hugs'
p6909
tp6910
I1
s(S'pursue'
p6911
tp6912
I4
s(S'lining'
p6913
tp6914
I7
s(S'agent'
p6915
tp6916
I1
s(S'bent'
p6917
tp6918
I1
s(S'fingerpaints'
p6919
tp6920
I1
s(S'pring'
p6921
tp6922
I1
s(S'stocky'
p6923
tp6924
I1
s(S'microphone'
p6925
tp6926
I49
s(S'daylight'
p6927
tp6928
I1
s(S'objective'
p6929
tp6930
I1
s(S'snarl'
p6931
tp6932
I4
s(S'kicker'
p6933
tp6934
I1
s(S'inverted'
p6935
tp6936
I2
s(S'breaker'
p6937
tp6938
I1
s(S'blond'
p6939
tp6940
I292
s(S'tri-colored'
p6941
tp6942
I10
s(S'abseil'
p6943
tp6944
I3
s(S'magic'
p6945
tp6946
I1
s(S'corner'
p6947
tp6948
I48
s(S'moter'
p6949
tp6950
I1
s(S'clibing'
p6951
tp6952
I1
s(S'interest'
p6953
tp6954
I10
s(S'patchy'
p6955
tp6956
I2
s(S'pier'
p6957
tp6958
I20
s(S'restaraunt'
p6959
tp6960
I2
s(S'ray'
p6961
tp6962
I2
s(S'old-fashioned'
p6963
tp6964
I2
s(S'ability'
p6965
tp6966
I1
s(S'acroos'
p6967
tp6968
I1
s(S'brother'
p6969
tp6970
I13
s(S'mixed'
p6971
tp6972
I2
s(S'batter'
p6973
tp6974
I4
s(S'shaft'
p6975
tp6976
I1
s(S'consumer'
p6977
tp6978
I1
s(S'suds'
p6979
tp6980
I4
s(S'adornment'
p6981
tp6982
I1
s(S'outrun'
p6983
tp6984
I1
s(S'club'
p6985
tp6986
I8
s(S'scratch'
p6987
tp6988
I7
s(S'competitor'
p6989
tp6990
I3
s(S'bungee-type'
p6991
tp6992
I1
s(S'works'
p6993
tp6994
I1
s(S'relatively'
p6995
tp6996
I1
s(S'lazily'
p6997
tp6998
I1
s(S'pre-teen'
p6999
tp7000
I2
s(S'emerges'
p7001
tp7002
I1
s(S'convention'
p7003
tp7004
I1
s(S'dacshund'
p7005
tp7006
I1
s(S'pay'
p7007
tp7008
I4
s(S'dont'
p7009
tp7010
I1
s(S'sample'
p7011
tp7012
I1
s(S'stained'
p7013
tp7014
I2
s(S'long-boarder'
p7015
tp7016
I1
s(S'clown'
p7017
tp7018
I28
s(S'placid'
p7019
tp7020
I1
s(S'airplane'
p7021
tp7022
I15
s(S'grocery'
p7023
tp7024
I19
s(S'swinsuit'
p7025
tp7026
I1
s(S'waling'
p7027
tp7028
I1
s(S'paintbrush'
p7029
tp7030
I2
s(S'turn'
p7031
tp7032
I113
s(S'flurry'
p7033
tp7034
I1
s(S'hold'
p7035
tp7036
I1416
s(S'suprised'
p7037
tp7038
I1
s(S'earmuff'
p7039
tp7040
I1
s(S'reception'
p7041
tp7042
I4
s(S'adjustment'
p7043
tp7044
I1
s(S'drainage'
p7045
tp7046
I2
s(S'goalkeeper'
p7047
tp7048
I3
s(S'mudfight'
p7049
tp7050
I1
s(S'old'
p7051
tp7052
I308
s(S'doberman'
p7053
tp7054
I17
s(S'guitar'
p7055
tp7056
I128
s(S'dusty'
p7057
tp7058
I8
s(S'drip'
p7059
tp7060
I2
s(S'scrubland'
p7061
tp7062
I1
s(S'evident'
p7063
tp7064
I1
s(S'bay'
p7065
tp7066
I8
s(S'dirtbiker'
p7067
tp7068
I1
s(S'perspective'
p7069
tp7070
I2
s(S'canal'
p7071
tp7072
I8
s(S'document'
p7073
tp7074
I1
s(S'person'
p7075
tp7076
I2893
s(S'eadult'
p7077
tp7078
I1
s(S'blank'
p7079
tp7080
I1
s(S'middleaged'
p7081
tp7082
I3
s(S'violently'
p7083
tp7084
I1
s(S'hustle'
p7085
tp7086
I1
s(S'startle'
p7087
tp7088
I1
s(S'amount'
p7089
tp7090
I3
s(S'back'
p7091
tp7092
I312
s(S'bloody'
p7093
tp7094
I2
s(S'mover'
p7095
tp7096
I1
s(S'props'
p7097
tp7098
I2
s(S'concert'
p7099
tp7100
I9
s(S'six'
p7101
tp7102
I51
s(S'chewed-up'
p7103
tp7104
I1
s(S'competiton'
p7105
tp7106
I1
s(S'gal'
p7107
tp7108
I2
s(S'vaste'
p7109
tp7110
I1
s(S'gauge'
p7111
tp7112
I1
s(S'left'
p7113
tp7114
I53
s(S'headlamp'
p7115
tp7116
I2
s(S'third'
p7117
tp7118
I30
s(S'single'
p7119
tp7120
I11
s(S'leaf'
p7121
tp7122
I93
s(S'track-and-field'
p7123
tp7124
I1
s(S'mechanical'
p7125
tp7126
I4
s(S'find'
p7127
tp7128
I5
s(S'motocross'
p7129
tp7130
I34
s(S'saucer'
p7131
tp7132
I2
s(S'skew'
p7133
tp7134
I1
s(S'arab'
p7135
tp7136
I3
s(S'weight'
p7137
tp7138
I2
s(S'black-yellow'
p7139
tp7140
I1
s(S'yorkie'
p7141
tp7142
I2
s(S'landmark'
p7143
tp7144
I1
s(S'mirrored'
p7145
tp7146
I2
s(S'dragon'
p7147
tp7148
I4
s(S'label'
p7149
tp7150
I3
s(S'even'
p7151
tp7152
I5
s(S'brickwall'
p7153
tp7154
I1
s(S'critter'
p7155
tp7156
I1
s(S'seal'
p7157
tp7158
I5
s(S'noise'
p7159
tp7160
I1
s(S'innertubes'
p7161
tp7162
I2
s(S'look'
p7163
tp7164
I1120
s(S'expressionless'
p7165
tp7166
I1
s(S'dear'
p7167
tp7168
I1
s(S'oar'
p7169
tp7170
I7
s(S'fool'
p7171
tp7172
I1
s(S'magizine'
p7173
tp7174
I1
s(S'snack'
p7175
tp7176
I8
s(S'staircase'
p7177
tp7178
I23
s(S'inline-skates'
p7179
tp7180
I1
s(S'fill'
p7181
tp7182
I38
s(S'professionally'
p7183
tp7184
I1
s(S'bat-shaped'
p7185
tp7186
I1
s(S'rainstorm'
p7187
tp7188
I1
s(S'punkish'
p7189
tp7190
I1
s(S'showroom'
p7191
tp7192
I1
s(S'adult'
p7193
tp7194
I168
s(S'identifier'
p7195
tp7196
I1
s(S'marx'
p7197
tp7198
I2
s(S'hoe'
p7199
tp7200
I2
s(S'slurps'
p7201
tp7202
I1
s(S'beagle'
p7203
tp7204
I11
s(S'trike'
p7205
tp7206
I2
s(S'game'
p7207
tp7208
I287
s(S'accordion'
p7209
tp7210
I10
s(S'fierce'
p7211
tp7212
I1
s(S'adjust'
p7213
tp7214
I5
s(S'staffordshire'
p7215
tp7216
I1
s(S'master'
p7217
tp7218
I4
s(S'striped'
p7219
tp7220
I155
s(S'apparantly'
p7221
tp7222
I1
s(S'perfors'
p7223
tp7224
I1
s(S'onlooker'
p7225
tp7226
I36
s(S'quaint'
p7227
tp7228
I1
s(S'block'
p7229
tp7230
I54
s(S'react'
p7231
tp7232
I3
s(S'beckham'
p7233
tp7234
I1
s(S'springtime'
p7235
tp7236
I1
s(S'snowball'
p7237
tp7238
I17
s(S'grasp'
p7239
tp7240
I7
s(S'entwine'
p7241
tp7242
I1
s(S'mohawk'
p7243
tp7244
I39
s(S'jean'
p7245
tp7246
I196
s(S'beard'
p7247
tp7248
I51
s(S'may'
p7249
tp7250
I1
s(S'ridge'
p7251
tp7252
I12
s(S'aim'
p7253
tp7254
I12
s(S'seventh'
p7255
tp7256
I1
s(S'sun-dappled'
p7257
tp7258
I1
s(S'reson'
p7259
tp7260
I1
s(S'outfield'
p7261
tp7262
I1
s(S'bluejeans'
p7263
tp7264
I4
s(S'roadside'
p7265
tp7266
I4
s(S'cope'
p7267
tp7268
I1
s(S'excavate'
p7269
tp7270
I1
s(S'behinds'
p7271
tp7272
I1
s(S'via'
p7273
tp7274
I1
s(S'crouch'
p7275
tp7276
I38
s(S'teeshirt'
p7277
tp7278
I1
s(S'parachute'
p7279
tp7280
I30
s(S'motorboat'
p7281
tp7282
I3
s(S'pant'
p7283
tp7284
I4
s(S'vegetable'
p7285
tp7286
I1
s(S'wavy'
p7287
tp7288
I1
s(S'flake'
p7289
tp7290
I1
s(S'enjoyment'
p7291
tp7292
I1
s(S'military-style'
p7293
tp7294
I1
s(S'muzzle'
p7295
tp7296
I53
s(S'german'
p7297
tp7298
I54
s(S'macintosh'
p7299
tp7300
I1
s(S'cornstalks'
p7301
tp7302
I1
s(S'floor'
p7303
tp7304
I107
s(S'wintry'
p7305
tp7306
I4
s(S'upright'
p7307
tp7308
I3
s(S'without'
p7309
tp7310
I17
s(S'upturned'
p7311
tp7312
I3
s(S'multistory'
p7313
tp7314
I2
s(S'ox'
p7315
tp7316
I4
s(S'traverse'
p7317
tp7318
I7
s(S'horseman'
p7319
tp7320
I1
s(S'his'
p7321
tp7322
I1711
s(S'card'
p7323
tp7324
I18
s(S'candy'
p7325
tp7326
I15
s(S'blond-haired'
p7327
tp7328
I5
s(S'deflated'
p7329
tp7330
I5
s(S'responder'
p7331
tp7332
I1
s(S'pigeon'
p7333
tp7334
I27
s(S'podium'
p7335
tp7336
I3
s(S'traffic'
p7337
tp7338
I37
s(S'main'
p7339
tp7340
I4
s(S'redskin'
p7341
tp7342
I1
s(S'developed'
p7343
tp7344
I1
s(S'stop'
p7345
tp7346
I42
s(S'mall'
p7347
tp7348
I6
s(S'rollerblade'
p7349
tp7350
I49
s(S'gonzaga'
p7351
tp7352
I2
s(S'illustration'
p7353
tp7354
I2
s(S'aggressive'
p7355
tp7356
I2
s(S'gown'
p7357
tp7358
I7
s(S'trunks'
p7359
tp7360
I2
s(S'landscape'
p7361
tp7362
I33
s(S'junction'
p7363
tp7364
I1
s(S'dobbermen'
p7365
tp7366
I1
s(S'uw'
p7367
tp7368
I2
s(S'kind'
p7369
tp7370
I5
s(S'vampire'
p7371
tp7372
I2
s(S'cloudy'
p7373
tp7374
I15
s(S'capture'
p7375
tp7376
I4
s(S'upraised'
p7377
tp7378
I1
s(S'scream'
p7379
tp7380
I9
s(S'coloring'
p7381
tp7382
I1
s(S'exercise'
p7383
tp7384
I10
s(S'knotted'
p7385
tp7386
I1
s(S'prefabricated'
p7387
tp7388
I1
s(S'headwraps'
p7389
tp7390
I2
s(S'occassion'
p7391
tp7392
I1
s(S'nap'
p7393
tp7394
I7
s(S'oppsite'
p7395
tp7396
I1
s(S'active'
p7397
tp7398
I4
s(S'snowfall'
p7399
tp7400
I1
s(S'vandalized'
p7401
tp7402
I1
s(S'cheerlead'
p7403
tp7404
I4
s(S'arm'
p7405
tp7406
I313
s(S'orange-clad'
p7407
tp7408
I1
s(S'mortar'
p7409
tp7410
I1
s(S'bluejean'
p7411
tp7412
I1
s(S'coffee'
p7413
tp7414
I19
s(S'hula-hoops'
p7415
tp7416
I1
s(S'dimpled'
p7417
tp7418
I1
s(S'flexible'
p7419
tp7420
I2
s(S'eight'
p7421
tp7422
I12
s(S'sponsor'
p7423
tp7424
I2
s(S'snoopy'
p7425
tp7426
I2
s(S'similar'
p7427
tp7428
I8
s(S'athletics'
p7429
tp7430
I1
s(S'parked'
p7431
tp7432
I2
s(S'hp'
p7433
tp7434
I1
s(S'leave'
p7435
tp7436
I41
s(S'their'
p7437
tp7438
I510
s(S'lavender'
p7439
tp7440
I1
s(S'fat'
p7441
tp7442
I8
s(S'midjump'
p7443
tp7444
I6
s(S'applaud'
p7445
tp7446
I1
s(S'study'
p7447
tp7448
I2
s(S'creek'
p7449
tp7450
I30
s(S'tree'
p7451
tp7452
I518
s(S'bookstore'
p7453
tp7454
I4
s(S'distant'
p7455
tp7456
I11
s(S'lay'
p7457
tp7458
I205
s(S'feel'
p7459
tp7460
I1
s(S'devotion'
p7461
tp7462
I1
s(S'sunshine'
p7463
tp7464
I3
s(S'looker'
p7465
tp7466
I1
s(S'garage'
p7467
tp7468
I5
s(S'celebrities'
p7469
tp7470
I1
s(S'space'
p7471
tp7472
I11
s(S'dogsled'
p7473
tp7474
I2
s(S'incense'
p7475
tp7476
I4
s(S'razer'
p7477
tp7478
I1
s(S'clay'
p7479
tp7480
I4
s(S'plaza'
p7481
tp7482
I11
s(S'viewfinder'
p7483
tp7484
I1
s(S'hook'
p7485
tp7486
I5
s(S'sidewalks'
p7487
tp7488
I1
s(S'dizzy'
p7489
tp7490
I1
s(S'send'
p7491
tp7492
I1
s(S'tower'
p7493
tp7494
I5
s(S'megaphone'
p7495
tp7496
I1
s(S'puncture'
p7497
tp7498
I1
s(S'wagon'
p7499
tp7500
I23
s(S'escape'
p7501
tp7502
I2
s(S'trouser'
p7503
tp7504
I2
s(S'handbag'
p7505
tp7506
I7
s(S'explorer'
p7507
tp7508
I1
s(S'sports-field'
p7509
tp7510
I1
s(S'u.'
p7511
tp7512
I2
s(S'deflate'
p7513
tp7514
I2
s(S'freeze'
p7515
tp7516
I5
s(S'sweashirt'
p7517
tp7518
I1
s(S'lighted'
p7519
tp7520
I2
s(S'shelton'
p7521
tp7522
I1
s(S'self'
p7523
tp7524
I2
s(S'glider'
p7525
tp7526
I8
s(S'stun'
p7527
tp7528
I1
s(S'evil'
p7529
tp7530
I7
s(S'university'
p7531
tp7532
I7
s(S'saroog'
p7533
tp7534
I1
s(S'ramp'
p7535
tp7536
I236
s(S'snowboard'
p7537
tp7538
I120
s(S'croquet'
p7539
tp7540
I5
s(S'medatative'
p7541
tp7542
I1
s(S'entry'
p7543
tp7544
I1
s(S'array'
p7545
tp7546
I2
s(S'daisies'
p7547
tp7548
I2
s(S'toy'
p7549
tp7550
I503
s(S'beaded'
p7551
tp7552
I2
s(S'prepares'
p7553
tp7554
I2
s(S'medium-sized'
p7555
tp7556
I1
s(S'demonstarting'
p7557
tp7558
I1
s(S'savanah'
p7559
tp7560
I1
s(S'ledge'
p7561
tp7562
I62
s(S'brwon'
p7563
tp7564
I1
s(S'suitcase'
p7565
tp7566
I3
s(S'amid'
p7567
tp7568
I3
s(S'section'
p7569
tp7570
I2
s(S'intertube'
p7571
tp7572
I2
s(S'cracked'
p7573
tp7574
I4
s(S'gauzey'
p7575
tp7576
I1
s(S'congregate'
p7577
tp7578
I3
s(S'elevated'
p7579
tp7580
I2
s(S'paraglider'
p7581
tp7582
I4
s(S'patch'
p7583
tp7584
I23
s(S'mobile'
p7585
tp7586
I8
s(S'tugboat'
p7587
tp7588
I3
s(S'bowler'
p7589
tp7590
I3
s(S'jersey'
p7591
tp7592
I109
s(S'house'
p7593
tp7594
I111
s(S'face-painted'
p7595
tp7596
I1
s(S'workout'
p7597
tp7598
I4
s(S'excitement'
p7599
tp7600
I1
s(S'haired'
p7601
tp7602
I112
s(S'instrument'
p7603
tp7604
I37
s(S'well-groomed'
p7605
tp7606
I1
s(S'amuseument'
p7607
tp7608
I2
s(S'pedal'
p7609
tp7610
I9
s(S'trip'
p7611
tp7612
I6
s(S'circuit'
p7613
tp7614
I7
s(S'upper'
p7615
tp7616
I4
s(S'careful'
p7617
tp7618
I6
s(S'loop'
p7619
tp7620
I3
s(S'graffited'
p7621
tp7622
I1
s(S'solid'
p7623
tp7624
I1
s(S'menu'
p7625
tp7626
I6
s(S'cleats'
p7627
tp7628
I1
s(S'soapy'
p7629
tp7630
I1
s(S'ghostbuster'
p7631
tp7632
I3
s(S'four'
p7633
tp7634
I365
s(S'commuter'
p7635
tp7636
I2
s(S'cigarette'
p7637
tp7638
I59
s(S'show'
p7639
tp7640
I122
s(S'flats'
p7641
tp7642
I1
s(S'operate'
p7643
tp7644
I10
s(S'foliaged'
p7645
tp7646
I1
s(S'dooorway'
p7647
tp7648
I1
s(S'snowman'
p7649
tp7650
I6
s(S'ace'
p7651
tp7652
I2
s(S'khakis'
p7653
tp7654
I1
s(S'surface'
p7655
tp7656
I49
s(S'gandhi'
p7657
tp7658
I1
s(S'orange'
p7659
tp7660
I556
s(S'milkbone'
p7661
tp7662
I1
s(S'waterline'
p7663
tp7664
I1
s(S'passerby'
p7665
tp7666
I3
s(S'rental'
p7667
tp7668
I1
s(S'passageway'
p7669
tp7670
I1
s(S'shed'
p7671
tp7672
I6
s(S'hover'
p7673
tp7674
I8
s(S'roller'
p7675
tp7676
I24
s(S'cotton'
p7677
tp7678
I4
s(S'semi-cloudy'
p7679
tp7680
I1
s(S'overcast'
p7681
tp7682
I1
s(S'kart'
p7683
tp7684
I2
s(S'ornament'
p7685
tp7686
I3
s(S'paintball'
p7687
tp7688
I1
s(S'chips'
p7689
tp7690
I2
s(S'rundown'
p7691
tp7692
I2
s(S'bikina'
p7693
tp7694
I1
s(S'grill'
p7695
tp7696
I3
s(S'juggle'
p7697
tp7698
I16
s(S'painted'
p7699
tp7700
I11
s(S'chested'
p7701
tp7702
I2
s(S'velvet'
p7703
tp7704
I4
s(S'maneuver'
p7705
tp7706
I12
s(S'mix'
p7707
tp7708
I5
s(S'restaurant'
p7709
tp7710
I60
s(S'victorian'
p7711
tp7712
I1
s(S'blue-robed'
p7713
tp7714
I1
s(S'snowsuit'
p7715
tp7716
I15
s(S'odd'
p7717
tp7718
I4
s(S'jeep'
p7719
tp7720
I35
s(S'dominant'
p7721
tp7722
I1
s(S'care'
p7723
tp7724
I2
s(S'setup'
p7725
tp7726
I2
s(S'lunge'
p7727
tp7728
I5
s(S'flow'
p7729
tp7730
I5
s(S'gymnastics'
p7731
tp7732
I7
s(S'dug'
p7733
tp7734
I2
s(S'tambourine'
p7735
tp7736
I2
s(S'bandage'
p7737
tp7738
I6
s(S'faced'
p7739
tp7740
I1
s(S'paneled'
p7741
tp7742
I1
s(S'firecracker'
p7743
tp7744
I1
s(S'hazmat'
p7745
tp7746
I2
s(S'slouch'
p7747
tp7748
I1
s(S'appear'
p7749
tp7750
I38
s(S'body'
p7751
tp7752
I145
s(S'pinstripe'
p7753
tp7754
I2
s(S'vine'
p7755
tp7756
I3
s(S'defaced'
p7757
tp7758
I1
s(S'squeeze'
p7759
tp7760
I7
s(S'50'
p7761
tp7762
I1
s(S'beaver'
p7763
tp7764
I1
s(S'cork'
p7765
tp7766
I1
s(S'waterhole'
p7767
tp7768
I1
s(S'streak'
p7769
tp7770
I3
s(S'pencil'
p7771
tp7772
I3
s(S'union'
p7773
tp7774
I4
s(S'perm'
p7775
tp7776
I3
s(S'royal'
p7777
tp7778
I2
s(S'hapily'
p7779
tp7780
I1
s(S'playy'
p7781
tp7782
I1
s(S'headcover'
p7783
tp7784
I1
s(S'closely'
p7785
tp7786
I4
s(S'advance'
p7787
tp7788
I2
s(S'my'
p7789
tp7790
I1
s(S'mambo'
p7791
tp7792
I3
s(S'rub'
p7793
tp7794
I11
s(S'dot'
p7795
tp7796
I16
s(S'choir'
p7797
tp7798
I1
s(S'lead'
p7799
tp7800
I51
s(S'viz'
p7801
tp7802
I2
s(S'introduce'
p7803
tp7804
I1
s(S'adore'
p7805
tp7806
I1
s(S'cd'
p7807
tp7808
I1
s(S'location'
p7809
tp7810
I5
s(S'allow'
p7811
tp7812
I3
s(S'sportswear'
p7813
tp7814
I2
s(S'handcrank'
p7815
tp7816
I1
s(S'overshadow'
p7817
tp7818
I1
s(S'home'
p7819
tp7820
I27
s(S'squeamish'
p7821
tp7822
I1
s(S'groucho'
p7823
tp7824
I1
s(S'fortess'
p7825
tp7826
I1
s(S'snare'
p7827
tp7828
I1
s(S'emerald'
p7829
tp7830
I1
s(S'search'
p7831
tp7832
I4
s(S'color'
p7833
tp7834
I44
s(S'fancily'
p7835
tp7836
I1
s(S'item'
p7837
tp7838
I25
s(S'kilt'
p7839
tp7840
I8
s(S'attack'
p7841
tp7842
I15
s(S'dresswear'
p7843
tp7844
I1
s(S'young'
p7845
tp7846
I2009
s(S'costumed'
p7847
tp7848
I3
s(S'foreground'
p7849
tp7850
I24
s(S'effort'
p7851
tp7852
I1
s(S'seven'
p7853
tp7854
I26
s(S'port-o-potties'
p7855
tp7856
I1
s(S'referee'
p7857
tp7858
I24
s(S'laborador'
p7859
tp7860
I1
s(S'deal'
p7861
tp7862
I1
s(S'necklace'
p7863
tp7864
I23
s(S'musicans'
p7865
tp7866
I1
s(S'swing-set'
p7867
tp7868
I1
s(S'ocean'
p7869
tp7870
I315
s(S'pass'
p7871
tp7872
I61
s(S'playroom'
p7873
tp7874
I1
s(S'carolina'
p7875
tp7876
I2
s(S'linger'
p7877
tp7878
I1
s(S'worker'
p7879
tp7880
I33
s(S'russel'
p7881
tp7882
I1
s(S'checkstand'
p7883
tp7884
I1
s(S'ballplayer'
p7885
tp7886
I3
s(S'unpainted'
p7887
tp7888
I1
s(S'vigorous'
p7889
tp7890
I1
s(S'shield'
p7891
tp7892
I2
s(S'nail'
p7893
tp7894
I1
s(S'tennis'
p7895
tp7896
I317
s(S'burst'
p7897
tp7898
I2
s(S'gettin'
p7899
tp7900
I2
s(S'base'
p7901
tp7902
I30
s(S'husky'
p7903
tp7904
I11
s(S'glacial'
p7905
tp7906
I1
s(S'stretchy'
p7907
tp7908
I1
s(S'cloud-covered'
p7909
tp7910
I2
s(S'execute'
p7911
tp7912
I1
s(S'climber'
p7913
tp7914
I120
s(S'big'
p7915
tp7916
I223
s(S'rugby'
p7917
tp7918
I46
s(S'late'
p7919
tp7920
I3
s(S'makeup'
p7921
tp7922
I26
s(S'bedspread'
p7923
tp7924
I4
s(S'wed'
p7925
tp7926
I38
s(S'waterfront'
p7927
tp7928
I3
s(S'meter'
p7929
tp7930
I4
s(S'companion'
p7931
tp7932
I3
s(S'afternoon'
p7933
tp7934
I4
s(S'unison'
p7935
tp7936
I4
s(S'skater'
p7937
tp7938
I28
s(S'knit'
p7939
tp7940
I19
s(S'cadet'
p7941
tp7942
I1
s(S'jogger'
p7943
tp7944
I5
s(S'lifevests'
p7945
tp7946
I1
s(S'pony'
p7947
tp7948
I6
s(S'overshirt'
p7949
tp7950
I1
s(S'spokesmodels'
p7951
tp7952
I1
s(S'hot-pink'
p7953
tp7954
I1
s(S'let'
p7955
tp7956
I3
s(S'pastry'
p7957
tp7958
I2
s(S'sweatpants'
p7959
tp7960
I1
s(S'cringe'
p7961
tp7962
I1
s(S'war'
p7963
tp7964
I18
s(S'mosque-like'
p7965
tp7966
I1
s(S'stock'
p7967
tp7968
I2
s(S'place'
p7969
tp7970
I29
s(S'shack'
p7971
tp7972
I2
s(S'washes'
p7973
tp7974
I4
s(S'mate'
p7975
tp7976
I1
s(S'fisher'
p7977
tp7978
I2
s(S'fisherman'
p7979
tp7980
I11
s(S'sleek'
p7981
tp7982
I2
s(S'treat'
p7983
tp7984
I12
s(S'confetti'
p7985
tp7986
I6
s(S'amidst'
p7987
tp7988
I13
s(S'teacher'
p7989
tp7990
I1
s(S'hunch'
p7991
tp7992
I1
s(S'spout'
p7993
tp7994
I9
s(S'obedience'
p7995
tp7996
I2
s(S'dealth'
p7997
tp7998
I1
s(S'champ'
p7999
tp8000
I1
s(S'scale'
p8001
tp8002
I26
s(S'fish'
p8003
tp8004
I126
s(S'rubber'
p8005
tp8006
I23
s(S'walkman'
p8007
tp8008
I1
s(S'harvested'
p8009
tp8010
I2
s(S'homerun'
p8011
tp8012
I1
s(S'backround'
p8013
tp8014
I1
s(S'sport'
p8015
tp8016
I69
s(S'hte'
p8017
tp8018
I1
s(S'perform'
p8019
tp8020
I219
s(S'colored'
p8021
tp8022
I120
s(S'caged'
p8023
tp8024
I1
s(S'acrobatic'
p8025
tp8026
I5
s(S'underpants'
p8027
tp8028
I1
s(S'cricketer'
p8029
tp8030
I2
s(S'75'
p8031
tp8032
I1
s(S'milkweed'
p8033
tp8034
I1
s(S'frizzy'
p8035
tp8036
I1
s(S'bow'
p8037
tp8038
I19
s(S'practise'
p8039
tp8040
I1
s(S'opposition'
p8041
tp8042
I1
s(S'wide'
p8043
tp8044
I40
s(S'prayer'
p8045
tp8046
I2
s(S'jewish'
p8047
tp8048
I1
s(S'drain'
p8049
tp8050
I6
s(S'lease'
p8051
tp8052
I5
s(S'slush'
p8053
tp8054
I1
s(S'atv'
p8055
tp8056
I31
s(S'adolescent'
p8057
tp8058
I3
s(S'darkened'
p8059
tp8060
I7
s(S'package'
p8061
tp8062
I4
s(S'scene'
p8063
tp8064
I33
s(S'cows'
p8065
tp8066
I1
s(S'guiutarist'
p8067
tp8068
I1
s(S'engine'
p8069
tp8070
I3
s(S'huge'
p8071
tp8072
I77
s(S'receive'
p8073
tp8074
I8
s(S'because'
p8075
tp8076
I2
s(S'hanglider'
p8077
tp8078
I1
s(S'shape'
p8079
tp8080
I15
s(S'notebook'
p8081
tp8082
I2
s(S'barbeque'
p8083
tp8084
I1
s(S'vuitton'
p8085
tp8086
I4
s(S'rink'
p8087
tp8088
I19
s(S'statefarm.com'
p8089
tp8090
I1
s(S'stroller'
p8091
tp8092
I28
s(S'rollskate'
p8093
tp8094
I1
s(S'payer'
p8095
tp8096
I1
s(S'trial'
p8097
tp8098
I2
s(S'ascend'
p8099
tp8100
I10
s(S'crushed'
p8101
tp8102
I1
s(S'protected'
p8103
tp8104
I1
s(S'restrain'
p8105
tp8106
I1
s(S'surfer'
p8107
tp8108
I143
s(S'crane'
p8109
tp8110
I11
s(S'salon'
p8111
tp8112
I4
s(S'frightened'
p8113
tp8114
I2
s(S'of'
p8115
tp8116
I4967
s(S'speedboat'
p8117
tp8118
I2
s(S'mountainous'
p8119
tp8120
I6
s(S'flattened'
p8121
tp8122
I1
s(S'goaltender'
p8123
tp8124
I1
s(S'these'
p8125
tp8126
I24
s(S'mom'
p8127
tp8128
I7
s(S'cop'
p8129
tp8130
I5
s(S'steep'
p8131
tp8132
I41
s(S'organize'
p8133
tp8134
I2
s(S'offensive'
p8135
tp8136
I1
s(S'gym'
p8137
tp8138
I39
s(S'blouse'
p8139
tp8140
I2
s(S'headresses'
p8141
tp8142
I1
s(S'hang'
p8143
tp8144
I205
s(S'carries'
p8145
tp8146
I1
s(S'carry'
p8147
tp8148
I472
s(S'drummer'
p8149
tp8150
I6
s(S'mustached'
p8151
tp8152
I2
s(S'waterway'
p8153
tp8154
I6
s(S'cord'
p8155
tp8156
I8
s(S'clean'
p8157
tp8158
I17
s(S'heart'
p8159
tp8160
I10
s(S'engrave'
p8161
tp8162
I1
s(S'elude'
p8163
tp8164
I1
s(S'rock-face'
p8165
tp8166
I1
s(S'heavily'
p8167
tp8168
I10
s(S'part'
p8169
tp8170
I14
s(S'waaves'
p8171
tp8172
I1
s(S'underwear'
p8173
tp8174
I11
s(S'grenade'
p8175
tp8176
I1
s(S'bracelet'
p8177
tp8178
I8
s(S'marvel'
p8179
tp8180
I1
s(S'lace-up'
p8181
tp8182
I1
s(S'planter'
p8183
tp8184
I1
s(S'amplifier'
p8185
tp8186
I1
s(S'secret'
p8187
tp8188
I1
s(S'flip-flops'
p8189
tp8190
I1
s(S'electrical'
p8191
tp8192
I2
s(S'enterance'
p8193
tp8194
I1
s(S'decorate'
p8195
tp8196
I16
s(S'minivan'
p8197
tp8198
I3
s(S'marketplace'
p8199
tp8200
I7
s(S'its'
p8201
tp8202
I698
s(S'coaster'
p8203
tp8204
I17
s(S'barn'
p8205
tp8206
I11
s(S'unsual'
p8207
tp8208
I1
s(S'ten'
p8209
tp8210
I4
s(S'woodland'
p8211
tp8212
I14
s(S'sift'
p8213
tp8214
I1
s(S'barren'
p8215
tp8216
I11
s(S'though'
p8217
tp8218
I3
s(S'surprise'
p8219
tp8220
I1
s(S'popper'
p8221
tp8222
I1
s(S'fairy'
p8223
tp8224
I5
s(S'signage'
p8225
tp8226
I1
s(S'plow'
p8227
tp8228
I3
s(S'roll'
p8229
tp8230
I60
s(S'frond'
p8231
tp8232
I1
s(S'armchair'
p8233
tp8234
I1
s(S'playtoy'
p8235
tp8236
I1
s(S'sweatband'
p8237
tp8238
I1
s(S'kid-sized'
p8239
tp8240
I1
s(S'rock-climber'
p8241
tp8242
I1
s(S'art'
p8243
tp8244
I48
s(S'during'
p8245
tp8246
I137
s(S'tangled'
p8247
tp8248
I1
s(S'size'
p8249
tp8250
I25
s(S'has'
p8251
tp8252
I5
s(S'slushies'
p8253
tp8254
I1
s(S'collarless'
p8255
tp8256
I1
s(S'trumpet'
p8257
tp8258
I4
s(S'badge'
p8259
tp8260
I5
s(S'cane'
p8261
tp8262
I4
s(S'aqua-colored'
p8263
tp8264
I1
s(S'sheilding'
p8265
tp8266
I1
s(S'clad'
p8267
tp8268
I1
s(S'mitten'
p8269
tp8270
I6
s(S'faint'
p8271
tp8272
I1
s(S'lunch'
p8273
tp8274
I4
s(S'people'
p8275
tp8276
I321
s(S'mattress'
p8277
tp8278
I1
s(S'choppy'
p8279
tp8280
I6
s(S'strain'
p8281
tp8282
I4
s(S'flower-covered'
p8283
tp8284
I1
s(S'bat'
p8285
tp8286
I72
s(S'friend'
p8287
tp8288
I42
s(S'summersault'
p8289
tp8290
I1
s(S'661'
p8291
tp8292
I1
s(S'overhead'
p8293
tp8294
I9
s(S'twig'
p8295
tp8296
I4
s(S'teenage'
p8297
tp8298
I47
s(S'safron'
p8299
tp8300
I1
s(S'personal'
p8301
tp8302
I1
s(S'layer'
p8303
tp8304
I1
s(S'away'
p8305
tp8306
I120
s(S'gear'
p8307
tp8308
I97
s(S'reflect'
p8309
tp8310
I7
s(S'cry'
p8311
tp8312
I13
s(S'archeologist'
p8313
tp8314
I1
s(S'fireman'
p8315
tp8316
I9
s(S'cookie'
p8317
tp8318
I7
s(S'cat'
p8319
tp8320
I51
s(S'cone'
p8321
tp8322
I42
s(S'participate'
p8323
tp8324
I19
s(S'tabloid'
p8325
tp8326
I1
s(S'idyllic'
p8327
tp8328
I1
s(S'stringless'
p8329
tp8330
I1
s(S'buff'
p8331
tp8332
I1
s(S'couple'
p8333
tp8334
I195
s(S'conference'
p8335
tp8336
I1
s(S'blond-headed'
p8337
tp8338
I1
s(S'jersay'
p8339
tp8340
I1
s(S'facial'
p8341
tp8342
I6
s(S'weave'
p8343
tp8344
I8
s(S'nuzzle'
p8345
tp8346
I1
s(S'both'
p8347
tp8348
I64
s(S'buzzes'
p8349
tp8350
I1
s(S'elephant'
p8351
tp8352
I16
s(S'enthusiastic'
p8353
tp8354
I1
s(S'mingle'
p8355
tp8356
I3
s(S'saber'
p8357
tp8358
I3
s(S'vista'
p8359
tp8360
I1
s(S'litter'
p8361
tp8362
I7
s(S'boxer'
p8363
tp8364
I13
s(S'foreleg'
p8365
tp8366
I1
s(S'seashore'
p8367
tp8368
I5
s(S'sink'
p8369
tp8370
I3
s(S'cubby'
p8371
tp8372
I1
s(S'chute'
p8373
tp8374
I2
s(S'snowstorm'
p8375
tp8376
I2
s(S'basket'
p8377
tp8378
I30
s(S'smear'
p8379
tp8380
I2
s(S'interracial'
p8381
tp8382
I2
s(S'garb'
p8383
tp8384
I6
s(S'doo-rag'
p8385
tp8386
I1
s(S'earth'
p8387
tp8388
I3
s(S'messenger'
p8389
tp8390
I3
s(S'pants'
p8391
tp8392
I202
s(S'retriving'
p8393
tp8394
I1
s(S'flee'
p8395
tp8396
I1
s(S'neck'
p8397
tp8398
I34
s(S'face-down'
p8399
tp8400
I1
s(S'tone'
p8401
tp8402
I1
s(S'pick'
p8403
tp8404
I33
s(S'sparsely'
p8405
tp8406
I2
s(S'naked'
p8407
tp8408
I24
s(S'157'
p8409
tp8410
I1
s(S'whilst'
p8411
tp8412
I124
s(S'stool'
p8413
tp8414
I11
s(S'satchel'
p8415
tp8416
I2
s(S'airborne'
p8417
tp8418
I55
s(S'outfits'
p8419
tp8420
I1
s(S'brush'
p8421
tp8422
I14
s(S'railling'
p8423
tp8424
I1
s(S'policeman'
p8425
tp8426
I23
s(S'hard'
p8427
tp8428
I12
s(S'sweep'
p8429
tp8430
I2
s(S'love'
p8431
tp8432
I9
s(S'peterson'
p8433
tp8434
I2
s(S'owner'
p8435
tp8436
I34
s(S'magician'
p8437
tp8438
I2
s(S'fix'
p8439
tp8440
I4
s(S'derby'
p8441
tp8442
I4
s(S'all-male'
p8443
tp8444
I1
s(S'seahorse'
p8445
tp8446
I1
s(S'brave'
p8447
tp8448
I1
s(S'straight'
p8449
tp8450
I11
s(S'one-armed'
p8451
tp8452
I1
s(S'protest'
p8453
tp8454
I11
s(S'glove'
p8455
tp8456
I43
s(S'flipper'
p8457
tp8458
I2
s(S'next'
p8459
tp8460
I535
s(S'fern'
p8461
tp8462
I1
s(S'box'
p8463
tp8464
I63
s(S'grass'
p8465
tp8466
I1225
s(S'lavish'
p8467
tp8468
I1
s(S'sings'
p8469
tp8470
I3
s(S'television'
p8471
tp8472
I2
s(S'poster'
p8473
tp8474
I14
s(S'black-blue'
p8475
tp8476
I1
s(S'hoolahoops'
p8477
tp8478
I1
s(S'blitz'
p8479
tp8480
I1
s(S'wierd'
p8481
tp8482
I1
s(S'sack'
p8483
tp8484
I5
s(S'phrase'
p8485
tp8486
I3
s(S'night'
p8487
tp8488
I123
s(S'atmosphere'
p8489
tp8490
I1
s(S'event'
p8491
tp8492
I48
s(S'bank'
p8493
tp8494
I25
s(S'glare'
p8495
tp8496
I1
s(S'belt'
p8497
tp8498
I7
s(S'frown'
p8499
tp8500
I3
s(S'womand'
p8501
tp8502
I1
s(S'lavendar'
p8503
tp8504
I1
s(S'heat'
p8505
tp8506
I1
s(S'castle'
p8507
tp8508
I5
s(S'stare'
p8509
tp8510
I71
s(S'muzzled'
p8511
tp8512
I18
s(S'p.'
p8513
tp8514
I1
s(S'goalie'
p8515
tp8516
I35
s(S'ignore'
p8517
tp8518
I3
s(S'anticipation'
p8519
tp8520
I1
s(S'budweiser-sponsored'
p8521
tp8522
I1
s(S'casque'
p8523
tp8524
I1
s(S'mountaineer'
p8525
tp8526
I7
s(S'strap'
p8527
tp8528
I19
s(S'ship'
p8529
tp8530
I15
s(S'youngster'
p8531
tp8532
I5
s(S'mini'
p8533
tp8534
I6
s(S'routine'
p8535
tp8536
I2
s(S'excersizing'
p8537
tp8538
I1
s(S'competitive'
p8539
tp8540
I3
s(S'shoulder-length'
p8541
tp8542
I1
s(S'bonnet'
p8543
tp8544
I5
s(S'comfort'
p8545
tp8546
I5
s(S'mantle'
p8547
tp8548
I2
s(S'observe'
p8549
tp8550
I16
s(S'tab'
p8551
tp8552
I1
s(S'peak'
p8553
tp8554
I24
s(S'shaded'
p8555
tp8556
I2
s(S'protect'
p8557
tp8558
I6
s(S'twos'
p8559
tp8560
I1
s(S'pavilion'
p8561
tp8562
I1
s(S'bandanna'
p8563
tp8564
I32
s(S'mossy'
p8565
tp8566
I2
s(S'twome'
p8567
tp8568
I1
s(S'railgrind'
p8569
tp8570
I1
s(S'spangle'
p8571
tp8572
I1
s(S'challenge'
p8573
tp8574
I8
s(S'sombody'
p8575
tp8576
I1
s(S'swear'
p8577
tp8578
I1
s(S'chubby'
p8579
tp8580
I5
s(S'heavyset'
p8581
tp8582
I2
s(S'peek'
p8583
tp8584
I17
s(S'fresh'
p8585
tp8586
I3
s(S'carpeted'
p8587
tp8588
I1
s(S'stringed'
p8589
tp8590
I1
s(S'corndogs'
p8591
tp8592
I5
s(S'belly-smacker'
p8593
tp8594
I1
s(S'when'
p8595
tp8596
I4
s(S'cin'
p8597
tp8598
I1
s(S'st'
p8599
tp8600
I2
s(S'this'
p8601
tp8602
I113
s(S'k2'
p8603
tp8604
I1
s(S'gnarly'
p8605
tp8606
I1
s(S'cattle'
p8607
tp8608
I2
s(S'banister'
p8609
tp8610
I1
s(S'goat'
p8611
tp8612
I17
s(S'parasailors'
p8613
tp8614
I2
s(S'multiracial'
p8615
tp8616
I1
s(S'well-lit'
p8617
tp8618
I1
s(S'bull-run'
p8619
tp8620
I1
s(S'persue'
p8621
tp8622
I1
s(S'zigzag'
p8623
tp8624
I4
s(S'stunt'
p8625
tp8626
I65
s(S'multicolored'
p8627
tp8628
I27
s(S'kickboxing'
p8629
tp8630
I2
s(S'cardboard'
p8631
tp8632
I18
s(S'vent'
p8633
tp8634
I1
s(S'beach'
p8635
tp8636
I744
s(S'kid'
p8637
tp8638
I397
s(S'button'
p8639
tp8640
I8
s(S'gelled'
p8641
tp8642
I1
s(S'breed'
p8643
tp8644
I12
s(S'beauty'
p8645
tp8646
I1
s(S'skateboard'
p8647
tp8648
I465
s(S'scramble'
p8649
tp8650
I4
s(S'crime'
p8651
tp8652
I1
s(S'ghost'
p8653
tp8654
I1
s(S'i-beam'
p8655
tp8656
I1
s(S'nighttime'
p8657
tp8658
I7
s(S'auto'
p8659
tp8660
I2
s(S'streambed'
p8661
tp8662
I1
s(S'pot'
p8663
tp8664
I9
s(S'escalator'
p8665
tp8666
I1
s(S'deer'
p8667
tp8668
I11
s(S'triangular'
p8669
tp8670
I2
s(S'triangle'
p8671
tp8672
I1
s(S'flip-flop'
p8673
tp8674
I2
s(S'accends'
p8675
tp8676
I1
s(S'snowpants'
p8677
tp8678
I1
s(S'cafeteria'
p8679
tp8680
I1
s(S'close-cropped'
p8681
tp8682
I1
s(S'avoid'
p8683
tp8684
I5
s(S'1950s'
p8685
tp8686
I1
s(S'ciff'
p8687
tp8688
I1
s(S'wield'
p8689
tp8690
I4
s(S'zara'
p8691
tp8692
I3
s(S'conceal'
p8693
tp8694
I1
s(S'#'
tp8695
I11
s(S'mess'
p8696
tp8697
I8
s(S'guardrail'
p8698
tp8699
I2
s(S'diner'
p8700
tp8701
I8
s(S'portion'
p8702
tp8703
I2
s(S'trashcan'
p8704
tp8705
I10
s(S'happen'
p8706
tp8707
I4
s(S'lightsaber'
p8708
tp8709
I1
s(S'evergreen'
p8710
tp8711
I2
s(S'ride'
p8712
tp8713
I1243
s(S'stucco'
p8714
tp8715
I1
s(S'showerhead'
p8716
tp8717
I2
s(S'shoreline'
p8718
tp8719
I18
s(S'partially'
p8720
tp8721
I16
s(S'quarry'
p8722
tp8723
I1
s(S'seperated'
p8724
tp8725
I1
s(S'underground'
p8726
tp8727
I4
s(S'scout'
p8728
tp8729
I3
s(S'gull'
p8730
tp8731
I3
s(S'arrangement'
p8732
tp8733
I1
s(S'coastline'
p8734
tp8735
I3
s(S'exterior'
p8736
tp8737
I1
s(S'lawn'
p8738
tp8739
I90
s(S'ceremonial'
p8740
tp8741
I1
s(S'indy'
p8742
tp8743
I1
s(S'gallop'
p8744
tp8745
I7
s(S'lit'
p8746
tp8747
I21
s(S'contest'
p8748
tp8749
I4
s(S'underpass'
p8750
tp8751
I1
s(S'practices'
p8752
tp8753
I1
s(S'various'
p8754
tp8755
I17
s(S'expanse'
p8756
tp8757
I3
s(S'homemade'
p8758
tp8759
I8
s(S'exhaust'
p8760
tp8761
I1
s(S'fireplace'
p8762
tp8763
I10
s(S'panasonic'
p8764
tp8765
I1
s(S'hump'
p8766
tp8767
I4
s(S'gather'
p8768
tp8769
I76
s(S'palm'
p8770
tp8771
I15
s(S'dane'
p8772
tp8773
I1
s(S'pirate'
p8774
tp8775
I16
s(S'imagery'
p8776
tp8777
I1
s(S'ourdoors'
p8778
tp8779
I1
s(S'bale'
p8780
tp8781
I8
s(S'tightrope'
p8782
tp8783
I9
s(S'overall'
p8784
tp8785
I27
s(S'oiled'
p8786
tp8787
I1
s(S'tug-of-war'
p8788
tp8789
I7
s(S'sunset'
p8790
tp8791
I51
s(S'peddle'
p8792
tp8793
I1
s(S'dish'
p8794
tp8795
I9
s(S'bagpipe'
p8796
tp8797
I11
s(S'play'
p8798
tp8799
I2466
s(S'wings'
p8800
tp8801
I32
s(S'shorline'
p8802
tp8803
I1
s(S'cloud'
p8804
tp8805
I31
s(S'dressed'
p8806
tp8807
I1
s(S'return'
p8808
tp8809
I15
s(S'tide'
p8810
tp8811
I1
s(S'classic'
p8812
tp8813
I5
s(S'fruit'
p8814
tp8815
I14
s(S'gingerbread'
p8816
tp8817
I1
s(S'wetland'
p8818
tp8819
I1
s(S'nearly'
p8820
tp8821
I5
s(S'drench'
p8822
tp8823
I2
s(S'funny'
p8824
tp8825
I28
s(S'blues'
p8826
tp8827
I1
s(S'past'
p8828
tp8829
I120
s(S'meditational'
p8830
tp8831
I1
s(S'glasses'
p8832
tp8833
I138
s(S'egyptian'
p8834
tp8835
I1
s(S'jewelry'
p8836
tp8837
I7
s(S'mart'
p8838
tp8839
I2
s(S'trample'
p8840
tp8841
I2
s(S'tosses'
p8842
tp8843
I1
s(S'pile'
p8844
tp8845
I55
s(S'above'
p8846
tp8847
I163
s(S'pointed'
p8848
tp8849
I2
s(S'furiously'
p8850
tp8851
I1
s(S'weating'
p8852
tp8853
I1
s(S'garden'
p8854
tp8855
I50
s(S'bill'
p8856
tp8857
I6
s(S'drink'
p8858
tp8859
I217
s(S'ice'
p8860
tp8861
I163
s(S'curtain'
p8862
tp8863
I5
s(S'sponsored'
p8864
tp8865
I3
s(S'waterbed'
p8866
tp8867
I1
s(S'railed'
p8868
tp8869
I1
s(S'boy'
p8870
tp8871
I3119
s(S'eyeshadow'
p8872
tp8873
I1
s(S'backdrop'
p8874
tp8875
I3
s(S'lego'
p8876
tp8877
I5
s(S'distribute'
p8878
tp8879
I1
s(S'paint'
p8880
tp8881
I122
s(S'spot'
p8882
tp8883
I47
s(S'farward'
p8884
tp8885
I1
s(S'procession'
p8886
tp8887
I1
s(S'hero'
p8888
tp8889
I3
s(S'kimono'
p8890
tp8891
I5
s(S'jesus'
p8892
tp8893
I3
s(S'pong'
p8894
tp8895
I2
s(S'put'
p8896
tp8897
I68
s(S'suckle'
p8898
tp8899
I1
s(S'stop-action'
p8900
tp8901
I1
s(S'direction'
p8902
tp8903
I23
s(S'rangler'
p8904
tp8905
I1
s(S'braided'
p8906
tp8907
I1
s(S'bigs'
p8908
tp8909
I1
s(S'bread'
p8910
tp8911
I10
s(S'shabby'
p8912
tp8913
I1
s(S'newborn'
p8914
tp8915
I7
s(S'vie'
p8916
tp8917
I2
s(S'sponsorship'
p8918
tp8919
I1
s(S'inflate'
p8920
tp8921
I1
s(S'seesaw'
p8922
tp8923
I6
s(S'sister'
p8924
tp8925
I8
s(S'guide'
p8926
tp8927
I11
s(S'sideline'
p8928
tp8929
I8
s(S'rectangle'
p8930
tp8931
I1
s(S'brow'
p8932
tp8933
I1
s(S'collect'
p8934
tp8935
I6
s(S'notepad'
p8936
tp8937
I1
s(S'foot'
p8938
tp8939
I32
s(S'philadelphia'
p8940
tp8941
I1
s(S'demolished'
p8942
tp8943
I1
s(S'avoids'
p8944
tp8945
I1
s(S'turban'
p8946
tp8947
I7
s(S'tattoos'
p8948
tp8949
I1
s(S'reel'
p8950
tp8951
I1
s(S'pitbull'
p8952
tp8953
I15
s(S'footrace'
p8954
tp8955
I1
s(S'museum'
p8956
tp8957
I10
s(S'tupperware'
p8958
tp8959
I1
s(S'fair'
p8960
tp8961
I24
s(S'coloful'
p8962
tp8963
I1
s(S'waterproof'
p8964
tp8965
I2
s(S'pee'
p8966
tp8967
I1
s(S'wake'
p8968
tp8969
I5
s(S'large-boned'
p8970
tp8971
I1
s(S'seaweed'
p8972
tp8973
I2
s(S'dare'
p8974
tp8975
I2
s(S'steer'
p8976
tp8977
I15
s(S'star-shaped'
p8978
tp8979
I2
s(S'tablet'
p8980
tp8981
I1
s(S'kiyaking'
p8982
tp8983
I1
s(S'rappel'
p8984
tp8985
I5
s(S'mission'
p8986
tp8987
I1
s(S'rain'
p8988
tp8989
I38
s(S'potted'
p8990
tp8991
I5
s(S'clergy'
p8992
tp8993
I1
s(S'cutoff'
p8994
tp8995
I1
s(S'four-wheel'
p8996
tp8997
I1
s(S'2'
tp8998
I22
s(S'biscut'
p8999
tp9000
I1
s(S'performer'
p9001
tp9002
I8
s(S'god'
p9003
tp9004
I2
s(S'lump'
p9005
tp9006
I2
s(S'cliff'
p9007
tp9008
I163
s(S'combat'
p9009
tp9010
I5
s(S'atop'
p9011
tp9012
I28
s(S'us'
p9013
tp9014
I1
s(S'pompoms'
p9015
tp9016
I2
s(S'neither'
p9017
tp9018
I1
s(S'slighty'
p9019
tp9020
I1
s(S'ancient'
p9021
tp9022
I4
s(S'jaket'
p9023
tp9024
I1
s(S'halloween'
p9025
tp9026
I9
s(S'tackle'
p9027
tp9028
I63
s(S'wodden'
p9029
tp9030
I1
s(S'extravagant'
p9031
tp9032
I1
s(S'hand-in-hand'
p9033
tp9034
I2
s(S'present'
p9035
tp9036
I5
s(S'nat'
p9037
tp9038
I1
s(S'checkered'
p9039
tp9040
I8
s(S'slingshot'
p9041
tp9042
I1
s(S'jug'
p9043
tp9044
I2
s(S'gaurdian'
p9045
tp9046
I1
s(S'portrate'
p9047
tp9048
I1
s(S'same'
p9049
tp9050
I43
s(S'barrel'
p9051
tp9052
I18
s(S'stoll'
p9053
tp9054
I1
s(S'woolen'
p9055
tp9056
I1
s(S'rabbit'
p9057
tp9058
I6
s(S'droplet'
p9059
tp9060
I6
s(S'roped'
p9061
tp9062
I1
s(S'powder'
p9063
tp9064
I2
s(S'wading-pool'
p9065
tp9066
I1
s(S'ripstik'
p9067
tp9068
I1
s(S'cow-like'
p9069
tp9070
I1
s(S'colonial'
p9071
tp9072
I1
s(S'open-mouthed'
p9073
tp9074
I1
s(S'deliver'
p9075
tp9076
I1
s(S'indian'
p9077
tp9078
I16
s(S'brownish'
p9079
tp9080
I3
s(S'shrubbery'
p9081
tp9082
I2
s(S'ornamental'
p9083
tp9084
I1
s(S'cubicle'
p9085
tp9086
I1
s(S'equpiment'
p9087
tp9088
I1
s(S'by'
p9089
tp9090
I903
s(S'industrial'
p9091
tp9092
I7
s(S'('
tp9093
I5
s(S'mascot'
p9094
tp9095
I6
s(S'cheerful'
p9096
tp9097
I1
s(S'swirl'
p9098
tp9099
I3
s(S'sling'
p9100
tp9101
I7
s(S'couch'
p9102
tp9103
I64
s(S'armenian'
p9104
tp9105
I3
s(S'walkway'
p9106
tp9107
I22
s(S'tassel'
p9108
tp9109
I1
s(S'rack'
p9110
tp9111
I7
s(S'mermaid'
p9112
tp9113
I1
s(S'bar'
p9114
tp9115
I116
s(S'worshipper'
p9116
tp9117
I1
s(S'pole'
p9118
tp9119
I159
s(S'ninja-like'
p9120
tp9121
I1
s(S'baby'
p9122
tp9123
I329
s(S'isolated'
p9124
tp9125
I1
s(S'buddha'
p9126
tp9127
I1
s(S'awe'
p9128
tp9129
I1
s(S'picture'
p9130
tp9131
I359
s(S'cage'
p9132
tp9133
I10
s(S'burbur'
p9134
tp9135
I1
s(S'eldery'
p9136
tp9137
I2
s(S'whiel'
p9138
tp9139
I1
s(S'nerf'
p9140
tp9141
I1
s(S'backpack'
p9142
tp9143
I163
s(S'delivery'
p9144
tp9145
I1
s(S'cheek'
p9146
tp9147
I23
s(S'angel'
p9148
tp9149
I6
s(S'slimy'
p9150
tp9151
I1
s(S'gentleman'
p9152
tp9153
I17
s(S'street'
p9154
tp9155
I722
s(S'party'
p9156
tp9157
I48
s(S'relection'
p9158
tp9159
I1
s(S'egret'
p9160
tp9161
I2
s(S'mid-sized'
p9162
tp9163
I1
s(S'fanny'
p9164
tp9165
I1
s(S'fire'
p9166
tp9167
I87
s(S'visitor'
p9168
tp9169
I2
s(S'more'
p9170
tp9171
I5
s(S'name'
p9172
tp9173
I3
s(S'long-necked'
p9174
tp9175
I4
s(S'bib'
p9176
tp9177
I6
s(S'tuck'
p9178
tp9179
I2
s(S'french'
p9180
tp9181
I6
s(S'in-synch'
p9182
tp9183
I1
s(S'touchdown'
p9184
tp9185
I2
s(S'suit'
p9186
tp9187
I228
s(S'barbed'
p9188
tp9189
I4
s(S'piglet'
p9190
tp9191
I1
s(S'precariously'
p9192
tp9193
I2
s(S'tilt'
p9194
tp9195
I5
s(S'lapse'
p9196
tp9197
I1
s(S'childrens'
p9198
tp9199
I1
s(S'flash'
p9200
tp9201
I5
s(S'power'
p9202
tp9203
I7
s(S'partition'
p9204
tp9205
I1
s(S'fell'
p9206
tp9207
I4
s(S'pice'
p9208
tp9209
I1
s(S'crevasse'
p9210
tp9211
I3
s(S'toward'
p9212
tp9213
I109
s(S'thank'
p9214
tp9215
I1
s(S'others'
p9216
tp9217
I127
s(S'astonishment'
p9218
tp9219
I1
s(S'shelf'
p9220
tp9221
I6
s(S'giong'
p9222
tp9223
I1
s(S'colt'
p9224
tp9225
I1
s(S'bald'
p9226
tp9227
I56
s(S'flaps'
p9228
tp9229
I1
s(S'lamp'
p9230
tp9231
I3
s(S'safety'
p9232
tp9233
I26
s(S'vega'
p9234
tp9235
I1
s(S'violin'
p9236
tp9237
I24
s(S'firehose'
p9238
tp9239
I2
s(S'stud'
p9240
tp9241
I1
s(S'water-wear'
p9242
tp9243
I1
s(S'barettes'
p9244
tp9245
I1
s(S'rock'
p9246
tp9247
I757
s(S'cinderblock'
p9248
tp9249
I1
s(S'adobe'
p9250
tp9251
I1
s(S'toll'
p9252
tp9253
I1
s(S'cathcer'
p9254
tp9255
I1
s(S'water'
p9256
tp9257
I2050
s(S'gentle'
p9258
tp9259
I1
s(S'sky'
p9260
tp9261
I114
s(S'release'
p9262
tp9263
I2
s(S'burgundy'
p9264
tp9265
I2
s(S'passer'
p9266
tp9267
I1
s(S'submerge'
p9268
tp9269
I7
s(S'shoulderbag'
p9270
tp9271
I1
s(S'expose'
p9272
tp9273
I1
s(S'outside'
p9274
tp9275
I601
s(S'lack'
p9276
tp9277
I3
s(S'vaulter'
p9278
tp9279
I1
s(S'rope-swinging'
p9280
tp9281
I1
s(S'beret'
p9282
tp9283
I5
s(S'anouther'
p9284
tp9285
I1
s(S'sexy'
p9286
tp9287
I2
s(S'4'
tp9288
I10
s(S'shade'
p9289
tp9290
I23
s(S'pointer'
p9291
tp9292
I2
s(S'blur'
p9293
tp9294
I5
s(S'collar'
p9295
tp9296
I146
s(S'grainy'
p9297
tp9298
I1
s(S'across'
p9299
tp9300
I353
s(S'mountain-climb'
p9301
tp9302
I1
s(S'obligatoire'
p9303
tp9304
I1
s(S'compound'
p9305
tp9306
I1
s(S'winnie'
p9307
tp9308
I2
s(S'match'
p9309
tp9310
I34
s(S'outfir'
p9311
tp9312
I1
s(S'rugged'
p9313
tp9314
I2
s(S'wine'
p9315
tp9316
I12
s(S'umpire'
p9317
tp9318
I2
s(S'witnesses'
p9319
tp9320
I1
s(S'fingerhold'
p9321
tp9322
I1
s(S'moonwalk'
p9323
tp9324
I1
s(S'green-glow'
p9325
tp9326
I1
s(S'leash'
p9327
tp9328
I127
s(S'dj'
p9329
tp9330
I5
s(S'sloppy'
p9331
tp9332
I1
s(S'disturb'
p9333
tp9334
I1
s(S'sox'
p9335
tp9336
I3
s(S'condom'
p9337
tp9338
I4
s(S'pouch'
p9339
tp9340
I2
s(S'time'
p9341
tp9342
I17
s(S'waterskies'
p9343
tp9344
I3
s(S'prow'
p9345
tp9346
I1
s(S'thriller'
p9347
tp9348
I2
s(S'hoodies'
p9349
tp9350
I1
s(S'break'
p9351
tp9352
I50
s(S'30'
p9353
tp9354
I1
s(S'pamphlet'
p9355
tp9356
I2
s(S'downwards'
p9357
tp9358
I2
s(S'beg'
p9359
tp9360
I10
s(S'new'
p9361
tp9362
I8
s(S'hear'
p9363
tp9364
I6
s(S'neckless'
p9365
tp9366
I1
s(S'atomic'
p9367
tp9368
I1
s(S'john'
p9369
tp9370
I1
s(S'bluff'
p9371
tp9372
I4
s(S'gray'
p9373
tp9374
I297
s(S'feather'
p9375
tp9376
I15
s(S'silohuetted'
p9377
tp9378
I1
s(S'kaki'
p9379
tp9380
I1
s(S'flees'
p9381
tp9382
I1
s(S'budweiser'
p9383
tp9384
I1
s(S'plat'
p9385
tp9386
I1
s(S'remain'
p9387
tp9388
I1
s(S'navy'
p9389
tp9390
I9
s(S'crag'
p9391
tp9392
I1
s(S'bundle'
p9393
tp9394
I8
s(S'ninja'
p9395
tp9396
I5
s(S'astride'
p9397
tp9398
I3
s(S'identical'
p9399
tp9400
I11
s(S'riverboat'
p9401
tp9402
I1
s(S'bagpiper'
p9403
tp9404
I2
s(S'pattern'
p9405
tp9406
I9
s(S'gleefully'
p9407
tp9408
I1
s(S'weeds'
p9409
tp9410
I9
s(S'popsicle'
p9411
tp9412
I4
s(S'streetpole'
p9413
tp9414
I1
s(S'rockstar'
p9415
tp9416
I2
s(S'enlarge'
p9417
tp9418
I1
s(S'flyer'
p9419
tp9420
I3
s(S'roof'
p9421
tp9422
I12
s(S'serious'
p9423
tp9424
I4
s(S'bmw'
p9425
tp9426
I2
s(S'burger'
p9427
tp9428
I1
s(S'silky'
p9429
tp9430
I1
s(S'video-game'
p9431
tp9432
I1
s(S'question'
p9433
tp9434
I1
s(S'possession'
p9435
tp9436
I5
s(S'3'
tp9437
I16
s(S'belongings'
p9438
tp9439
I7
s(S'stuff'
p9440
tp9441
I32
s(S'harpsichord'
p9442
tp9443
I1
s(S'hand'
p9444
tp9445
I443
s(S'high-fiving'
p9446
tp9447
I1
s(S'beige'
p9448
tp9449
I39
s(S'bulky'
p9450
tp9451
I1
s(S'plate'
p9452
tp9453
I37
s(S'learn'
p9454
tp9455
I6
s(S'electricity'
p9456
tp9457
I1
s(S'khaki'
p9458
tp9459
I10
s(S'boods'
p9460
tp9461
I1
s(S'earphone'
p9462
tp9463
I6
s(S'crack'
p9464
tp9465
I3
s(S'chain'
p9466
tp9467
I32
s(S'fro'
p9468
tp9469
I1
s(S'chasse'
p9470
tp9471
I1
s(S'haul'
p9472
tp9473
I1
s(S'halmets'
p9474
tp9475
I1
s(S'topped'
p9476
tp9477
I1
s(S'hobby'
p9478
tp9479
I1
s(S'pylon'
p9480
tp9481
I2
s(S'flickr'
p9482
tp9483
I1
s(S'pulley'
p9484
tp9485
I5
s(S'keyboard'
p9486
tp9487
I3
s(S'stony'
p9488
tp9489
I2
s(S'to'
p9490
tp9491
I2304
s(S'african-american'
p9492
tp9493
I8
s(S'cami'
p9494
tp9495
I1
s(S'attrative'
p9496
tp9497
I1
s(S'butterfly'
p9498
tp9499
I4
s(S'statute'
p9500
tp9501
I1
s(S'establish'
p9502
tp9503
I1
s(S'gra'
p9504
tp9505
I1
s(S'non'
p9506
tp9507
I1
s(S'mural'
p9508
tp9509
I12
s(S'coppery'
p9510
tp9511
I1
s(S'growl'
p9512
tp9513
I11
s(S'renaissance'
p9514
tp9515
I1
s(S'michael'
p9516
tp9517
I6
s(S'less'
p9518
tp9519
I1
s(S'yarn'
p9520
tp9521
I1
s(S'yougn'
p9522
tp9523
I1
s(S'confrontation'
p9524
tp9525
I2
s(S'handicap'
p9526
tp9527
I3
s(S'blue-eyed'
p9528
tp9529
I1
s(S'frayed'
p9530
tp9531
I1
s(S'dance'
p9532
tp9533
I201
s(S'practice'
p9534
tp9535
I28
s(S'japanese-sponsored'
p9536
tp9537
I1
s(S'shout'
p9538
tp9539
I3
s(S'deep'
p9540
tp9541
I69
s(S'turnaround'
p9542
tp9543
I1
s(S'dirtbed'
p9544
tp9545
I1
s(S'civillians'
p9546
tp9547
I1
s(S'grimace'
p9548
tp9549
I1
s(S'taxi'
p9550
tp9551
I3
s(S'eagle'
p9552
tp9553
I4
s(S'swing'
p9554
tp9555
I464
s(S'walmart'
p9556
tp9557
I2
s(S'stumble'
p9558
tp9559
I1
s(S')'
tp9560
I4
s(S'woman'
p9561
tp9562
I3023
s(S'minnie'
p9563
tp9564
I1
s(S'native'
p9565
tp9566
I10
s(S'teeth'
p9567
tp9568
I37
s(S'colander'
p9569
tp9570
I3
s(S'kiddy'
p9571
tp9572
I1
s(S'donation'
p9573
tp9574
I1
s(S'shite'
p9575
tp9576
I1
s(S'sell'
p9577
tp9578
I17
s(S'acrobatics'
p9579
tp9580
I2
s(S'plushie'
p9581
tp9582
I4
s(S'ink'
p9583
tp9584
I2
s(S'style'
p9585
tp9586
I11
s(S'commercial'
p9587
tp9588
I2
s(S'wispy'
p9589
tp9590
I1
s(S'pom'
p9591
tp9592
I2
s(S'ladder'
p9593
tp9594
I19
s(S'cowboy'
p9595
tp9596
I40
s(S'free'
p9597
tp9598
I7
s(S'mussel'
p9599
tp9600
I1
s(S'mill'
p9601
tp9602
I4
s(S'shoot'
p9603
tp9604
I50
s(S'website'
p9605
tp9606
I2
s(S'tattoo'
p9607
tp9608
I30
s(S'day'
p9609
tp9610
I93
s(S'presentation'
p9611
tp9612
I4
s(S'google'
p9613
tp9614
I2
s(S'boat'
p9615
tp9616
I236
s(S'thoroughly'
p9617
tp9618
I1
s(S'elevation'
p9619
tp9620
I4
s(S'off-roading'
p9621
tp9622
I1
s(S'layup'
p9623
tp9624
I3
s(S'stance'
p9625
tp9626
I2
s(S'grotto'
p9627
tp9628
I1
s(S'casino'
p9629
tp9630
I4
s(S'swimwear'
p9631
tp9632
I2
s(S'remove'
p9633
tp9634
I4
s(S'classical'
p9635
tp9636
I1
s(S'shine'
p9637
tp9638
I15
s(S'tether'
p9639
tp9640
I4
s(S'burnished'
p9641
tp9642
I1
s(S'foreigner'
p9643
tp9644
I1
s(S'compose'
p9645
tp9646
I1
s(S'?'
tp9647
I8
s(S'powered'
p9648
tp9649
I1
s(S'remote'
p9650
tp9651
I1
s(S'lighter-skinned'
p9652
tp9653
I1
s(S'exhibit'
p9654
tp9655
I7
s(S'girder'
p9656
tp9657
I2
s(S'antelope'
p9658
tp9659
I1
s(S'casual'
p9660
tp9661
I3
s(S'extended'
p9662
tp9663
I1
s(S'necklaces'
p9664
tp9665
I1
s(S'numeral'
p9666
tp9667
I1
s(S'raincoat'
p9668
tp9669
I6
s(S'session'
p9670
tp9671
I2
s(S'sidewalk'
p9672
tp9673
I284
s(S'turkey'
p9674
tp9675
I7
s(S'panties'
p9676
tp9677
I1
s(S'barge'
p9678
tp9679
I1
s(S'water-filled'
p9680
tp9681
I1
s(S'howl'
p9682
tp9683
I5
s(S'skimpy'
p9684
tp9685
I12
s(S'necked'
p9686
tp9687
I3
s(S'haircut'
p9688
tp9689
I6
s(S'upon'
p9690
tp9691
I4
s(S'breezeway'
p9692
tp9693
I1
s(S'garner'
p9694
tp9695
I1
s(S'stairway'
p9696
tp9697
I8
s(S'instructor'
p9698
tp9699
I5
s(S'desert'
p9700
tp9701
I40
s(S'clump'
p9702
tp9703
I1
s(S'creep'
p9704
tp9705
I1
s(S'hindu'
p9706
tp9707
I1
s(S'torso-deep'
p9708
tp9709
I1
s(S'skiny'
p9710
tp9711
I1
s(S'barefooted'
p9712
tp9713
I4
s(S'greet'
p9714
tp9715
I5
s(S'enclose'
p9716
tp9717
I7
s(S'baseman'
p9718
tp9719
I5
s(S'fetch'
p9720
tp9721
I50
s(S'look-alike'
p9722
tp9723
I2
s(S'sportwoman'
p9724
tp9725
I1
s(S'tank'
p9726
tp9727
I67
s(S'campsite'
p9728
tp9729
I6
s(S'walkng'
p9730
tp9731
I1
s(S'forested'
p9732
tp9733
I7
s(S'5'
tp9734
I13
s(S'angerly'
p9735
tp9736
I1
s(S'emphatically'
p9737
tp9738
I1
s(S'reacts'
p9739
tp9740
I1
s(S'concern'
p9741
tp9742
I1
s(S'tackled'
p9743
tp9744
I1
s(S'wound'
p9745
tp9746
I2
s(S'grassland'
p9747
tp9748
I1
s(S'rapels'
p9749
tp9750
I1
s(S'bust'
p9751
tp9752
I2
s(S'asian'
p9753
tp9754
I149
s(S'half-dressed'
p9755
tp9756
I1
s(S'knock'
p9757
tp9758
I2
s(S'expression'
p9759
tp9760
I7
s(S'motley'
p9761
tp9762
I1
s(S'angle'
p9763
tp9764
I3
s(S'suv'
p9765
tp9766
I9
s(S'slump'
p9767
tp9768
I1
s(S'longish'
p9769
tp9770
I1
s(S'dye'
p9771
tp9772
I5
s(S'shag'
p9773
tp9774
I1
s(S'black-striped'
p9775
tp9776
I1
s(S'camera'
p9777
tp9778
I530
s(S'waterskier'
p9779
tp9780
I10
s(S'barechested'
p9781
tp9782
I3
s(S'57'
p9783
tp9784
I1
s(S'grss'
p9785
tp9786
I1
s(S'band'
p9787
tp9788
I48
s(S'tumble'
p9789
tp9790
I7
s(S'aside'
p9791
tp9792
I1
s(S'bed'
p9793
tp9794
I116
s(S'net'
p9795
tp9796
I49
s(S'sword'
p9797
tp9798
I17
s(S'numbered'
p9799
tp9800
I10
s(S'quinta'
p9801
tp9802
I1
s(S'kayer'
p9803
tp9804
I1
s(S'collage'
p9805
tp9806
I2
s(S'catc'
p9807
tp9808
I1
s(S'pack'
p9809
tp9810
I30
s(S'keep-away'
p9811
tp9812
I1
s(S'purse'
p9813
tp9814
I41
s(S'cathing'
p9815
tp9816
I1
s(S'signal'
p9817
tp9818
I6
s(S'whitewater'
p9819
tp9820
I5
s(S'hot-air'
p9821
tp9822
I1
s(S'full'
p9823
tp9824
I44
s(S'go-cart'
p9825
tp9826
I3
s(S'padel'
p9827
tp9828
I1
s(S'write'
p9829
tp9830
I13
s(S'snow-gear'
p9831
tp9832
I1
s(S'dge'
p9833
tp9834
I1
s(S'calico'
p9835
tp9836
I2
s(S'straddle'
p9837
tp9838
I6
s(S'flannel'
p9839
tp9840
I8
s(S'clifftop'
p9841
tp9842
I1
s(S'skydiver'
p9843
tp9844
I2
s(S'dishtowel'
p9845
tp9846
I1
s(S'cot'
p9847
tp9848
I5
s(S'lobby'
p9849
tp9850
I4
s(S'maid'
p9851
tp9852
I1
s(S'flowered'
p9853
tp9854
I13
s(S'fireside'
p9855
tp9856
I1
s(S'footpath'
p9857
tp9858
I1
s(S'wheel'
p9859
tp9860
I66
s(S"'s-eye-view"
p9861
tp9862
I1
s(S'prestends'
p9863
tp9864
I1
s(S'open'
p9865
tp9866
I169
s(S'princess'
p9867
tp9868
I2
s(S'clear'
p9869
tp9870
I53
s(S'noce'
p9871
tp9872
I1
s(S'grayhound'
p9873
tp9874
I1
s(S'headscarves'
p9875
tp9876
I1
s(S'ashen'
p9877
tp9878
I1
s(S'themed'
p9879
tp9880
I3
s(S'three'
p9881
tp9882
I1047
s(S'paralell'
p9883
tp9884
I1
s(S'sledder'
p9885
tp9886
I3
s(S'lifeguard'
p9887
tp9888
I1
s(S'consult'
p9889
tp9890
I1
s(S'poke'
p9891
tp9892
I9
s(S'gesture'
p9893
tp9894
I18
s(S'monkey'
p9895
tp9896
I21
s(S'express'
p9897
tp9898
I1
s(S'language'
p9899
tp9900
I3
s(S'tail'
p9901
tp9902
I21
s(S'perpendicular'
p9903
tp9904
I1
s(S'fountain'
p9905
tp9906
I142
s(S'chocolate'
p9907
tp9908
I10
s(S'decorated'
p9909
tp9910
I6
s(S'victory'
p9911
tp9912
I3
s(S'lady'
p9913
tp9914
I200
s(S'carabiner'
p9915
tp9916
I2
s(S'dachshund'
p9917
tp9918
I8
s(S'three-wheeled'
p9919
tp9920
I5
s(S'brown-and-white'
p9921
tp9922
I1
s(S'104'
p9923
tp9924
I2
s(S'counter'
p9925
tp9926
I24
s(S'fasten'
p9927
tp9928
I1
s(S'barb'
p9929
tp9930
I1
s(S'riwal'
p9931
tp9932
I1
s(S'david'
p9933
tp9934
I2
s(S'paraskier'
p9935
tp9936
I1
s(S'pride'
p9937
tp9938
I1
s(S'attach'
p9939
tp9940
I44
s(S'drapped'
p9941
tp9942
I2
s(S'trailer'
p9943
tp9944
I3
s(S'shephard'
p9945
tp9946
I4
s(S'would'
p9947
tp9948
I1
s(S'flood'
p9949
tp9950
I3
s(S'period'
p9951
tp9952
I4
s(S'bend'
p9953
tp9954
I48
s(S'spread'
p9955
tp9956
I25
s(S'japanese'
p9957
tp9958
I14
s(S'an'
p9959
tp9960
I1914
s(S'teal'
p9961
tp9962
I6
s(S'hammer'
p9963
tp9964
I4
s(S'plant'
p9965
tp9966
I41
s(S'him'
p9967
tp9968
I300
s(S'tribal'
p9969
tp9970
I1
s(S'high'
p9971
tp9972
I214
s(S'winner'
p9973
tp9974
I3
s(S'sarong'
p9975
tp9976
I1
s(S'curve'
p9977
tp9978
I19
s(S'mexico'
p9979
tp9980
I2
s(S'windy'
p9981
tp9982
I3
s(S'4-wheeler'
p9983
tp9984
I3
s(S'ballerina'
p9985
tp9986
I5
s(S'trek'
p9987
tp9988
I8
s(S'int'
p9989
tp9990
I5
s(S'outcrop'
p9991
tp9992
I8
s(S'weilding'
p9993
tp9994
I1
s(S'smock'
p9995
tp9996
I2
s(S'after'
p9997
tp9998
I145
s(S'stride'
p9999
tp10000
I5
s(S'peer'
p10001
tp10002
I8
s(S'fancy'
p10003
tp10004
I12
s(S'black'
p10005
tp10006
I2854
s(S'standard'
p10007
tp10008
I4
s(S'bomber'
p10009
tp10010
I1
s(S'obese'
p10011
tp10012
I1
s(S'browse'
p10013
tp10014
I3
s(S'steamy'
p10015
tp10016
I1
s(S'vibrate'
p10017
tp10018
I1
s(S'latter'
p10019
tp10020
I1
s(S'cbs'
p10021
tp10022
I2
s(S'ouside'
p10023
tp10024
I1
s(S'high-fives'
p10025
tp10026
I2
s(S'bouncer'
p10027
tp10028
I2
s(S'quick'
p10029
tp10030
I24
s(S'rippled'
p10031
tp10032
I1
s(S'lighting'
p10033
tp10034
I8
s(S'placemats'
p10035
tp10036
I1
s(S'faith'
p10037
tp10038
I1
s(S'red-brown'
p10039
tp10040
I1
s(S'legging'
p10041
tp10042
I4
s(S'knee-high'
p10043
tp10044
I2
s(S'sandy'
p10045
tp10046
I91
s(S'pearl'
p10047
tp10048
I3
s(S'behind'
p10049
tp10050
I491
s(S'lilly'
p10051
tp10052
I1
s(S'flame'
p10053
tp10054
I16
s(S'uniformed'
p10055
tp10056
I12
s(S'dolly'
p10057
tp10058
I2
s(S'hummer'
p10059
tp10060
I3
s(S'brown-spotted'
p10061
tp10062
I1
s(S'smoky'
p10063
tp10064
I1
s(S'slipper'
p10065
tp10066
I6
s(S'curtsey'
p10067
tp10068
I1
s(S'dirty-blond'
p10069
tp10070
I1
s(S'craft'
p10071
tp10072
I5
s(S'swordsman'
p10073
tp10074
I1
s(S'narrow'
p10075
tp10076
I14
s(S'moss-covered'
p10077
tp10078
I2
s(S'tantrum'
p10079
tp10080
I2
s(S'sweat'
p10081
tp10082
I4
s(S'lei'
p10083
tp10084
I1
s(S'snowboarder'
p10085
tp10086
I175
s(S'sew'
p10087
tp10088
I1
s(S'shallow'
p10089
tp10090
I102
s(S'mainly'
p10091
tp10092
I1
s(S'wreck'
p10093
tp10094
I2
s(S'second-story'
p10095
tp10096
I1
s(S'seattle'
p10097
tp10098
I4
s(S'school-aged'
p10099
tp10100
I1
s(S'billboard'
p10101
tp10102
I7
s(S'enthusiastically'
p10103
tp10104
I2
s(S'42'
p10105
tp10106
I1
s(S'fame'
p10107
tp10108
I1
s(S'zip'
p10109
tp10110
I8
s(S'costume'
p10111
tp10112
I141
s(S'statue'
p10113
tp10114
I55
s(S'horse'
p10115
tp10116
I267
s(S'oppenents'
p10117
tp10118
I1
s(S'photographer'
p10119
tp10120
I26
s(S'thie'
p10121
tp10122
I1
s(S'italy'
p10123
tp10124
I2
s(S'pipe'
p10125
tp10126
I26
s(S'forefront'
p10127
tp10128
I2
s(S'whit'
p10129
tp10130
I2
s(S'slab'
p10131
tp10132
I2
s(S'we'
p10133
tp10134
I2
s(S'picnicker'
p10135
tp10136
I1
s(S'bearer'
p10137
tp10138
I2
s(S'beam'
p10139
tp10140
I20
s(S'rollerblader'
p10141
tp10142
I16
s(S'green'
p10143
tp10144
I924
s(S'ponytailed'
p10145
tp10146
I2
s(S'congratulate'
p10147
tp10148
I1
s(S'diferent'
p10149
tp10150
I1
s(S'standind'
p10151
tp10152
I1
s(S'sucker'
p10153
tp10154
I1
s(S'snakeskin'
p10155
tp10156
I1
s(S'sprinkler'
p10157
tp10158
I56
s(S'sole'
p10159
tp10160
I3
s(S'wink'
p10161
tp10162
I6
s(S'la'
p10163
tp10164
I2
s(S'pastor'
p10165
tp10166
I1
s(S'latte'
p10167
tp10168
I1
s(S'hedge'
p10169
tp10170
I1
s(S'madly'
p10171
tp10172
I2
s(S'brown'
p10173
tp10174
I1995
s(S'beanches'
p10175
tp10176
I1
s(S'handed'
p10177
tp10178
I1
s(S'hunt'
p10179
tp10180
I1
s(S'crock'
p10181
tp10182
I2
s(S'bang'
p10183
tp10184
I3
s(S'cake'
p10185
tp10186
I16
s(S'dancer'
p10187
tp10188
I15
s(S'uptop'
p10189
tp10190
I1
s(S'eject'
p10191
tp10192
I2
s(S'bee'
p10193
tp10194
I7
s(S'blays'
p10195
tp10196
I1
s(S'manequins'
p10197
tp10198
I1
s(S'heap'
p10199
tp10200
I1
s(S'model'
p10201
tp10202
I4
s(S'beat-up'
p10203
tp10204
I1
s(S'manner'
p10205
tp10206
I2
s(S'european'
p10207
tp10208
I7
s(S'rope'
p10209
tp10210
I219
s(S'mansion'
p10211
tp10212
I1
s(S'fog'
p10213
tp10214
I6
s(S'sillhouetted'
p10215
tp10216
I1
s(S'nipple'
p10217
tp10218
I4
s(S'mole'
p10219
tp10220
I1
s(S'miniskirt'
p10221
tp10222
I1
s(S'rafter'
p10223
tp10224
I4
s(S'19'
p10225
tp10226
I3
s(S'shit'
p10227
tp10228
I2
s(S'bounce'
p10229
tp10230
I41
s(S'penguin'
p10231
tp10232
I3
s(S'rodent'
p10233
tp10234
I2
s(S'middle-eastern'
p10235
tp10236
I1
s(S'islamic'
p10237
tp10238
I1
s(S'median'
p10239
tp10240
I1
s(S'spiral'
p10241
tp10242
I1
s(S'wasteland'
p10243
tp10244
I3
s(S'dinghy'
p10245
tp10246
I3
s(S'change'
p10247
tp10248
I6
s(S'circle'
p10249
tp10250
I15
s(S'backward'
p10251
tp10252
I4
s(S'kiddie'
p10253
tp10254
I10
s(S'flower'
p10255
tp10256
I157
s(S'road'
p10257
tp10258
I305
s(S'footage'
p10259
tp10260
I1
s(S'mop'
p10261
tp10262
I2
s(S'cow'
p10263
tp10264
I46
s(S'tuft'
p10265
tp10266
I2
s(S'iced'
p10267
tp10268
I2
s(S'yamaha'
p10269
tp10270
I1
s(S'science'
p10271
tp10272
I1
s(S'figure'
p10273
tp10274
I19
s(S'hooked'
p10275
tp10276
I1
s(S'snowpacked'
p10277
tp10278
I1
s(S'jetski'
p10279
tp10280
I1
s(S'tiny'
p10281
tp10282
I5
s(S'five'
p10283
tp10284
I131
s(S'extinguish'
p10285
tp10286
I2
s(S'pro-america'
p10287
tp10288
I1
s(S'adhd'
p10289
tp10290
I2
s(S'bodyboarder'
p10291
tp10292
I1
s(S'wmoan'
p10293
tp10294
I1
s(S'dark-haired'
p10295
tp10296
I6
s(S'cyclist'
p10297
tp10298
I72
s(S'lemonade'
p10299
tp10300
I1
s(S'sunny'
p10301
tp10302
I45
s(S'propeller'
p10303
tp10304
I1
s(S'foggy'
p10305
tp10306
I14
s(S'camo'
p10307
tp10308
I4
s(S'ferrett'
p10309
tp10310
I1
s(S'rough'
p10311
tp10312
I35
s(S'hill'
p10313
tp10314
I366
s(S'embankment'
p10315
tp10316
I2
s(S'support'
p10317
tp10318
I10
s(S'wander'
p10319
tp10320
I1
s(S'upfront'
p10321
tp10322
I1
s(S'vertical'
p10323
tp10324
I6
s(S'waterfall'
p10325
tp10326
I66
s(S'puppet'
p10327
tp10328
I2
s(S'weirmeiner'
p10329
tp10330
I1
s(S'bare'
p10331
tp10332
I22
s(S'plastic'
p10333
tp10334
I104
s(S'roundabout'
p10335
tp10336
I1
s(S'wash'
p10337
tp10338
I7
s(S'regalia'
p10339
tp10340
I2
s(S'ractrack'
p10341
tp10342
I1
s(S'wristband'
p10343
tp10344
I3
s(S'bespectacled'
p10345
tp10346
I1
s(S'palestinian'
p10347
tp10348
I1
s(S'off'
p10349
tp10350
I526
s(S'pop'
p10351
tp10352
I16
s(S'progressively'
p10353
tp10354
I1
s(S'apparel'
p10355
tp10356
I1
s(S'panhandler'
p10357
tp10358
I1
s(S'team'
p10359
tp10360
I161
s(S'flare'
p10361
tp10362
I3
s(S'force'
p10363
tp10364
I2
s(S'descent'
p10365
tp10366
I3
s(S'vert'
p10367
tp10368
I1
s(S'horserider'
p10369
tp10370
I1
s(S'threaten'
p10371
tp10372
I1
s(S'tarp'
p10373
tp10374
I8
s(S'safari'
p10375
tp10376
I2
s(S'hairdo'
p10377
tp10378
I1
s(S'downward'
p10379
tp10380
I3
s(S'garter'
p10381
tp10382
I4
s(S'mottled'
p10383
tp10384
I2
s(S'high-rise'
p10385
tp10386
I1
s(S'fang'
p10387
tp10388
I2
s(S'indicate'
p10389
tp10390
I1
s(S'sync'
p10391
tp10392
I1
s(S'figurine'
p10393
tp10394
I1
s(S'treetop'
p10395
tp10396
I1
s(S'tye-dyed'
p10397
tp10398
I1
s(S'life'
p10399
tp10400
I69
s(S'gallery'
p10401
tp10402
I14
s(S'bulge'
p10403
tp10404
I1
s(S'sunrise'
p10405
tp10406
I2
s(S'housekeep'
p10407
tp10408
I1
s(S'stuntman'
p10409
tp10410
I2
s(S's.c.u.b.a'
p10411
tp10412
I1
s(S'casually'
p10413
tp10414
I2
s(S','
tp10415
I2409
s(S'pristine'
p10416
tp10417
I1
s(S'construction'
p10418
tp10419
I25
s(S'adventure'
p10420
tp10421
I1
s(S'flexable'
p10422
tp10423
I1
s(S'bleach'
p10424
tp10425
I1
s(S'sip'
p10426
tp10427
I5
s(S'hope'
p10428
tp10429
I3
s(S'judo'
p10430
tp10431
I1
s(S'sticker'
p10432
tp10433
I1
s(S'twisty'
p10434
tp10435
I1
s(S'wheeler'
p10436
tp10437
I12
s(S'see'
p10438
tp10439
I52
s(S'entertainment'
p10440
tp10441
I1
s(S'twp'
p10442
tp10443
I1
s(S'not'
p10444
tp10445
I14
s(S'dirt-covered'
p10446
tp10447
I1
s(S'coaster-like'
p10448
tp10449
I1
s(S'lip'
p10450
tp10451
I18
s(S'tub'
p10452
tp10453
I9
s(S'competeition'
p10454
tp10455
I1
s(S'hug'
p10456
tp10457
I85
s(S'dirtracing'
p10458
tp10459
I1
s(S'ragged'
p10460
tp10461
I3
s(S'frame'
p10462
tp10463
I28
s(S'fly-fish'
p10464
tp10465
I1
s(S'aboriginal'
p10466
tp10467
I1
s(S'obstacle'
p10468
tp10469
I99
s(S'enclosure'
p10470
tp10471
I7
s(S'hoist'
p10472
tp10473
I1
s(S'face'
p10474
tp10475
I467
s(S'troll'
p10476
tp10477
I1
s(S'gun'
p10478
tp10479
I29
s(S'erupts'
p10480
tp10481
I1
s(S'thumbs-up'
p10482
tp10483
I2
s(S'soaker'
p10484
tp10485
I1
s(S'bolt'
p10486
tp10487
I1
s(S'tuxedo'
p10488
tp10489
I13
s(S'yoga'
p10490
tp10491
I4
s(S'resemble'
p10492
tp10493
I1
s(S'investigate'
p10494
tp10495
I6
s(S'wildflower'
p10496
tp10497
I3
s(S'seat'
p10498
tp10499
I79
s(S'bandaged'
p10500
tp10501
I2
s(S'forest'
p10502
tp10503
I132
s(S'dodge'
p10504
tp10505
I5
s(S'cuddle'
p10506
tp10507
I2
s(S'youn'
p10508
tp10509
I3
s(S'mouse'
p10510
tp10511
I9
s(S'spay'
p10512
tp10513
I1
s(S'fisheye'
p10514
tp10515
I1
s(S'res'
p10516
tp10517
I1
s(S'coiled'
p10518
tp10519
I1
s(S'entertain'
p10520
tp10521
I3
s(S'bow-tie'
p10522
tp10523
I2
s(S'mid-leap'
p10524
tp10525
I2
s(S'cutout'
p10526
tp10527
I13
s(S'spanish-style'
p10528
tp10529
I1
s(S'wooded'
p10530
tp10531
I79
s(S'zip-line'
p10532
tp10533
I1
s(S'pigtail'
p10534
tp10535
I14
s(S'inspect'
p10536
tp10537
I8
s(S'reddish'
p10538
tp10539
I7
s(S'share'
p10540
tp10541
I17
s(S'candle'
p10542
tp10543
I19
s(S'leaf-covered'
p10544
tp10545
I1
s(S'shadow'
p10546
tp10547
I28
s(S'flower-bed'
p10548
tp10549
I1
s(S'banjo'
p10550
tp10551
I2
s(S'any'
p10552
tp10553
I2
s(S'mandolin'
p10554
tp10555
I1
s(S'labradoodle'
p10556
tp10557
I1
s(S'aerial'
p10558
tp10559
I7
s(S'girls'
p10560
tp10561
I2
s(S'material'
p10562
tp10563
I4
s(S'harness'
p10564
tp10565
I72
s(S'parlor'
p10566
tp10567
I2
s(S'mowed'
p10568
tp10569
I3
s(S'horseshoe'
p10570
tp10571
I7
s(S'worried'
p10572
tp10573
I2
s(S'nestle'
p10574
tp10575
I1
s(S'ornate'
p10576
tp10577
I4
s(S'solitude'
p10578
tp10579
I1
s(S'laden'
p10580
tp10581
I1
s(S'freddy'
p10582
tp10583
I1
s(S'backpacker'
p10584
tp10585
I9
s(S'about'
p10586
tp10587
I110
s(S'loaves'
p10588
tp10589
I1
s(S'razzling'
p10590
tp10591
I1
s(S'browm'
p10592
tp10593
I1
s(S'launcher'
p10594
tp10595
I2
s(S'earpiece'
p10596
tp10597
I3
s(S'watches'
p10598
tp10599
I1
s(S'pincer'
p10600
tp10601
I1
s(S'demonstrate'
p10602
tp10603
I4
s(S'zoo'
p10604
tp10605
I3
s(S'shore'
p10606
tp10607
I113
s(S'foldable'
p10608
tp10609
I1
s(S'ever'
p10610
tp10611
I1
s(S'locomotive'
p10612
tp10613
I1
s(S'tug-o-war'
p10614
tp10615
I3
s(S'puma'
p10616
tp10617
I2
s(S'subway'
p10618
tp10619
I59
s(S'onrushing'
p10620
tp10621
I1
s(S'log'
p10622
tp10623
I52
s(S'advantage'
p10624
tp10625
I1
s(S'pace'
p10626
tp10627
I2
s(S'mountainside'
p10628
tp10629
I21
s(S'beverage'
p10630
tp10631
I12
s(S'speedway'
p10632
tp10633
I1
s(S'slope'
p10634
tp10635
I72
s(S'crab'
p10636
tp10637
I4
s(S'thousand'
p10638
tp10639
I1
s(S'sneaker'
p10640
tp10641
I12
s(S'sill'
p10642
tp10643
I1
s(S'rival'
p10644
tp10645
I5
s(S'broom'
p10646
tp10647
I10
s(S'trapped'
p10648
tp10649
I1
s(S'!'
tp10650
I8
s(S'temple'
p10651
tp10652
I3
s(S'midair'
p10653
tp10654
I149
s(S'facepaintings'
p10655
tp10656
I1
s(S'symbol'
p10657
tp10658
I1
s(S'closeout'
p10659
tp10660
I1
s(S'equipment'
p10661
tp10662
I65
s(S'straggle'
p10663
tp10664
I1
s(S'skyscraper'
p10665
tp10666
I6
s(S'brazilian'
p10667
tp10668
I1
s(S'wipe'
p10669
tp10670
I9
s(S'column'
p10671
tp10672
I9
s(S'set'
p10673
tp10674
I149
s(S'ont'
p10675
tp10676
I1
s(S'downtown'
p10677
tp10678
I4
s(S'swan'
p10679
tp10680
I22
s(S'posh'
p10681
tp10682
I1
s(S'bright'
p10683
tp10684
I125
s(S'boa'
p10685
tp10686
I6
s(S'.'
tp10687
I30016
s(S'detector'
p10688
tp10689
I1
s(S'trunk'
p10690
tp10691
I88
s(S'hurricane'
p10692
tp10693
I1
s(S'natural'
p10694
tp10695
I13
s(S'hairnet'
p10696
tp10697
I1
s(S'porch'
p10698
tp10699
I14
s(S'jaywalk'
p10700
tp10701
I1
s(S'daft'
p10702
tp10703
I1
s(S'cocker'
p10704
tp10705
I1
s(S'spectator'
p10706
tp10707
I41
s(S'masonry'
p10708
tp10709
I1
s(S'control'
p10710
tp10711
I14
s(S'7'
tp10712
I3
s(S'each'
p10713
tp10714
I318
s(S'afro'
p10715
tp10716
I3
s(S'skinned'
p10717
tp10718
I12
s(S'rear'
p10719
tp10720
I16
s(S'country'
p10721
tp10722
I13
s(S'illuminate'
p10723
tp10724
I2
s(S'juice'
p10725
tp10726
I6
s(S'swinger'
p10727
tp10728
I1
s(S'robot'
p10729
tp10730
I7
s(S'cleavage'
p10731
tp10732
I1
s(S'paper'
p10733
tp10734
I63
s(S'melt'
p10735
tp10736
I8
s(S'are'
p10737
tp10738
I5
s(S'waterpark'
p10739
tp10740
I1
s(S'perfomed'
p10741
tp10742
I1
s(S'scary'
p10743
tp10744
I5
s(S'different'
p10745
tp10746
I28
s(S'whack'
p10747
tp10748
I3
s(S'novel'
p10749
tp10750
I1
s(S'global'
p10751
tp10752
I1
s(S'tote'
p10753
tp10754
I1
s(S'atrium'
p10755
tp10756
I1
s(S'cautiously'
p10757
tp10758
I1
s(S'seem'
p10759
tp10760
I6
s(S'board'
p10761
tp10762
I113
s(S'lagoon'
p10763
tp10764
I3
s(S'cricket'
p10765
tp10766
I31
s(S'stack'
p10767
tp10768
I4
s(S'tear'
p10769
tp10770
I4
s(S'desolate'
p10771
tp10772
I2
s(S'best'
p10773
tp10774
I2
s(S'unknown'
p10775
tp10776
I3
s(S'yellow'
p10777
tp10778
I930
s(S'fundraise'
p10779
tp10780
I1
s(S'payfully'
p10781
tp10782
I1
s(S'print'
p10783
tp10784
I13
s(S'tandem'
p10785
tp10786
I3
s(S'acoustic'
p10787
tp10788
I1
s(S'torii'
p10789
tp10790
I1
s(S'brick'
p10791
tp10792
I124
s(S'jello'
p10793
tp10794
I1
s(S'cramp'
p10795
tp10796
I2
s(S'wall'
p10797
tp10798
I448
s(S'cardigan'
p10799
tp10800
I1
s(S'lapel'
p10801
tp10802
I1
s(S'domino'
p10803
tp10804
I8
s(S'buggy'
p10805
tp10806
I4
s(S'red-seated'
p10807
tp10808
I1
s(S'tuxes'
p10809
tp10810
I2
s(S'keel'
p10811
tp10812
I1
s(S'sick'
p10813
tp10814
I1
s(S'vase'
p10815
tp10816
I1
s(S'peep'
p10817
tp10818
I1
s(S'feed'
p10819
tp10820
I19
s(S'harvest'
p10821
tp10822
I1
s(S'skid'
p10823
tp10824
I2
s(S'clasp'
p10825
tp10826
I2
s(S'sofa'
p10827
tp10828
I14
s(S'-'
tp10829
I2
s(S'powerwash'
p10830
tp10831
I1
s(S'biplane'
p10832
tp10833
I5
s(S'trundle'
p10834
tp10835
I1
s(S'bun'
p10836
tp10837
I1
s(S'grind'
p10838
tp10839
I52
s(S'guy'
p10840
tp10841
I239
s(S'slalom-like'
p10842
tp10843
I1
s(S'cautious'
p10844
tp10845
I1
s(S'diry'
p10846
tp10847
I1
s(S'landfill'
p10848
tp10849
I1
s(S'windowsill'
p10850
tp10851
I2
s(S'gas'
p10852
tp10853
I8
s(S'thrower'
p10854
tp10855
I1
s(S'splash'
p10856
tp10857
I206
s(S'bin'
p10858
tp10859
I6
s(S'iron'
p10860
tp10861
I3
s(S'blond-hair'
p10862
tp10863
I1
s(S'desk'
p10864
tp10865
I11
s(S'oceanside'
p10866
tp10867
I1
s(S'circumvent'
p10868
tp10869
I1
s(S'rural'
p10870
tp10871
I34
s(S'passage'
p10872
tp10873
I1
s(S'straw'
p10874
tp10875
I26
s(S'footbride'
p10876
tp10877
I1
s(S'chair'
p10878
tp10879
I148
s(S'quarterback'
p10880
tp10881
I8
s(S'drum'
p10882
tp10883
I24
s(S'pensive'
p10884
tp10885
I1
s(S'crosslegged'
p10886
tp10887
I2
s(S'hitter'
p10888
tp10889
I2
s(S'concrete'
p10890
tp10891
I82
s(S'greyhound'
p10892
tp10893
I101
s(S'white-metal'
p10894
tp10895
I1
s(S'childing'
p10896
tp10897
I1
s(S'ticket'
p10898
tp10899
I11
s(S'tangle'
p10900
tp10901
I2
s(S'animal'
p10902
tp10903
I102
s(S'mma'
p10904
tp10905
I1
s(S'weather'
p10906
tp10907
I10
s(S'id'
p10908
tp10909
I1
s(S'hose'
p10910
tp10911
I38
s(S'spike'
p10912
tp10913
I6
s(S'flap'
p10914
tp10915
I4
s(S'lens'
p10916
tp10917
I5
s(S'scrimmage'
p10918
tp10919
I2
s(S'polka'
p10920
tp10921
I12
s(S'hotel'
p10922
tp10923
I6
s(S'quiet'
p10924
tp10925
I2
s(S'virtual'
p10926
tp10927
I1
s(S'wakeboards'
p10928
tp10929
I3
s(S'baseball'
p10930
tp10931
I220
s(S'the'
p10932
tp10933
I7903
s(S'cavern'
p10934
tp10935
I1
s(S'sundress'
p10936
tp10937
I4
s(S'antic'
p10938
tp10939
I1
s(S'multi-cultural'
p10940
tp10941
I1
s(S'cruise'
p10942
tp10943
I1
s(S'jomps'
p10944
tp10945
I1
s(S'amaze'
p10946
tp10947
I2
s(S'narby'
p10948
tp10949
I1
s(S'sprint'
p10950
tp10951
I13
s(S'unique'
p10952
tp10953
I4
s(S'long-beaked'
p10954
tp10955
I1
s(S'flier'
p10956
tp10957
I1
s(S'marathon'
p10958
tp10959
I9
s(S'shady'
p10960
tp10961
I3
s(S'labrador'
p10962
tp10963
I7
s(S'beaten'
p10964
tp10965
I1
s(S'form'
p10966
tp10967
I5
s(S'twisted'
p10968
tp10969
I1
s(S'ferry'
p10970
tp10971
I4
s(S'dark-headed'
p10972
tp10973
I1
s(S'attentively'
p10974
tp10975
I1
s(S'spit'
p10976
tp10977
I4
s(S'males'
p10978
tp10979
I1
s(S'add'
p10980
tp10981
I1
s(S'maintain'
p10982
tp10983
I1
s(S'muscular'
p10984
tp10985
I7
s(S'map'
p10986
tp10987
I2
s(S'brindle-colored'
p10988
tp10989
I1
s(S'signature'
p10990
tp10991
I1
s(S'protective'
p10992
tp10993
I16
s(S'motorcross'
p10994
tp10995
I2
s(S'ruin'
p10996
tp10997
I3
s(S'monster'
p10998
tp10999
I8
s(S'meetinghall'
p11000
tp11001
I1
s(S'zoom'
p11002
tp11003
I2
s(S'throughwindow'
p11004
tp11005
I1
s(S'frosty'
p11006
tp11007
I2
s(S'green-colored'
p11008
tp11009
I1
s(S'toe'
p11010
tp11011
I5
s(S'prepare'
p11012
tp11013
I74
s(S'kitty'
p11014
tp11015
I5
s(S'while'
p11016
tp11017
I1443
s(S'sunhat'
p11018
tp11019
I1
s(S'perch'
p11020
tp11021
I7
s(S'vehicle'
p11022
tp11023
I78
s(S'secure'
p11024
tp11025
I2
s(S'sumo'
p11026
tp11027
I13
s(S'glee'
p11028
tp11029
I1
s(S'mound'
p11030
tp11031
I26
s(S'cloth'
p11032
tp11033
I26
s(S'pitted'
p11034
tp11035
I1
s(S'birthday'
p11036
tp11037
I13
s(S'video'
p11038
tp11039
I34
s(S'redish'
p11040
tp11041
I1
s(S'wader'
p11042
tp11043
I1
s(S'balance'
p11044
tp11045
I64
s(S'information'
p11046
tp11047
I2
s(S'smiff'
p11048
tp11049
I1
s(S'apartment'
p11050
tp11051
I7
s(S'too'
p11052
tp11053
I6
s(S'rusty'
p11054
tp11055
I7
s(S'lifesaver'
p11056
tp11057
I1
s(S'stove'
p11058
tp11059
I10
s(S'lipstick'
p11060
tp11061
I4
s(S'watery'
p11062
tp11063
I5
s(S'headless'
p11064
tp11065
I1
s(S'breakdances'
p11066
tp11067
I1
s(S'port'
p11068
tp11069
I3
s(S'touchline'
p11070
tp11071
I1
s(S'rustic'
p11072
tp11073
I1
s(S'semi-formal'
p11074
tp11075
I1
s(S'backstage'
p11076
tp11077
I1
s(S'swimsuit'
p11078
tp11079
I53
s(S'frozen'
p11080
tp11081
I17
s(S'league'
p11082
tp11083
I5
s(S'speedskater'
p11084
tp11085
I1
s(S'amazed'
p11086
tp11087
I1
s(S'navigate'
p11088
tp11089
I11
s(S'nudge'
p11090
tp11091
I1
s(S'tent'
p11092
tp11093
I66
s(S'swimmer'
p11094
tp11095
I30
s(S'waist'
p11096
tp11097
I13
s(S'joker'
p11098
tp11099
I1
s(S'overweight'
p11100
tp11101
I5
s(S'level'
p11102
tp11103
I1
s(S'umbrella'
p11104
tp11105
I85
s(S'brightly-colored'
p11106
tp11107
I3
s(S'son'
p11108
tp11109
I8
s(S'jumpy'
p11110
tp11111
I1
s(S'attentive'
p11112
tp11113
I1
s(S'tree-covered'
p11114
tp11115
I2
s(S'beijing'
p11116
tp11117
I1
s(S'entrance'
p11118
tp11119
I3
s(S'awkwardly'
p11120
tp11121
I1
s(S'amish'
p11122
tp11123
I3
s(S'coutryside'
p11124
tp11125
I1
s(S'pain'
p11126
tp11127
I4
s(S'furniture'
p11128
tp11129
I7
s(S'peace'
p11130
tp11131
I23
s(S'whips'
p11132
tp11133
I1
s(S'through'
p11134
tp11135
I1547
s(S'surfung'
p11136
tp11137
I1
s(S'waterskiis'
p11138
tp11139
I1
s(S'backless'
p11140
tp11141
I2
s(S'toyota'
p11142
tp11143
I1
s(S'needlepoint'
p11144
tp11145
I1
s(S'musician'
p11146
tp11147
I15
s(S'rod'
p11148
tp11149
I6
s(S'beer'
p11150
tp11151
I43
s(S'press'
p11152
tp11153
I6
s(S'spin-art'
p11154
tp11155
I1
s(S'churn'
p11156
tp11157
I2
s(S'ac'
p11158
tp11159
I2
s(S'lap'
p11160
tp11161
I32
s(S'footwork'
p11162
tp11163
I1
s(S'lifevest'
p11164
tp11165
I1
s(S'subject'
p11166
tp11167
I2
s(S'redwood'
p11168
tp11169
I1
s(S'roughhouse'
p11170
tp11171
I2
s(S'quilt'
p11172
tp11173
I3
s(S'song'
p11174
tp11175
I5
s(S'zippered'
p11176
tp11177
I1
s(S'everywhere'
p11178
tp11179
I8
s(S'pond'
p11180
tp11181
I70
s(S're'
p11182
tp11183
I1
s(S'aross'
p11184
tp11185
I1
s(S'finley'
p11186
tp11187
I2
s(S'rower'
p11188
tp11189
I3
s(S'circus'
p11190
tp11191
I1
s(S'glide'
p11192
tp11193
I16
s(S'largley'
p11194
tp11195
I1
s(S'twenties'
p11196
tp11197
I1
s(S'lab'
p11198
tp11199
I23
s(S'defensive'
p11200
tp11201
I2
s(S'woamn'
p11202
tp11203
I1
s(S'clothing'
p11204
tp11205
I90
s(S'goose'
p11206
tp11207
I3
s(S'dock'
p11208
tp11209
I67
s(S'twin'
p11210
tp11211
I2
s(S'snow'
p11212
tp11213
I1181
s(S'duffel'
p11214
tp11215
I2
s(S'tall'
p11216
tp11217
I111
s(S'gymnastic'
p11218
tp11219
I4
s(S'crew'
p11220
tp11221
I2
s(S';'
tp11222
I23
s(S'gated'
p11223
tp11224
I4
s(S'pastel'
p11225
tp11226
I2
s(S'softball'
p11227
tp11228
I31
s(S'graffitti'
p11229
tp11230
I1
s(S'think'
p11231
tp11232
I3
s(S'hoop'
p11233
tp11234
I65
s(S'pug'
p11235
tp11236
I5
s(S'snowpile'
p11237
tp11238
I1
s(S'dave'
p11239
tp11240
I1
s(S'leap'
p11241
tp11242
I273
s(S'pair'
p11243
tp11244
I19
s(S'our'
p11245
tp11246
I2
s(S'dodgeball'
p11247
tp11248
I2
s(S'dingo'
p11249
tp11250
I1
s(S'antique'
p11251
tp11252
I2
s(S'among'
p11253
tp11254
I33
s(S'leafy'
p11255
tp11256
I14
s(S'diagram'
p11257
tp11258
I1
s(S'partly'
p11259
tp11260
I5
s(S'sock'
p11261
tp11262
I7
s(S'wild'
p11263
tp11264
I9
s(S'pine'
p11265
tp11266
I19
s(S'yell'
p11267
tp11268
I12
s(S'doggy'
p11269
tp11270
I1
s(S'kawasaki'
p11271
tp11272
I2
s(S'canvas'
p11273
tp11274
I4
s(S'riverwater'
p11275
tp11276
I1
s(S'powerful'
p11277
tp11278
I1
s(S'goldenrod'
p11279
tp11280
I1
s(S'teammate'
p11281
tp11282
I19
s(S'crossbones'
p11283
tp11284
I7
s(S'buster'
p11285
tp11286
I2
s(S'fiels'
p11287
tp11288
I1
s(S'touch'
p11289
tp11290
I52
s(S'score'
p11291
tp11292
I11
s(S'backyard'
p11293
tp11294
I49
s(S'bedroll'
p11295
tp11296
I1
s(S'injured'
p11297
tp11298
I5
s(S'electronic'
p11299
tp11300
I7
s(S'peolple'
p11301
tp11302
I1
s(S'seafood'
p11303
tp11304
I1
s(S'bartender'
p11305
tp11306
I1
s(S'fast-food'
p11307
tp11308
I1
s(S'cobblestone'
p11309
tp11310
I6
s(S'collie'
p11311
tp11312
I23
s(S'clover-filled'
p11313
tp11314
I1
s(S'all-white'
p11315
tp11316
I1
s(S'bout'
p11317
tp11318
I1
s(S'wuth'
p11319
tp11320
I1
s(S'have'
p11321
tp11322
I506
s(S'butt'
p11323
tp11324
I5
s(S'swampy'
p11325
tp11326
I4
s(S'officer'
p11327
tp11328
I32
s(S'equpitment'
p11329
tp11330
I1
s(S'national'
p11331
tp11332
I1
s(S'1'
tp11333
I1
s(S'washington'
p11334
tp11335
I1
s(S'beyond'
p11336
tp11337
I5
s(S'handwritten'
p11338
tp11339
I1
s(S'stadium'
p11340
tp11341
I29
s(S'penske'
p11342
tp11343
I3
s(S'dangerous'
p11344
tp11345
I2
s(S'superman'
p11346
tp11347
I7
s(S'snowshovel'
p11348
tp11349
I1
s(S'energetic'
p11350
tp11351
I1
s(S'course'
p11352
tp11353
I106
s(S'offer'
p11354
tp11355
I6
s(S'brownstone'
p11356
tp11357
I1
s(S'gravel'
p11358
tp11359
I36
s(S'schoolyard'
p11360
tp11361
I1
s(S'salt'
p11362
tp11363
I1
s(S'cooper'
p11364
tp11365
I1
s(S'certificate'
p11366
tp11367
I2
s(S'canadian'
p11368
tp11369
I1
s(S'need'
p11370
tp11371
I2
s(S'quad'
p11372
tp11373
I4
s(S'pave'
p11374
tp11375
I2
s(S'crochet'
p11376
tp11377
I1
s(S'phone'
p11378
tp11379
I45
s(S'puff'
p11380
tp11381
I4
s(S'mini-trampoline'
p11382
tp11383
I1
s(S'piece'
p11384
tp11385
I52
s(S'clowds'
p11386
tp11387
I1
s(S'wheelbarrow'
p11388
tp11389
I8
s(S'photograph'
p11390
tp11391
I53
s(S'helplessly'
p11392
tp11393
I1
s(S'outwards'
p11394
tp11395
I2
s(S'attempted'
p11396
tp11397
I1
s(S'penzance'
p11398
tp11399
I2
s(S'brindle-coated'
p11400
tp11401
I1
s(S'emblazon'
p11402
tp11403
I1
s(S'await'
p11404
tp11405
I4
s(S'area'
p11406
tp11407
I297
s(S'whild'
p11408
tp11409
I1
s(S'knuckle'
p11410
tp11411
I1
s(S'unmanned'
p11412
tp11413
I2
s(S'extremely'
p11414
tp11415
I1
s(S'duel'
p11416
tp11417
I1
s(S'frisbee'
p11418
tp11419
I242
s(S'speak'
p11420
tp11421
I33
s(S'mic'
p11422
tp11423
I1
s(S'untouched'
p11424
tp11425
I1
s(S'biohazard'
p11426
tp11427
I1
s(S'flautist'
p11428
tp11429
I1
s(S'recital'
p11430
tp11431
I1
s(S'goggles'
p11432
tp11433
I52
s(S'tipped'
p11434
tp11435
I1
s(S'morning'
p11436
tp11437
I4
s(S'nightclub'
p11438
tp11439
I3
s(S'enclosed'
p11440
tp11441
I3
s(S'nussle'
p11442
tp11443
I1
s(S'on'
p11444
tp11445
I8008
s(S'armband'
p11446
tp11447
I1
s(S'portrait'
p11448
tp11449
I4
s(S'siren'
p11450
tp11451
I1
s(S'shortstop'
p11452
tp11453
I1
s(S'indoor'
p11454
tp11455
I29
s(S'creamy'
p11456
tp11457
I1
s(S'drift'
p11458
tp11459
I5
s(S'defecate'
p11460
tp11461
I1
s(S'vessel'
p11462
tp11463
I1
s(S'news'
p11464
tp11465
I2
s(S'curl'
p11466
tp11467
I5
s(S'gatorade'
p11468
tp11469
I1
s(S'energizer'
p11470
tp11471
I3
s(S'region'
p11472
tp11473
I2
s(S'between'
p11474
tp11475
I98
s(S'telescope'
p11476
tp11477
I8
s(S'biscuit'
p11478
tp11479
I1
s(S'scruffy'
p11480
tp11481
I3
s(S'colorful'
p11482
tp11483
I177
s(S'chisel'
p11484
tp11485
I1
s(S'stylish'
p11486
tp11487
I1
s(S'themselves'
p11488
tp11489
I15
s(S'braid'
p11490
tp11491
I4
s(S'visor'
p11492
tp11493
I1
s(S'supervise'
p11494
tp11495
I1
s(S'c'
tp11496
I1
s(S'identically'
p11497
tp11498
I2
s(S'ham'
p11499
tp11500
I1
s(S'unshaven'
p11501
tp11502
I1
s(S'needle'
p11503
tp11504
I2
s(S'nech'
p11505
tp11506
I1
s(S'vary'
p11507
tp11508
I3
s(S'negotiate'
p11509
tp11510
I1
s(S'cook'
p11511
tp11512
I15
s(S'skeptically'
p11513
tp11514
I1
s(S'aerobics'
p11515
tp11516
I2
s(S'multilple'
p11517
tp11518
I1
s(S'snowmobiler'
p11519
tp11520
I2
s(S'bury'
p11521
tp11522
I7
s(S'create'
p11523
tp11524
I12
s(S'early'
p11525
tp11526
I3
s(S'fling'
p11527
tp11528
I6
s(S'element'
p11529
tp11530
I1
s(S'grab'
p11531
tp11532
I37
s(S'bunchh'
p11533
tp11534
I1
s(S'valley'
p11535
tp11536
I18
s(S'sheer'
p11537
tp11538
I13
s(S'backwards'
p11539
tp11540
I19
s(S'jumpinjg'
p11541
tp11542
I1
s(S'litle'
p11543
tp11544
I1
s(S'readied'
p11545
tp11546
I1
s(S'stair'
p11547
tp11548
I94
s(S'sparkle'
p11549
tp11550
I1
s(S'impress'
p11551
tp11552
I1
s(S'armstand'
p11553
tp11554
I1
s(S'focus'
p11555
tp11556
I6
s(S'tatoo'
p11557
tp11558
I1
s(S'desperate'
p11559
tp11560
I1
s(S'glance'
p11561
tp11562
I3
s(S'protester'
p11563
tp11564
I3
s(S'unfurled'
p11565
tp11566
I1
s(S'cartwheel'
p11567
tp11568
I8
s(S'seek'
p11569
tp11570
I2
s(S'anthem'
p11571
tp11572
I1
s(S'north'
p11573
tp11574
I2
s(S'euro'
p11575
tp11576
I1
s(S'livestock'
p11577
tp11578
I3
s(S'whistle'
p11579
tp11580
I4
s(S'tired'
p11581
tp11582
I1
s(S'scatter'
p11583
tp11584
I1
s(S'rollerskater'
p11585
tp11586
I3
s(S'different-colored'
p11587
tp11588
I1
s(S'flyaway'
p11589
tp11590
I1
s(S'cause'
p11591
tp11592
I4
s(S'building'
p11593
tp11594
I417
s(S'bump'
p11595
tp11596
I4
s(S'daughter'
p11597
tp11598
I13
s(S'long-distance'
p11599
tp11600
I1
s(S'built'
p11601
tp11602
I1
s(S'barack'
p11603
tp11604
I2
s(S'office'
p11605
tp11606
I11
s(S'scoop'
p11607
tp11608
I2
s(S'rubble'
p11609
tp11610
I2
s(S'two-wheeled'
p11611
tp11612
I1
s(S'race'
p11613
tp11614
I514
s(S'draft'
p11615
tp11616
I2
s(S'dalmatian'
p11617
tp11618
I8
s(S'dine'
p11619
tp11620
I4
s(S'occur'
p11621
tp11622
I1
s(S'spaghetti'
p11623
tp11624
I3
s(S'arizona'
p11625
tp11626
I1
s(S'shirtless'
p11627
tp11628
I74
s(S'deeper'
p11629
tp11630
I1
s(S'asphalt'
p11631
tp11632
I6
s(S'almost-pristine'
p11633
tp11634
I1
s(S"o'clock"
p11635
tp11636
I1
s(S'contestant'
p11637
tp11638
I2
stRp11639
.