cnltk.probability
FreqDist
p0
((dp1
(S'play'
p2
S'baseball'
p3
tp4
I2
s(S'display'
p5
S'record'
p6
tp7
I1
s(S'be'
p8
S'line'
p9
tp10
I7
s(S'put'
p11
S'rubber'
p12
tp13
I1
s(S'sit'
p14
S'baby'
p15
tp16
I1
s(S'let'
p17
S'blow'
p18
tp19
I1
s(S'hold'
p20
S'cigarette'
p21
tp22
I3
s(S'say'
p23
S'dinner'
p24
tp25
I3
s(S'jump'
p26
S'show'
p27
tp28
I2
s(S'wear'
p29
S'logo'
p30
tp31
I2
s(S'look'
p32
S'man'
p33
tp34
I2
s(S'stretch'
p35
S'ceiling'
p36
tp37
I1
s(S'be'
p38
S'team'
p39
tp40
I2
s(S'crossing'
p41
S'stream'
p42
tp43
I1
s(S'read'
p44
S'board'
p45
tp46
I1
s(S'wait'
p47
S'bag'
p48
tp49
I1
s(S'wear'
p50
S'end'
p51
tp52
I1
s(S'raise'
p53
S'hand'
p54
tp55
I1
s(S'be'
p56
S'lap'
p57
tp58
I2
s(S'hang'
p59
S'rope'
p60
tp61
I5
s(S'be'
p62
S'box'
p63
tp64
I5
s(S'be'
p65
S'film'
p66
tp67
I1
s(S'appear'
p68
S'side'
p69
tp70
I1
s(S'be'
p71
S'front'
p72
tp73
I84
s(S'read'
p74
S'newspaper'
p75
tp76
I4
s(S'carry'
p77
S'area'
p78
tp79
I2
s(S'follow'
p80
S'path'
p81
tp82
I1
s(S'return'
p83
S'snow'
p84
tp85
I1
s(S'pose'
p86
S'line'
p87
tp88
I2
s(S'carry'
p89
S'rock'
p90
tp91
I1
s(S'put'
p92
S'hand'
p93
tp94
I2
s(S'begin'
p95
S'street'
p96
tp97
I1
s(S'catch'
p98
S'baseball'
p99
tp100
I2
s(S'carry'
p101
S'box'
p102
tp103
I6
s(S'be'
p104
S'phrase'
p105
tp106
I2
s(S'wear'
p107
g63
tp108
I3
s(S'jump'
p109
S'attempt'
p110
tp111
I2
s(S'stand'
p112
S'others'
p113
tp114
I2
s(S'give'
p115
S'front'
p116
tp117
I1
s(S'walk'
p118
S'city'
p119
tp120
I10
s(S'sit'
p121
S'water'
p122
tp123
I13
s(S'cover'
p124
S'rock'
p125
tp126
I3
s(S'climb'
p127
g42
tp128
I1
s(g53
S'sky'
p129
tp130
I1
s(S'stop'
p131
S'track'
p132
tp133
I1
s(S'be'
p134
S'school'
p135
tp136
I1
s(S'wear'
p137
S'rock'
p138
tp139
I21
s(S'walk'
p140
S'leash'
p141
tp142
I6
s(S'read'
p143
S'others'
p144
tp145
I1
s(S'decorated'
p146
S'bull'
p147
tp148
I1
s(S'reach'
p149
S'bar'
p150
tp151
I1
s(S'watch'
p152
S'field'
p153
tp154
I1
s(S'display'
p155
S'snow'
p156
tp157
I1
s(S'hold'
p158
S'black'
p159
tp160
I3
s(S'be'
p161
S'slope'
p162
tp163
I4
s(S'hit'
p164
S'match'
p165
tp166
I3
s(S'sit'
p167
S'seat'
p168
tp169
I3
s(S'colored'
p170
S'air'
p171
tp172
I1
s(S'walk'
p173
S'river'
p174
tp175
I2
s(S'be'
p176
S'football'
p177
tp178
I14
s(S'have'
p179
S'snow'
p180
tp181
I2
s(S'extend'
p182
S'formation'
p183
tp184
I1
s(S'carry'
p185
S'communications'
p186
tp187
I1
s(S'concentrate'
p188
S'air'
p189
tp190
I1
s(S'hold'
p191
S'tool'
p192
tp193
I2
s(S'perform'
p194
S'hand'
p195
tp196
I1
s(S'jump'
p197
S'sign'
p198
tp199
I5
s(S'challenge'
p200
S'ball'
p201
tp202
I1
s(S'left'
p203
S'picture'
p204
tp205
I1
s(S'drink'
p206
S'pipe'
p207
tp208
I1
s(S'perform'
p209
S'owner'
p210
tp211
I1
s(S'do'
p212
S'smoke'
p213
tp214
I1
s(S'colored'
p215
S'step'
p216
tp217
I1
s(S'jump'
p218
S'play'
p219
tp220
I1
s(S'run'
p221
S'snow'
p222
tp223
I41
s(S'be'
p224
S'leather'
p225
tp226
I1
s(S'watch'
p227
S'baseball'
p228
tp229
I1
s(S'stretch'
p230
S'step'
p231
tp232
I1
s(S'run'
p233
S'bench'
p234
tp235
I4
s(S'be'
p236
S'restaurant'
p237
tp238
I4
s(S'suspend'
p239
S'rope'
p240
tp241
I1
s(S'be'
p242
g198
tp243
I13
s(S'be'
p244
S'sleep'
p245
tp246
I8
s(g200
S'player'
p247
tp248
I1
s(S'do'
p249
S'snow'
p250
tp251
I4
s(S'pull'
p252
S'rope'
p253
tp254
I1
s(S'look'
p255
S'back'
p256
tp257
I1
s(S'do'
p258
S'sheet'
p259
tp260
I1
s(S'perform'
p261
S'girl'
p262
tp263
I1
s(S'sit'
p264
S'bar'
p265
tp266
I3
s(S'run'
p267
S'smoke'
p268
tp269
I1
s(S'sit'
p270
S'item'
p271
tp272
I1
s(S'take'
p273
S'advantage'
p274
tp275
I1
s(S'wait'
p276
S'toy'
p277
tp278
I1
s(S'be'
p279
S'structure'
p280
tp281
I4
s(S'try'
p282
S'toy'
p283
tp284
I2
s(S'look'
p285
S'woman'
p286
tp287
I2
s(S'have'
p288
S'ball'
p289
tp290
I12
s(S'step'
p291
S'toy'
p292
tp293
I1
s(S'be'
p294
S'landfill'
p295
tp296
I1
s(S'play'
p297
S'picture'
p298
tp299
I1
s(S'do'
p300
S'course'
p301
tp302
I1
s(S'have'
p303
S'stand'
p304
tp305
I3
s(S'covered'
p306
S'night'
p307
tp308
I1
s(S'stand'
p309
S'cement'
p310
tp311
I1
s(S'cover'
p312
S'plastic'
p313
tp314
I1
s(S'colored'
p315
S'rock'
p316
tp317
I1
s(g261
S'back'
p318
tp319
I1
s(S'be'
p320
S'rain'
p321
tp322
I5
s(S'watch'
p323
S'street'
p324
tp325
I1
s(S'wear'
p326
S'store'
p327
tp328
I2
s(S'trash'
p329
S'door'
p330
tp331
I1
s(S'take'
p332
S'goal'
p333
tp334
I1
s(S'dressed'
p335
S'man'
p336
tp337
I1
s(S'make'
p338
S'blow'
p339
tp340
I1
s(S'stand'
p341
S'floor'
p342
tp343
I3
s(S'watch'
p344
S'car'
p345
tp346
I1
s(S'walk'
p347
S'sidewalk'
p348
tp349
I31
s(S'execute'
p350
S'facility'
p351
tp352
I1
s(S'walk'
p353
S'spot'
p354
tp355
I1
s(S'be'
p356
S'circuit'
p357
tp358
I5
s(S'pull'
p359
S'backyard'
p360
tp361
I1
s(S'swim'
p362
S'backyard'
p363
tp364
I2
s(S'cry'
p365
S'man'
p366
tp367
I1
s(S'walk'
p368
S'hill'
p369
tp370
I4
s(S'make'
p371
S'road'
p372
tp373
I1
s(S'be'
p374
S'figure'
p375
tp376
I2
s(S'hold'
p377
S'fall'
p378
tp379
I1
s(S'carry'
p380
S'cushion'
p381
tp382
I1
s(S'jump'
p383
S'street'
p384
tp385
I3
s(S'take'
p386
S'front'
p387
tp388
I3
s(S'read'
p389
S'group'
p390
tp391
I1
s(S'swim'
p392
S'balance'
p393
tp394
I1
s(S'does'
p395
S'figure'
p396
tp397
I1
s(S'hold'
p398
S'face'
p399
tp400
I9
s(S'be'
p401
S'feet'
p402
tp403
I4
s(S'enclosed'
p404
S'arm'
p405
tp406
I1
s(S'have'
p407
S'apple'
p408
tp409
I1
s(S'draw'
p410
S'balloon'
p411
tp412
I3
s(S'read'
p413
S'talk'
p414
tp415
I1
s(S'watch'
p416
S'pool'
p417
tp418
I3
s(S'climb'
p419
S'person'
p420
tp421
I3
s(S'hang'
p422
S'line'
p423
tp424
I3
s(S'print'
p425
S'nose'
p426
tp427
I2
s(S'sit'
p428
S'art'
p429
tp430
I4
s(S'suit'
p431
S'pool'
p432
tp433
I1
s(S'make'
p434
S'pool'
p435
tp436
I1
s(S'be'
p437
S'branch'
p438
tp439
I7
s(S'be'
p440
S'position'
p441
tp442
I1
s(S'run'
p443
S'track'
p444
tp445
I10
s(S'gather'
p446
S'photograph'
p447
tp448
I1
s(S'hold'
p449
S'position'
p450
tp451
I1
s(S'make'
p452
S'race'
p453
tp454
I2
s(S'hang'
p455
S'carrier'
p456
tp457
I1
s(S'make'
p458
S'board'
p459
tp460
I1
s(S'have'
p461
S'collar'
p462
tp463
I1
s(S'pose'
p464
S'air'
p465
tp466
I1
s(S'wear'
p467
S'sky'
p468
tp469
I2
s(S'colored'
p470
S'play'
p471
tp472
I1
s(S'watch'
p473
S'board'
p474
tp475
I1
s(S'walk'
p476
S'front'
p477
tp478
I9
s(S'do'
p479
S'path'
p480
tp481
I1
s(S'walk'
p482
S'slope'
p483
tp484
I1
s(S'hold'
p485
S'beverage'
p486
tp487
I3
s(g92
S'table'
p488
tp489
I1
s(S'swing'
p490
S'ball'
p491
tp492
I4
s(S'wear'
p493
S'eye'
p494
tp495
I1
s(S'run'
p496
S'dust'
p497
tp498
I1
s(S'make'
p499
S'child'
p500
tp501
I1
s(S'paint'
p502
g399
tp503
I6
s(S'be'
p504
S'partner'
p505
tp506
I1
s(S'be'
p507
S'play'
p508
tp509
I120
s(S'determined'
p510
S'expression'
p511
tp512
I1
s(S'eat'
p513
S'meal'
p514
tp515
I1
s(S'address'
p516
S'person'
p517
tp518
I1
s(S'pick'
p519
S'side'
p520
tp521
I1
s(S'run'
p522
S'back'
p523
tp524
I1
s(S'wear'
p525
S'look'
p526
tp527
I12
s(S'sit'
p528
S'football'
p529
tp530
I1
s(S'wear'
p531
S'area'
p532
tp533
I7
s(S'play'
p534
S'girl'
p535
tp536
I2
s(S'be'
p537
S'sweat'
p538
tp539
I1
s(S'chase'
p540
S'game'
p541
tp542
I2
s(S'display'
p543
S'street'
p544
tp545
I1
s(g167
S'driver'
p546
tp547
I1
s(S'pose'
p548
S'tree'
p549
tp550
I7
s(S'drive'
p551
S'shot'
p552
tp553
I1
s(S'wear'
p554
S'style'
p555
tp556
I1
s(S'turn'
p557
S'front'
p558
tp559
I1
s(S'make'
p560
S'hand'
p561
tp562
I5
s(S'be'
p563
S'camera'
p564
tp565
I30
s(S'jump'
p566
S'sidewalk'
p567
tp568
I1
s(S'hold'
p569
S'creature'
p570
tp571
I1
s(S'run'
p572
S'bridge'
p573
tp574
I4
s(S'be'
p575
S'summer'
p576
tp577
I1
s(S'fly'
p578
g198
tp579
I1
s(S'jump'
p580
S'crowd'
p581
tp582
I5
s(S'colored'
p583
S'person'
p584
tp585
I1
s(S'fly'
p586
S'plane'
p587
tp588
I1
s(S'fill'
p589
S'stadium'
p590
tp591
I1
s(S'show'
p592
S'ability'
p593
tp594
I1
s(S'swim'
p595
S'area'
p596
tp597
I1
s(S'bend'
p598
S'drink'
p599
tp600
I1
s(S'perform'
p601
S'person'
p602
tp603
I1
s(S'carry'
p604
S'foam'
p605
tp606
I1
s(S'be'
p607
S'drink'
p608
tp609
I21
s(S'bring'
p610
S'item'
p611
tp612
I1
s(S'wear'
p613
S'necklace'
p614
tp615
I4
s(S'stand'
p616
S'street'
p617
tp618
I11
s(S'hold'
p619
S'water'
p620
tp621
I13
s(S'be'
p622
S'basket'
p623
tp624
I1
s(S'set'
p625
S'park'
p626
tp627
I2
s(S'be'
p628
S'dollar'
p629
tp630
I1
s(S'run'
p631
S'leap'
p632
tp633
I1
s(S'wear'
p634
S'match'
p635
tp636
I1
s(S'give'
p637
S'street'
p638
tp639
I1
s(S'lead'
p640
S'snow'
p641
tp642
I1
s(S'be'
p643
S'public'
p644
tp645
I1
s(S'pose'
p646
S'cash'
p647
tp648
I1
s(S'string'
p649
S'day'
p650
tp651
I1
s(S'covering'
p652
S'head'
p653
tp654
I1
s(S'pass'
p655
S'man'
p656
tp657
I2
s(S'stand'
p658
S'building'
p659
tp660
I3
s(S'jump'
p661
S'railing'
p662
tp663
I3
s(S'emerge'
p664
S'course'
p665
tp666
I1
s(S'see'
p667
S'chain'
p668
tp669
I1
s(S'wear'
p670
S'balloon'
p671
tp672
I4
s(S'painted'
p673
S'slab'
p674
tp675
I1
s(S'swim'
p676
S'pool'
p677
tp678
I44
s(S'do'
p679
S'move'
p680
tp681
I1
s(S'slip'
p682
S'man'
p683
tp684
I1
s(S'jump'
p685
S'dinner'
p686
tp687
I2
s(S'play'
p688
S'band'
p689
tp690
I4
s(S'participate'
p691
S'baseball'
p692
tp693
I1
s(g359
S'branch'
p694
tp695
I1
s(S'emerge'
p696
S'water'
p697
tp698
I1
s(S'look'
p699
S'drink'
p700
tp701
I4
s(S'pull'
p702
S'leash'
p703
tp704
I2
s(S'surprised'
p705
g33
tp706
I1
s(S'climb'
p707
S'turn'
p708
tp709
I1
s(S'walk'
p710
S'house'
p711
tp712
I4
s(S'be'
p713
S'side'
p714
tp715
I30
s(S'run'
p716
S'pool'
p717
tp718
I3
s(S'continue'
p719
S'hill'
p720
tp721
I1
s(S'be'
p722
S'peak'
p723
tp724
I1
s(S'pose'
p725
S'person'
p726
tp727
I6
s(S'walk'
p728
S'store'
p729
tp730
I1
s(S'cover'
p731
S'tree'
p732
tp733
I3
s(S'walk'
p734
S'ground'
p735
tp736
I3
s(S'be'
p737
S'beer'
p738
tp739
I1
s(S'jump'
p740
S'branch'
p741
tp742
I1
s(S'walk'
p743
S'cow'
p744
tp745
I5
s(S'enjoy'
p746
S'hair'
p747
tp748
I1
s(S'jump'
p749
S'mother'
p750
tp751
I1
s(S'jump'
p752
S'fight'
p753
tp754
I1
s(S'follow'
p755
S'bench'
p756
tp757
I1
s(S'hold'
p758
S'money'
p759
tp760
I3
s(S'sit'
p761
S'others'
p762
tp763
I5
s(S'face'
p764
S'sky'
p765
tp766
I1
s(S'do'
p767
S'hill'
p768
tp769
I1
s(S'run'
p770
S'area'
p771
tp772
I16
s(S'try'
p773
S'look'
p774
tp775
I1
s(S'pair'
p776
S'show'
p777
tp778
I1
s(S'stand'
p779
S'plant'
p780
tp781
I1
s(S'be'
p782
S'bench'
p783
tp784
I24
s(S'open'
p785
S'wave'
p786
tp787
I1
s(S'pose'
p788
S'picture'
p789
tp790
I31
s(S'wear'
p791
S'rope'
p792
tp793
I3
s(S'jump'
p794
S'table'
p795
tp796
I2
s(S'be'
p797
S'case'
p798
tp799
I2
s(S'pose'
p800
S'family'
p801
tp802
I1
s(S'be'
p803
S'head'
p804
tp805
I20
s(S'jump'
p806
S'water'
p807
tp808
I38
s(S'sit'
p809
S'post'
p810
tp811
I2
s(S'run'
p812
S'person'
p813
tp814
I5
s(S'stand'
p815
S'swing'
p816
tp817
I2
s(S'wear'
p818
S'leather'
p819
tp820
I6
s(S'look'
p821
S'race'
p822
tp823
I2
s(S'be'
p824
S'range'
p825
tp826
I2
s(S'swing'
p827
S'head'
p828
tp829
I1
s(S'run'
p830
S'land'
p831
tp832
I1
s(S'lay'
p833
S'field'
p834
tp835
I1
s(S'sit'
p836
S'smoke'
p837
tp838
I3
s(S'run'
p839
S'water'
p840
tp841
I45
s(g516
S'group'
p842
tp843
I1
s(S'spread'
p844
S'side'
p845
tp846
I2
s(S'eat'
p847
S'store'
p848
tp849
I1
s(S'be'
p850
S'cardboard'
p851
tp852
I2
s(S'be'
p853
S'bag'
p854
tp855
I7
s(S'pose'
p856
S'building'
p857
tp858
I5
s(S'leave'
p859
S'smoke'
p860
tp861
I3
s(S'hold'
p862
S'chunk'
p863
tp864
I1
s(S'hold'
p865
S'bag'
p866
tp867
I5
s(S'cover'
p868
S'field'
p869
tp870
I1
s(S'take'
p871
g774
tp872
I1
s(S'wear'
p873
S'environment'
p874
tp875
I1
s(S'climb'
p876
S'support'
p877
tp878
I1
s(S'walk'
p879
S'run'
p880
tp881
I2
s(g392
g593
tp882
I1
s(S'colored'
p883
S'field'
p884
tp885
I1
s(S'get'
p886
S'meal'
p887
tp888
I1
s(S'scream'
p889
S'water'
p890
tp891
I1
s(S'include'
p892
S'sidewalk'
p893
tp894
I1
s(S'sit'
p895
S'stand'
p896
tp897
I5
s(S'be'
p898
S'lot'
p899
tp900
I5
s(S'catch'
p901
S'audience'
p902
tp903
I2
s(S'fly'
p904
S'smoke'
p905
tp906
I2
s(S'jump'
p907
S'series'
p908
tp909
I1
s(S'roll'
p910
S'man'
p911
tp912
I1
s(S'stand'
p913
S'day'
p914
tp915
I1
s(S'have'
p916
S'street'
p917
tp918
I3
s(S'drink'
p919
S'front'
p920
tp921
I1
s(S'pull'
p922
S'town'
p923
tp924
I1
s(S'varied'
p925
S'activity'
p926
tp927
I1
s(S'left'
p928
g372
tp929
I1
s(S'fly'
p930
S'swing'
p931
tp932
I1
s(S'wear'
p933
S'spread'
p934
tp935
I1
s(S'carry'
p936
S'road'
p937
tp938
I1
s(S'prepare'
p939
S'sheep'
p940
tp941
I1
s(S'have'
p942
S'camera'
p943
tp944
I4
s(S'catch'
p945
S'machine'
p946
tp947
I1
s(S'walk'
p948
S'area'
p949
tp950
I5
s(S'stick'
p951
S'try'
p952
tp953
I1
s(S'have'
p954
S'building'
p955
tp956
I1
s(S'use'
p957
S'girl'
p958
tp959
I3
s(S'cover'
p960
S'nose'
p961
tp962
I1
s(S'writing'
p963
S'front'
p964
tp965
I1
s(S'zip'
p966
g683
tp967
I1
s(S'fly'
p968
S'sky'
p969
tp970
I2
s(g68
S'table'
p971
tp972
I1
s(S'sit'
p973
S'structure'
p974
tp975
I2
s(S'pour'
p976
S'plastic'
p977
tp978
I1
s(S'sit'
p979
S'outside'
p980
tp981
I3
s(S'draw'
p982
S'friend'
p983
tp984
I1
s(S'run'
p985
S'baseball'
p986
tp987
I2
s(g797
S'backdrop'
p988
tp989
I1
s(S'show'
p990
S'team'
p991
tp992
I1
s(S'be'
p993
S'nose'
p994
tp995
I4
s(S'wear'
p996
S'design'
p997
tp998
I1
s(S'fall'
p999
S'course'
p1000
tp1001
I1
s(S'wear'
p1002
S'collar'
p1003
tp1004
I14
s(S'make'
p1005
S'piece'
p1006
tp1007
I1
s(g185
S'stadium'
p1008
tp1009
I1
s(S'play'
p1010
S'instrument'
p1011
tp1012
I6
s(S'hold'
p1013
S'ticket'
p1014
tp1015
I1
s(S'shake'
p1016
S'water'
p1017
tp1018
I5
s(S'combat'
p1019
S'move'
p1020
tp1021
I1
s(S'sit'
p1022
S'back'
p1023
tp1024
I4
s(S'eat'
p1025
S'something'
p1026
tp1027
I2
s(S'wait'
p1028
S'seller'
p1029
tp1030
I1
s(S'stand'
p1031
S'red'
p1032
tp1033
I1
s(S'handle'
p1034
S'toy'
p1035
tp1036
I1
s(S'go'
p1037
S'slope'
p1038
tp1039
I1
s(S'be'
p1040
S'shop'
p1041
tp1042
I5
s(S'be'
p1043
S'cotton'
p1044
tp1045
I1
s(S'hold'
p1046
S'boy'
p1047
tp1048
I4
s(g121
S'air'
p1049
tp1050
I3
s(g815
S'balance'
p1051
tp1052
I1
s(S'wear'
p1053
S'suit'
p1054
tp1055
I7
s(S'be'
p1056
S'field'
p1057
tp1058
I63
s(S'jump'
p1059
S'vehicle'
p1060
tp1061
I1
s(S'run'
p1062
S'red'
p1063
tp1064
I2
s(S'sit'
p1065
S'store'
p1066
tp1067
I1
s(S'be'
p1068
S'light'
p1069
tp1070
I1
s(g847
S'woman'
p1071
tp1072
I1
s(S'be'
p1073
S'shoulder'
p1074
tp1075
I2
s(S'have'
p1076
S'middle'
p1077
tp1078
I1
s(S'wear'
p1079
S'ad'
p1080
tp1081
I1
s(S'show'
p1082
S'face'
p1083
tp1084
I1
s(S'swim'
p1085
S'bench'
p1086
tp1087
I1
s(S'be'
p1088
S'liberty'
p1089
tp1090
I1
s(S'pass'
p1091
S'swing'
p1092
tp1093
I1
s(S'broken'
p1094
S'sleep'
p1095
tp1096
I1
s(S'cover'
p1097
S'front'
p1098
tp1099
I2
s(S'hold'
p1100
S'member'
p1101
tp1102
I1
s(S'do'
p1103
S'crowd'
p1104
tp1105
I1
s(S'wait'
p1106
g135
tp1107
I1
s(S'jump'
p1108
S'master'
p1109
tp1110
I1
s(S'run'
p1111
S'plant'
p1112
tp1113
I1
s(S'be'
p1114
S'body'
p1115
tp1116
I11
s(S'appear'
p1117
S'play'
p1118
tp1119
I2
s(S'swing'
p1120
S'shape'
p1121
tp1122
I1
s(S'bend'
p1123
S'spread'
p1124
tp1125
I1
s(g59
S'wave'
p1126
tp1127
I1
s(S'hit'
p1128
S'wave'
p1129
tp1130
I1
s(S'wear'
p1131
S'swing'
p1132
tp1133
I9
s(g77
S'white'
p1134
tp1135
I1
s(S'jump'
p1136
S'rock'
p1137
tp1138
I1
s(g667
S'link'
p1139
tp1140
I1
s(S'do'
p1141
S'step'
p1142
tp1143
I2
s(S'ring'
p1144
S'fire'
p1145
tp1146
I3
s(S'oppose'
p1147
S'base'
p1148
tp1149
I1
s(S'numbered'
p1150
S'track'
p1151
tp1152
I1
s(S'play'
p1153
S'equipment'
p1154
tp1155
I1
s(S'leave'
p1156
S'front'
p1157
tp1158
I1
s(S'climb'
p1159
S'stand'
p1160
tp1161
I3
s(S'stretch'
p1162
S'catch'
p1163
tp1164
I1
s(S'go'
p1165
S'course'
p1166
tp1167
I1
s(S'chase'
p1168
S'tag'
p1169
tp1170
I1
s(S'prepare'
p1171
S'blow'
p1172
tp1173
I2
s(S'wear'
p1174
S'stream'
p1175
tp1176
I1
s(S'pull'
p1177
S'race'
p1178
tp1179
I1
s(S'sit'
p1180
S'lap'
p1181
tp1182
I5
s(S'hold'
p1183
S'play'
p1184
tp1185
I2
s(S'wear'
p1186
S'restaurant'
p1187
tp1188
I1
s(g682
S'ground'
p1189
tp1190
I1
s(S'fold'
p1191
S'person'
p1192
tp1193
I1
s(S'use'
p1194
S'source'
p1195
tp1196
I1
s(S'wear'
p1197
S'baseball'
p1198
tp1199
I1
s(S'go'
p1200
S'class'
p1201
tp1202
I1
s(S'face'
p1203
S'logo'
p1204
tp1205
I1
s(S'jump'
p1206
S'car'
p1207
tp1208
I2
s(S'wear'
p1209
S'step'
p1210
tp1211
I6
s(S'jump'
p1212
S'food'
p1213
tp1214
I1
s(S'wear'
p1215
S'group'
p1216
tp1217
I1
s(S'touch'
p1218
S'plastic'
p1219
tp1220
I1
s(S'stick'
p1221
S'branch'
p1222
tp1223
I1
s(S'stick'
p1224
S'group'
p1225
tp1226
I1
s(S'jump'
p1227
S'net'
p1228
tp1229
I1
s(S'run'
p1230
S'blow'
p1231
tp1232
I1
s(S'run'
p1233
S'tool'
p1234
tp1235
I1
s(S'be'
p1236
S'bottle'
p1237
tp1238
I8
s(S'stand'
p1239
g1017
tp1240
I14
s(S'log'
p1241
S'snow'
p1242
tp1243
I1
s(S'raise'
p1244
S'camera'
p1245
tp1246
I1
s(S'shore'
p1247
g1017
tp1248
I4
s(S'watch'
p1249
S'ground'
p1250
tp1251
I1
s(S'shoot'
p1252
S'goal'
p1253
tp1254
I1
s(g467
S'feet'
p1255
tp1256
I1
s(g1215
S'instrument'
p1257
tp1258
I3
s(S'perform'
p1259
S'high'
p1260
tp1261
I1
s(S'be'
p1262
S'cushion'
p1263
tp1264
I3
s(S'run'
p1265
S'street'
p1266
tp1267
I2
s(S'curb'
p1268
S'city'
p1269
tp1270
I1
s(S'chat'
p1271
S'water'
p1272
tp1273
I2
s(S'appear'
p1274
S'air'
p1275
tp1276
I1
s(S'sit'
p1277
S'camera'
p1278
tp1279
I2
s(S'stand'
p1280
S'inside'
p1281
tp1282
I3
s(S'reach'
p1283
S'ball'
p1284
tp1285
I1
s(S'trail'
p1286
S'snow'
p1287
tp1288
I1
s(S'chase'
p1289
S'bull'
p1290
tp1291
I1
s(S'ring'
p1292
S'watch'
p1293
tp1294
I2
s(S'follow'
p1295
S'vehicle'
p1296
tp1297
I1
s(S'be'
p1298
S'owner'
p1299
tp1300
I3
s(S'run'
p1301
S'shot'
p1302
tp1303
I1
s(S'give'
p1304
S'customer'
p1305
tp1306
I1
s(S'stand'
p1307
S'bridge'
p1308
tp1309
I1
s(S'hold'
p1310
S'leash'
p1311
tp1312
I3
s(S'hang'
p1313
S'tire'
p1314
tp1315
I3
s(S'be'
p1316
S'leash'
p1317
tp1318
I6
s(S'do'
p1319
S'street'
p1320
tp1321
I1
s(g182
S'front'
p1322
tp1323
I2
s(S'run'
p1324
S'inside'
p1325
tp1326
I1
s(S'wear'
p1327
S'seat'
p1328
tp1329
I1
s(g230
S'back'
p1330
tp1331
I1
s(S'be'
p1332
g119
tp1333
I17
s(S'climb'
p1334
S'slope'
p1335
tp1336
I1
s(S'wear'
p1337
S'campus'
p1338
tp1339
I1
s(S'wait'
p1340
S'person'
p1341
tp1342
I1
s(S'wear'
p1343
S'red'
p1344
tp1345
I5
s(S'do'
p1346
S'building'
p1347
tp1348
I1
s(S'climb'
p1349
S'slide'
p1350
tp1351
I2
s(S'walk'
p1352
S'field'
p1353
tp1354
I12
s(S'jump'
p1355
S'person'
p1356
tp1357
I6
s(S'eat'
p1358
S'lunch'
p1359
tp1360
I1
s(S'wear'
p1361
S'line'
p1362
tp1363
I2
s(S'turn'
p1364
g765
tp1365
I1
s(S'broken'
p1366
S'arm'
p1367
tp1368
I3
s(S'be'
p1369
S'river'
p1370
tp1371
I11
s(S'block'
p1372
S'others'
p1373
tp1374
I1
s(S'wear'
p1375
S'formation'
p1376
tp1377
I1
s(S'print'
p1378
S'air'
p1379
tp1380
I1
s(S'climb'
p1381
S'help'
p1382
tp1383
I3
s(S'do'
p1384
S'sort'
p1385
tp1386
I1
s(S'put'
p1387
S'sweater'
p1388
tp1389
I1
s(S'painted'
p1390
S'face'
p1391
tp1392
I1
s(S'wear'
p1393
S'sleep'
p1394
tp1395
I1
s(S'hold'
p1396
S'city'
p1397
tp1398
I2
s(S'pass'
p1399
S'football'
p1400
tp1401
I2
s(S'lay'
p1402
S'face'
p1403
tp1404
I2
s(S'walk'
p1405
g375
tp1406
I1
s(S'make'
p1407
S'metal'
p1408
tp1409
I2
s(S'do'
p1410
S'air'
p1411
tp1412
I17
s(S'jump'
p1413
S'bridge'
p1414
tp1415
I3
s(S'put'
p1416
S'front'
p1417
tp1418
I1
s(S'walk'
p1419
S'flag'
p1420
tp1421
I2
s(S'sit'
p1422
S'bag'
p1423
tp1424
I6
s(S'be'
p1425
S'drop'
p1426
tp1427
I1
s(S'carry'
p1428
S'something'
p1429
tp1430
I5
s(S'run'
p1431
S'bank'
p1432
tp1433
I1
s(S'jump'
p1434
S'field'
p1435
tp1436
I15
s(S'hope'
p1437
S'one'
p1438
tp1439
I1
s(S'get'
p1440
S'air'
p1441
tp1442
I3
s(S'play'
p1443
S'car'
p1444
tp1445
I1
s(S'hang'
p1446
S'park'
p1447
tp1448
I2
s(S'paint'
p1449
S'something'
p1450
tp1451
I1
s(S'get'
p1452
S'store'
p1453
tp1454
I2
s(S'climb'
p1455
S'bar'
p1456
tp1457
I1
s(g578
S'red'
p1458
tp1459
I1
s(S'make'
p1460
S'rock'
p1461
tp1462
I1
s(S'walk'
p1463
S'crime'
p1464
tp1465
I1
s(S'jump'
p1466
S'reach'
p1467
tp1468
I1
s(S'do'
p1469
S'plant'
p1470
tp1471
I1
s(S'have'
p1472
g277
tp1473
I8
s(S'be'
p1474
S'file'
p1475
tp1476
I1
s(S'run'
p1477
S'crowd'
p1478
tp1479
I3
s(S'be'
p1480
S'protest'
p1481
tp1482
I1
s(S'stick'
p1483
S'van'
p1484
tp1485
I1
s(S'be'
p1486
S'client'
p1487
tp1488
I1
s(S'trail'
p1489
g860
tp1490
I1
s(S'be'
p1491
S'car'
p1492
tp1493
I17
s(S'be'
p1494
S'show'
p1495
tp1496
I7
s(S'sleep'
p1497
S'hand'
p1498
tp1499
I1
s(S'swim'
p1500
S'toy'
p1501
tp1502
I1
s(S'keep'
p1503
S'player'
p1504
tp1505
I1
s(S'have'
p1506
S'girl'
p1507
tp1508
I1
s(S'seek'
p1509
S'hay'
p1510
tp1511
I1
s(S'back'
p1512
S'park'
p1513
tp1514
I1
s(S'be'
p1515
S'column'
p1516
tp1517
I2
s(S'colored'
p1518
g313
tp1519
I2
s(S'crossed'
p1520
S'figure'
p1521
tp1522
I1
s(S'be'
p1523
S'type'
p1524
tp1525
I1
s(S'wear'
p1526
S'security'
p1527
tp1528
I1
s(S'be'
p1529
S'home'
p1530
tp1531
I3
s(S'hold'
p1532
S'flag'
p1533
tp1534
I8
s(S'hold'
p1535
S'burlap'
p1536
tp1537
I1
s(S'sit'
p1538
S'disk'
p1539
tp1540
I1
s(S'carry'
p1541
S'lot'
p1542
tp1543
I1
s(S'stand'
p1544
S'character'
p1545
tp1546
I1
s(S'create'
p1547
S'smoke'
p1548
tp1549
I1
s(S'eat'
p1550
S'girl'
p1551
tp1552
I1
s(S'start'
p1553
S'person'
p1554
tp1555
I1
s(S'suspend'
p1556
S'ceiling'
p1557
tp1558
I1
s(S'be'
p1559
S'someone'
p1560
tp1561
I5
s(g398
S'red'
p1562
tp1563
I2
s(S'do'
p1564
S'railing'
p1565
tp1566
I2
s(S'play'
p1567
S'size'
p1568
tp1569
I1
s(S'jump'
p1570
S'slope'
p1571
tp1572
I2
s(S'wear'
p1573
S'blindfold'
p1574
tp1575
I3
s(S'wear'
p1576
S'art'
p1577
tp1578
I1
s(S'return'
p1579
S'toy'
p1580
tp1581
I1
s(S'try'
p1582
S'traffic'
p1583
tp1584
I1
s(S'shot'
p1585
S'play'
p1586
tp1587
I1
s(S'be'
p1588
S'exercise'
p1589
tp1590
I1
s(S'jump'
p1591
S'land'
p1592
tp1593
I1
s(S'be'
p1594
S'telegraph'
p1595
tp1596
I1
s(S'sit'
p1597
S'meal'
p1598
tp1599
I2
s(S'pair'
p1600
S'field'
p1601
tp1602
I1
s(S'receive'
p1603
S'something'
p1604
tp1605
I1
s(S'be'
p1606
S'boy'
p1607
tp1608
I19
s(S'fly'
p1609
S'field'
p1610
tp1611
I1
s(S'carry'
p1612
S'competition'
p1613
tp1614
I1
s(S'carry'
p1615
S'woman'
p1616
tp1617
I1
s(S'look'
p1618
S'sign'
p1619
tp1620
I1
s(S'follow'
p1621
S'boy'
p1622
tp1623
I2
s(S'colored'
p1624
g741
tp1625
I1
s(S'take'
p1626
S'turn'
p1627
tp1628
I2
s(S'wear'
p1629
S'park'
p1630
tp1631
I9
s(S'display'
p1632
S'look'
p1633
tp1634
I1
s(S'hold'
p1635
S'smoke'
p1636
tp1637
I1
s(S'reach'
p1638
S'pool'
p1639
tp1640
I1
s(S'walk'
p1641
S'path'
p1642
tp1643
I19
s(S'be'
p1644
S'ship'
p1645
tp1646
I1
s(g1218
S'crowd'
p1647
tp1648
I1
s(S'appear'
p1649
S'snow'
p1650
tp1651
I1
s(S'play'
p1652
S'bridge'
p1653
tp1654
I1
s(S'sit'
p1655
S'run'
p1656
tp1657
I1
s(S'see'
p1658
S'man'
p1659
tp1660
I1
s(S'try'
p1661
S'water'
p1662
tp1663
I4
s(S'wear'
p1664
S'support'
p1665
tp1666
I1
s(S'jump'
p1667
S'girl'
p1668
tp1669
I7
s(S'hold'
p1670
S'talk'
p1671
tp1672
I1
s(S'swing'
p1673
S'boy'
p1674
tp1675
I1
s(S'perform'
p1676
S'instrument'
p1677
tp1678
I1
s(g1053
S'white'
p1679
tp1680
I2
s(g1520
S'seat'
p1681
tp1682
I1
s(S'play'
p1683
S'cement'
p1684
tp1685
I1
s(g410
S'girl'
p1686
tp1687
I1
s(g1670
g1527
tp1688
I1
s(S'lay'
p1689
S'wave'
p1690
tp1691
I1
s(S'look'
p1692
S'reflection'
p1693
tp1694
I1
s(S'hold'
p1695
S'stand'
p1696
tp1697
I9
s(S'be'
p1698
S'crystal'
p1699
tp1700
I1
s(S'face'
p1701
S'face'
p1702
tp1703
I1
s(S'cover'
p1704
S'game'
p1705
tp1706
I1
s(S'be'
p1707
S'shelter'
p1708
tp1709
I1
s(g699
S'hand'
p1710
tp1711
I4
s(S'say'
p1712
S'camera'
p1713
tp1714
I1
s(S'sit'
p1715
S'cotton'
p1716
tp1717
I1
s(S'carry'
p1718
S'picture'
p1719
tp1720
I1
s(S'be'
p1721
S'crowd'
p1722
tp1723
I22
s(S'walk'
p1724
S'past'
p1725
tp1726
I3
s(S'jump'
p1727
S'step'
p1728
tp1729
I5
s(S'sit'
p1730
S'head'
p1731
tp1732
I2
s(S'participate'
p1733
S'art'
p1734
tp1735
I2
s(S'play'
p1736
S'area'
p1737
tp1738
I3
s(S'sit'
p1739
S'girl'
p1740
tp1741
I1
s(S'jump'
p1742
S'block'
p1743
tp1744
I1
s(S'be'
p1745
S'back'
p1746
tp1747
I14
s(S'watch'
p1748
g1467
tp1749
I1
s(S'wear'
p1750
S'head'
p1751
tp1752
I12
s(S'put'
p1753
g1619
tp1754
I1
s(S'drink'
p1755
g866
tp1756
I1
s(S'crossing'
p1757
S'snow'
p1758
tp1759
I1
s(S'hold'
p1760
S'toy'
p1761
tp1762
I15
s(S'pour'
p1763
S'glass'
p1764
tp1765
I3
s(S'be'
p1766
g283
tp1767
I44
s(S'be'
p1768
S'backyard'
p1769
tp1770
I2
s(S'be'
p1771
S'rock'
p1772
tp1773
I71
s(S'bounce'
p1774
S'complex'
p1775
tp1776
I1
s(S'complete'
p1777
S'record'
p1778
tp1779
I1
s(S'sit'
p1780
S'flag'
p1781
tp1782
I2
s(S'numbered'
p1783
S'field'
p1784
tp1785
I1
s(g1372
S'person'
p1786
tp1787
I1
s(S'be'
p1788
S'tire'
p1789
tp1790
I10
s(S'sit'
p1791
S'statue'
p1792
tp1793
I3
s(S'swing'
p1794
S'racket'
p1795
tp1796
I3
s(S'jump'
p1797
S'barrier'
p1798
tp1799
I2
s(S'get'
p1800
S'fight'
p1801
tp1802
I1
s(S'participate'
p1803
S'field'
p1804
tp1805
I1
s(S'have'
p1806
S'tree'
p1807
tp1808
I1
s(S'sit'
p1809
S'crowd'
p1810
tp1811
I1
s(S'wear'
p1812
g113
tp1813
I4
s(S'make'
p1814
S'camera'
p1815
tp1816
I3
s(S'be'
p1817
S'transportation'
p1818
tp1819
I1
s(S'left'
p1820
S'watch'
p1821
tp1822
I1
s(S'wear'
p1823
S'house'
p1824
tp1825
I1
s(S'wear'
p1826
S'crowd'
p1827
tp1828
I9
s(S'hang'
p1829
S'house'
p1830
tp1831
I1
s(S'pose'
p1832
S'street'
p1833
tp1834
I3
s(S'be'
p1835
S'can'
p1836
tp1837
I1
s(S'ask'
p1838
g1815
tp1839
I1
s(S'be'
p1840
S'suit'
p1841
tp1842
I6
s(S'do'
p1843
S'picture'
p1844
tp1845
I1
s(S'stand'
p1846
S'bank'
p1847
tp1848
I1
s(g11
S'ball'
p1849
tp1850
I1
s(S'be'
p1851
S'liquid'
p1852
tp1853
I1
s(S'sit'
p1854
S'row'
p1855
tp1856
I3
s(S'jump'
p1857
S'wave'
p1858
tp1859
I5
s(S'sit'
p1860
S'person'
p1861
tp1862
I5
s(S'hang'
p1863
S'side'
p1864
tp1865
I3
s(S'do'
p1866
S'pool'
p1867
tp1868
I8
s(S'make'
p1869
g1213
tp1870
I1
s(S'hold'
p1871
S'line'
p1872
tp1873
I2
s(g785
S'arm'
p1874
tp1875
I1
s(S'curb'
p1876
S'man'
p1877
tp1878
I1
s(S'print'
p1879
S'purse'
p1880
tp1881
I1
s(S'run'
p1882
S'past'
p1883
tp1884
I1
s(S'target'
p1885
g505
tp1886
I1
s(S'pose'
p1887
S'field'
p1888
tp1889
I1
s(S'wait'
p1890
S'fall'
p1891
tp1892
I1
s(S'walk'
p1893
S'car'
p1894
tp1895
I5
s(S'wear'
p1896
S'ticket'
p1897
tp1898
I1
s(S'reach'
p1899
S'rock'
p1900
tp1901
I1
s(S'land'
p1902
S'field'
p1903
tp1904
I1
s(S'hold'
p1905
S'painting'
p1906
tp1907
I1
s(S'try'
p1908
S'area'
p1909
tp1910
I1
s(S'help'
p1911
S'someone'
p1912
tp1913
I1
s(g673
S'cement'
p1914
tp1915
I1
s(S'take'
p1916
S'something'
p1917
tp1918
I5
s(g428
S'picture'
p1919
tp1920
I4
s(S'be'
p1921
S'match'
p1922
tp1923
I2
s(S'string'
p1924
S'watch'
p1925
tp1926
I1
s(S'pose'
p1927
S'arm'
p1928
tp1929
I4
s(S'run'
p1930
S'sky'
p1931
tp1932
I1
s(S'walk'
p1933
S'tree'
p1934
tp1935
I13
s(S'leave'
p1936
S'start'
p1937
tp1938
I1
s(S'carry'
p1939
S'street'
p1940
tp1941
I1
s(S'slides'
p1942
S'feet'
p1943
tp1944
I1
s(S'allow'
p1945
S'team'
p1946
tp1947
I1
s(S'replace'
p1948
S'baseball'
p1949
tp1950
I1
s(S'hold'
p1951
S'sign'
p1952
tp1953
I10
s(S'walk'
p1954
S'building'
p1955
tp1956
I8
s(g1908
S'vehicle'
p1957
tp1958
I3
s(S'jump'
p1959
g1645
tp1960
I1
s(g1704
S'plate'
p1961
tp1962
I1
s(S'crowded'
p1963
S'stadium'
p1964
tp1965
I1
s(g312
S'ball'
p1966
tp1967
I2
s(S'play'
p1968
S'airplane'
p1969
tp1970
I1
s(S'sit'
p1971
S'building'
p1972
tp1973
I11
s(S'be'
p1974
S'barrel'
p1975
tp1976
I3
s(S'climb'
p1977
S'camera'
p1978
tp1979
I1
s(S'sit'
p1980
S'complex'
p1981
tp1982
I1
s(S'paint'
p1983
S'woman'
p1984
tp1985
I1
s(S'pose'
p1986
S'formation'
p1987
tp1988
I1
s(S'vary'
p1989
S'breed'
p1990
tp1991
I1
s(S'drive'
p1992
S'car'
p1993
tp1994
I1
s(S'hold'
p1995
S'bat'
p1996
tp1997
I2
s(S'set'
p1998
S'field'
p1999
tp2000
I1
s(S'do'
p2001
S'bridge'
p2002
tp2003
I1
s(g755
S'past'
p2004
tp2005
I1
s(S'stick'
p2006
S'air'
p2007
tp2008
I4
s(S'carry'
p2009
S'leash'
p2010
tp2011
I1
s(S'get'
p2012
S'ball'
p2013
tp2014
I10
s(S'play'
p2015
S'night'
p2016
tp2017
I1
s(g1274
S'custom'
p2018
tp2019
I1
s(S'be'
p2020
S'event'
p2021
tp2022
I3
s(S'reflect'
p2023
S'cement'
p2024
tp2025
I1
s(S'give'
p2026
S'elephant'
p2027
tp2028
I1
s(S'advertise'
p2029
S'logo'
p2030
tp2031
I1
s(S'walk'
p2032
S'phone'
p2033
tp2034
I1
s(S'sit'
p2035
S'sheet'
p2036
tp2037
I1
s(S'play'
p2038
S'war'
p2039
tp2040
I6
s(S'wear'
p2041
S'one'
p2042
tp2043
I1
s(S'come'
p2044
S'water'
p2045
tp2046
I2
s(S'jump'
p2047
S'set'
p2048
tp2049
I3
s(S'take'
p2050
S'child'
p2051
tp2052
I1
s(S'pose'
p2053
S'fashion'
p2054
tp2055
I1
s(S'pose'
p2056
S'statue'
p2057
tp2058
I1
s(S'pose'
p2059
S'swing'
p2060
tp2061
I1
s(S'be'
p2062
S'exit'
p2063
tp2064
I1
s(S'look'
p2065
S'person'
p2066
tp2067
I1
s(S'jump'
p2068
S'basket'
p2069
tp2070
I1
s(S'hold'
p2071
S'beer'
p2072
tp2073
I1
s(S'participate'
p2074
S'race'
p2075
tp2076
I1
s(S'pour'
p2077
S'person'
p2078
tp2079
I2
s(S'stand'
p2080
S'sidewalk'
p2081
tp2082
I2
s(g1582
S'car'
p2083
tp2084
I1
s(S'have'
p2085
S'hand'
p2086
tp2087
I9
s(S'look'
p2088
S'step'
p2089
tp2090
I1
s(S'hold'
p2091
S'paper'
p2092
tp2093
I8
s(S'read'
p2094
S'paper'
p2095
tp2096
I4
s(S'run'
p2097
S'path'
p2098
tp2099
I9
s(S'stand'
p2100
S'note'
p2101
tp2102
I2
s(S'carry'
p2103
S'bottle'
p2104
tp2105
I1
s(S'be'
p2106
S'bin'
p2107
tp2108
I1
s(S'stick'
p2109
g78
tp2110
I2
s(S'set'
p2111
S'group'
p2112
tp2113
I2
s(g1200
S'university'
p2114
tp2115
I1
s(S'be'
p2116
S'stage'
p2117
tp2118
I1
s(S'check'
p2119
S'crowd'
p2120
tp2121
I1
s(g563
S'victory'
p2122
tp2123
I1
s(g1661
g599
tp2124
I1
s(S'stand'
p2125
S'air'
p2126
tp2127
I1
s(S'do'
p2128
S'routine'
p2129
tp2130
I1
s(S'stand'
p2131
S'city'
p2132
tp2133
I6
s(S'check'
p2134
S'man'
p2135
tp2136
I1
s(S'pose'
p2137
g1984
tp2138
I5
s(S'run'
p2139
S'piece'
p2140
tp2141
I1
s(S'be'
p2142
g408
tp2143
I1
s(S'hold'
p2144
S'turn'
p2145
tp2146
I1
s(S'go'
p2147
S'snow'
p2148
tp2149
I1
s(S'play'
p2150
g1786
tp2151
I1
s(S'jump'
p2152
g363
tp2153
I3
s(S'look'
p2154
S'bridge'
p2155
tp2156
I1
s(S'swim'
p2157
S'suit'
p2158
tp2159
I2
s(S'draw'
p2160
S'watch'
p2161
tp2162
I1
s(S'jump'
p2163
g1778
tp2164
I1
s(S'play'
p2165
S'figure'
p2166
tp2167
I1
s(S'come'
p2168
S'car'
p2169
tp2170
I1
s(S'do'
p2171
S'wave'
p2172
tp2173
I1
s(S'drive'
p2174
S'person'
p2175
tp2176
I2
s(S'enjoy'
p2177
S'slope'
p2178
tp2179
I1
s(S'be'
p2180
S'collar'
p2181
tp2182
I4
s(g1298
S'newspaper'
p2183
tp2184
I3
s(S'carry'
p2185
S'silver'
p2186
tp2187
I1
s(S'stick'
p2188
S'stand'
p2189
tp2190
I1
s(S'give'
p2191
g1014
tp2192
I1
s(S'eat'
p2193
S'camera'
p2194
tp2195
I2
s(S'hold'
p2196
S'newspaper'
p2197
tp2198
I3
s(S'sit'
p2199
S'system'
p2200
tp2201
I1
s(S'be'
p2202
S'attempt'
p2203
tp2204
I6
s(S'be'
p2205
S'fight'
p2206
tp2207
I13
s(S'be'
p2208
S'monster'
p2209
tp2210
I1
s(S'pose'
p2211
S'location'
p2212
tp2213
I1
s(S'wear'
p2214
S'worker'
p2215
tp2216
I1
s(S'be'
p2217
S'cloud'
p2218
tp2219
I1
s(S'lay'
p2220
S'rest'
p2221
tp2222
I1
s(g821
g2169
tp2223
I2
s(S'hold'
p2224
S'airplane'
p2225
tp2226
I4
s(S'do'
p2227
S'quarter'
p2228
tp2229
I1
s(S'do'
p2230
S'others'
p2231
tp2232
I1
s(S'hold'
p2233
S'device'
p2234
tp2235
I3
s(S'face'
p2236
S'pool'
p2237
tp2238
I1
s(S'get'
p2239
S'person'
p2240
tp2241
I2
s(S'hear'
p2242
S'slide'
p2243
tp2244
I1
s(S'hold'
p2245
S'sidewalk'
p2246
tp2247
I7
s(S'use'
p2248
S'crowd'
p2249
tp2250
I1
s(S'swing'
p2251
S'water'
p2252
tp2253
I1
s(S'carry'
p2254
S'flag'
p2255
tp2256
I3
s(S'compete'
p2257
S'set'
p2258
tp2259
I1
s(g592
g393
tp2260
I1
s(S'look'
p2261
S'tree'
p2262
tp2263
I1
s(S'do'
p2264
g926
tp2265
I1
s(S'jump'
p2266
S'night'
p2267
tp2268
I1
s(g176
S'game'
p2269
tp2270
I24
s(S'jump'
p2271
S'building'
p2272
tp2273
I10
s(S'use'
p2274
S'watch'
p2275
tp2276
I2
s(S'be'
p2277
S'stream'
p2278
tp2279
I4
s(S'try'
p2280
S'owner'
p2281
tp2282
I1
s(S'enjoy'
p2283
S'day'
p2284
tp2285
I3
s(S'have'
p2286
S'baby'
p2287
tp2288
I1
s(S'sit'
p2289
S'railing'
p2290
tp2291
I5
s(S'pass'
p2292
S'person'
p2293
tp2294
I1
s(S'jump'
p2295
S'rise'
p2296
tp2297
I1
s(S'climb'
p2298
S'use'
p2299
tp2300
I1
s(S'look'
p2301
S'air'
p2302
tp2303
I1
s(g551
S'game'
p2304
tp2305
I1
s(S'play'
p2306
S'plastic'
p2307
tp2308
I1
s(S'be'
p2309
S'control'
p2310
tp2311
I1
s(S'be'
p2312
S'studio'
p2313
tp2314
I1
s(S'wear'
p2315
S'camera'
p2316
tp2317
I13
s(S'trail'
p2318
S'electricity'
p2319
tp2320
I1
s(S'hold'
p2321
S'board'
p2322
tp2323
I2
s(g516
S'stand'
p2324
tp2325
I1
s(S'carry'
p2326
S'water'
p2327
tp2328
I5
s(g179
S'face'
p2329
tp2330
I5
s(S'jump'
p2331
S'race'
p2332
tp2333
I1
s(S'break'
p2334
S'team'
p2335
tp2336
I1
s(S'run'
p2337
S'cold'
p2338
tp2339
I1
s(S'have'
p2340
S'game'
p2341
tp2342
I1
s(S'cover'
p2343
S'person'
p2344
tp2345
I2
s(g634
S'middle'
p2346
tp2347
I2
s(S'eat'
p2348
S'apple'
p2349
tp2350
I5
s(S'hold'
p2351
S'box'
p2352
tp2353
I2
s(S'make'
p2354
g505
tp2355
I1
s(S'be'
p2356
g2054
tp2357
I1
s(g425
S'collar'
p2358
tp2359
I1
s(S'be'
p2360
S'lady'
p2361
tp2362
I3
s(g2174
S'group'
p2363
tp2364
I1
s(S'be'
p2365
S'run'
p2366
tp2367
I7
s(S'be'
p2368
S'slide'
p2369
tp2370
I42
s(S'sit'
p2371
S'computer'
p2372
tp2373
I1
s(S'wear'
p2374
S'clothes'
p2375
tp2376
I5
s(S'sit'
p2377
S'phone'
p2378
tp2379
I1
s(S'break'
p2380
S'construction'
p2381
tp2382
I1
s(S'chase'
p2383
S'something'
p2384
tp2385
I1
s(S'be'
p2386
S'road'
p2387
tp2388
I17
s(S'wear'
p2389
S'number'
p2390
tp2391
I8
s(S'sit'
p2392
S'woman'
p2393
tp2394
I6
s(g1750
S'hand'
p2395
tp2396
I20
s(S'take'
p2397
S'shop'
p2398
tp2399
I1
s(g2174
g72
tp2400
I1
s(S'speak'
p2401
S'male'
p2402
tp2403
I1
s(S'sit'
p2404
S'watch'
p2405
tp2406
I3
s(S'be'
p2407
S'citizen'
p2408
tp2409
I1
s(S'compete'
p2410
S'match'
p2411
tp2412
I1
s(g613
S'woman'
p2413
tp2414
I13
s(S'be'
p2415
S'help'
p2416
tp2417
I1
s(S'swim'
p2418
S'rope'
p2419
tp2420
I1
s(g1670
S'bottle'
p2421
tp2422
I5
s(S'walk'
p2423
S'step'
p2424
tp2425
I2
s(S'push'
p2426
S'boy'
p2427
tp2428
I3
s(S'run'
p2429
S'river'
p2430
tp2431
I2
s(S'wear'
p2432
S'device'
p2433
tp2434
I2
s(S'have'
p2435
S'market'
p2436
tp2437
I2
s(S'jump'
p2438
S'high'
p2439
tp2440
I1
s(S'shore'
p2441
S'ball'
p2442
tp2443
I1
s(S'play'
p2444
g1524
tp2445
I2
s(S'jump'
p2446
g1867
tp2447
I35
s(g1372
g1586
tp2448
I1
s(S'sit'
p2449
S'device'
p2450
tp2451
I1
s(S'be'
p2452
S'band'
p2453
tp2454
I1
s(S'carry'
p2455
g477
tp2456
I1
s(S'help'
p2457
S'girl'
p2458
tp2459
I1
s(S'be'
p2460
S'police'
p2461
tp2462
I2
s(S'do'
p2463
S'floor'
p2464
tp2465
I2
s(S'hold'
p2466
S'coffee'
p2467
tp2468
I1
s(g504
S'practice'
p2469
tp2470
I4
s(S'run'
p2471
S'highway'
p2472
tp2473
I2
s(g152
S'scale'
p2474
tp2475
I1
s(S'stand'
p2476
S'slope'
p2477
tp2478
I3
s(S'play'
p2479
S'city'
p2480
tp2481
I2
s(S'take'
p2482
S'snow'
p2483
tp2484
I1
s(S'stand'
p2485
S'shelf'
p2486
tp2487
I1
s(S'colored'
p2488
S'hand'
p2489
tp2490
I2
s(S'prepare'
p2491
S'bull'
p2492
tp2493
I1
s(S'set'
p2494
S'camera'
p2495
tp2496
I1
s(g386
S'step'
p2497
tp2498
I1
s(S'cast'
p2499
S'camera'
p2500
tp2501
I1
s(S'be'
p2502
S'party'
p2503
tp2504
I2
s(S'be'
p2505
S'metal'
p2506
tp2507
I7
s(S'wear'
p2508
S'statute'
p2509
tp2510
I1
s(S'hear'
p2511
S'stage'
p2512
tp2513
I1
s(g2023
S'layer'
p2514
tp2515
I1
s(S'drive'
p2516
S'water'
p2517
tp2518
I3
s(S'stretch'
p2519
S'bench'
p2520
tp2521
I1
s(g1327
S'pool'
p2522
tp2523
I4
s(S"'s"
p2524
S'sidewalk'
p2525
tp2526
I1
s(g966
S'look'
p2527
tp2528
I1
s(S'climb'
p2529
S'sheet'
p2530
tp2531
I1
s(S'crossing'
p2532
S'others'
p2533
tp2534
I1
s(S'begin'
p2535
S'face'
p2536
tp2537
I1
s(S'pull'
p2538
g887
tp2539
I1
s(S'hit'
p2540
S'baseball'
p2541
tp2542
I3
s(S'make'
p2543
S'junk'
p2544
tp2545
I1
s(S'climb'
p2546
S'adult'
p2547
tp2548
I1
s(S'carry'
p2549
S'equipment'
p2550
tp2551
I2
s(S'stand'
p2552
g216
tp2553
I1
s(S'be'
p2554
g1414
tp2555
I13
s(S'stand'
p2556
g2522
tp2557
I2
s(S'eat'
p2558
S'plate'
p2559
tp2560
I1
s(S'sit'
p2561
S'talk'
p2562
tp2563
I2
s(S'fill'
p2564
S'air'
p2565
tp2566
I1
s(S'jump'
p2567
S'hand'
p2568
tp2569
I2
s(S'sit'
p2570
S'drink'
p2571
tp2572
I5
s(S'hold'
p2573
S'clothing'
p2574
tp2575
I1
s(S'chase'
p2576
S'ground'
p2577
tp2578
I1
s(S'drive'
p2579
S'truck'
p2580
tp2581
I1
s(S'stand'
p2582
S'path'
p2583
tp2584
I2
s(g273
S'half'
p2585
tp2586
I1
s(S'go'
p2587
S'round'
p2588
tp2589
I1
s(S'chase'
p2590
S'street'
p2591
tp2592
I1
s(S'jump'
p2593
S'toy'
p2594
tp2595
I10
s(S'carry'
p2596
S'girl'
p2597
tp2598
I5
s(S'fly'
p2599
S'area'
p2600
tp2601
I1
s(S'pose'
p2602
S'child'
p2603
tp2604
I1
s(S'run'
p2605
S'rock'
p2606
tp2607
I2
s(S'carry'
p2608
S'back'
p2609
tp2610
I3
s(S'run'
p2611
g1761
tp2612
I17
s(S'play'
p2613
S'bench'
p2614
tp2615
I2
s(S'seem'
p2616
g1801
tp2617
I1
s(S'drink'
p2618
S'beer'
p2619
tp2620
I1
s(S'climb'
p2621
S'play'
p2622
tp2623
I3
s(S'face'
p2624
S'water'
p2625
tp2626
I3
s(S'get'
p2627
S'rock'
p2628
tp2629
I1
s(S'face'
p2630
S'white'
p2631
tp2632
I1
s(g1413
S'middle'
p2633
tp2634
I1
s(S'prepare'
p2635
S'car'
p2636
tp2637
I1
s(S'fly'
p2638
S'hill'
p2639
tp2640
I1
s(S'wear'
p2641
S'slope'
p2642
tp2643
I1
s(g1591
S'hope'
p2644
tp2645
I1
s(S'swing'
p2646
S'bat'
p2647
tp2648
I3
s(S'play'
p2649
S'inside'
p2650
tp2651
I1
s(S'wear'
p2652
S'friend'
p2653
tp2654
I1
s(S'fly'
p2655
S'water'
p2656
tp2657
I2
s(S'stare'
p2658
S'structure'
p2659
tp2660
I1
s(S'speed'
p2661
S'path'
p2662
tp2663
I1
s(S'raise'
p2664
S'park'
p2665
tp2666
I1
s(S'be'
p2667
S'black'
p2668
tp2669
I8
s(S'appear'
p2670
S'ball'
p2671
tp2672
I1
s(S'begin'
p2673
S'water'
p2674
tp2675
I1
s(S'be'
p2676
S'set'
p2677
tp2678
I2
s(S'do'
p2679
S'watch'
p2680
tp2681
I4
s(g1437
S'toy'
p2682
tp2683
I1
s(S'jostle'
p2684
S'court'
p2685
tp2686
I1
s(S'be'
p2687
S'player'
p2688
tp2689
I7
s(S'drink'
p2690
S'body'
p2691
tp2692
I1
s(S'walk'
p2693
S'lead'
p2694
tp2695
I1
s(S'colored'
p2696
S'fight'
p2697
tp2698
I1
s(S'watch'
p2699
S'match'
p2700
tp2701
I1
s(S'be'
p2702
S'meeting'
p2703
tp2704
I1
s(S'jump'
p2705
S'garbage'
p2706
tp2707
I1
s(S'wear'
p2708
S'tree'
p2709
tp2710
I8
s(g1500
S'war'
p2711
tp2712
I1
s(S'climb'
p2713
S'park'
p2714
tp2715
I1
s(S'play'
p2716
S'cloth'
p2717
tp2718
I1
s(S'walk'
p2719
S'snow'
p2720
tp2721
I22
s(g137
S'building'
p2722
tp2723
I6
s(g1860
g1513
tp2724
I19
s(g2494
S'rock'
p2725
tp2726
I1
s(S'wear'
p2727
S'night'
p2728
tp2729
I1
s(g115
S'baby'
p2730
tp2731
I1
s(S'get'
p2732
S'toy'
p2733
tp2734
I2
s(g2556
S'person'
p2735
tp2736
I9
s(S'worried'
p2737
g1702
tp2738
I1
s(S'wear'
p2739
S'ground'
p2740
tp2741
I1
s(g1750
g450
tp2742
I1
s(S'block'
p2743
S'white'
p2744
tp2745
I1
s(S'tackle'
p2746
S'team'
p2747
tp2748
I1
s(g386
S'building'
p2749
tp2750
I1
s(S'lead'
p2751
S'cow'
p2752
tp2753
I3
s(g1585
g1786
tp2754
I1
s(S'wear'
p2755
S'round'
p2756
tp2757
I1
s(S'indicate'
p2758
S'place'
p2759
tp2760
I1
s(g1141
S'outside'
p2761
tp2762
I1
s(S'crowded'
p2763
g324
tp2764
I3
s(S'lay'
p2765
g2625
tp2766
I1
s(S'look'
p2767
S'city'
p2768
tp2769
I1
s(S'treat'
p2770
S'watch'
p2771
tp2772
I1
s(S'stretch'
p2773
S'water'
p2774
tp2775
I1
s(S'be'
p2776
S'fan'
p2777
tp2778
I1
s(S'hang'
p2779
S'head'
p2780
tp2781
I1
s(S'catch'
p2782
S'race'
p2783
tp2784
I1
s(g1971
S'electronics'
p2785
tp2786
I1
s(S'have'
p2787
g1821
tp2788
I2
s(S'inflated'
p2789
S'toy'
p2790
tp2791
I1
s(g1763
S'restaurant'
p2792
tp2793
I1
s(g1091
S'child'
p2794
tp2795
I1
s(S'be'
p2796
S'mark'
p2797
tp2798
I2
s(g1585
S'back'
p2799
tp2800
I1
s(S'sit'
p2801
S'beverage'
p2802
tp2803
I1
s(S'be'
p2804
g934
tp2805
I1
s(S'set'
p2806
S'crowd'
p2807
tp2808
I1
s(S'eat'
p2809
S'someone'
p2810
tp2811
I1
s(S'walk'
p2812
S'neighborhood'
p2813
tp2814
I1
s(S'have'
p2815
S'shoulder'
p2816
tp2817
I1
s(g755
S'sweater'
p2818
tp2819
I1
s(S'use'
p2820
S'rope'
p2821
tp2822
I2
s(S'suspend'
p2823
g468
tp2824
I1
s(S'wear'
p2825
S'balance'
p2826
tp2827
I1
s(S'play'
p2828
S'stand'
p2829
tp2830
I3
s(S'stand'
p2831
S'drink'
p2832
tp2833
I1
s(S'allow'
p2834
S'water'
p2835
tp2836
I1
s(S'wear'
p2837
S'march'
p2838
tp2839
I2
s(S'play'
p2840
S'ball'
p2841
tp2842
I29
s(S'stare'
p2843
S'space'
p2844
tp2845
I1
s(S'say'
p2846
S'light'
p2847
tp2848
I1
s(S'wear'
p2849
S'cigarette'
p2850
tp2851
I1
s(g803
S'arm'
p2852
tp2853
I26
s(S'raise'
p2854
S'head'
p2855
tp2856
I3
s(S'do'
p2857
S'city'
p2858
tp2859
I1
s(S'wear'
p2860
S'stuff'
p2861
tp2862
I3
s(S'be'
p2863
S'paperback'
p2864
tp2865
I1
s(S'be'
p2866
S'afternoon'
p2867
tp2868
I1
s(S'cover'
p2869
S'face'
p2870
tp2871
I2
s(g673
S'twist'
p2872
tp2873
I1
s(g728
S'child'
p2874
tp2875
I4
s(S'sit'
p2876
S'sidewalk'
p2877
tp2878
I8
s(S'lift'
p2879
g2852
tp2880
I1
s(S'wear'
p2881
S'statue'
p2882
tp2883
I1
s(S'make'
p2884
S'machine'
p2885
tp2886
I2
s(S'writing'
p2887
S'store'
p2888
tp2889
I1
s(S'touch'
p2890
S'face'
p2891
tp2892
I2
s(g1512
g1861
tp2893
I1
s(S'be'
p2894
S'part'
p2895
tp2896
I3
s(S'hold'
p2897
S'eye'
p2898
tp2899
I2
s(S'wear'
p2900
S'front'
p2901
tp2902
I15
s(S'pose'
p2903
S'stand'
p2904
tp2905
I1
s(S'play'
p2906
S'wave'
p2907
tp2908
I4
s(S'hold'
p2909
S'run'
p2910
tp2911
I1
s(S'colored'
p2912
S'ball'
p2913
tp2914
I7
s(S'lay'
p2915
S'front'
p2916
tp2917
I1
s(S'sit'
p2918
S'house'
p2919
tp2920
I2
s(S'try'
p2921
S'player'
p2922
tp2923
I1
s(S'stand'
p2924
S'wave'
p2925
tp2926
I2
s(S'swim'
p2927
S'air'
p2928
tp2929
I1
s(S'walk'
p2930
S'shop'
p2931
tp2932
I2
s(S'hold'
p2933
S'leap'
p2934
tp2935
I1
s(S'do'
p2936
S'hand'
p2937
tp2938
I2
s(S'be'
p2939
S'ball'
p2940
tp2941
I99
s(S'hang'
p2942
g1154
tp2943
I1
s(S'run'
p2944
S'cut'
p2945
tp2946
I1
s(S'hold'
p2947
S'plant'
p2948
tp2949
I1
s(S'perform'
p2950
S'water'
p2951
tp2952
I1
s(S'be'
p2953
S'friend'
p2954
tp2955
I2
s(S'be'
p2956
S'ground'
p2957
tp2958
I24
s(S'pose'
p2959
S'point'
p2960
tp2961
I1
s(S'add'
p2962
S'shop'
p2963
tp2964
I1
s(S'show'
p2965
S'line'
p2966
tp2967
I1
s(S'make'
p2968
S'baby'
p2969
tp2970
I2
s(g2220
S'cane'
p2971
tp2972
I1
s(g2150
g1373
tp2973
I1
s(S'wear'
p2974
S'image'
p2975
tp2976
I1
s(g1745
S'point'
p2977
tp2978
I14
s(S'be'
p2979
S'music'
p2980
tp2981
I7
s(g1794
S'court'
p2982
tp2983
I1
s(g1065
S'front'
p2984
tp2985
I21
s(S'play'
p2986
S'head'
p2987
tp2988
I1
s(S'run'
p2989
S'cement'
p2990
tp2991
I1
s(g913
S'right'
p2992
tp2993
I1
s(S'come'
p2994
g2928
tp2995
I1
s(g212
S'plane'
p2996
tp2997
I1
s(S'pull'
p2998
S'attempt'
p2999
tp3000
I1
s(S'watch'
p3001
S'football'
p3002
tp3003
I1
s(S'swim'
p3004
S'car'
p3005
tp3006
I1
s(S'spotted'
p3007
S'ball'
p3008
tp3009
I1
s(S'hold'
p3010
S'statue'
p3011
tp3012
I1
s(S'sell'
p3013
S'sidewalk'
p3014
tp3015
I1
s(g140
S'park'
p3016
tp3017
I11
s(S'stand'
p3018
S'store'
p3019
tp3020
I3
s(S'stick'
p3021
S'wave'
p3022
tp3023
I1
s(S'be'
p3024
S'reach'
p3025
tp3026
I1
s(S'drive'
p3027
S'race'
p3028
tp3029
I1
s(g1701
S'woman'
p3030
tp3031
I2
s(S'wear'
p3032
S'word'
p3033
tp3034
I1
s(g1073
S'book'
p3035
tp3036
I4
s(S'hold'
p3037
S'bill'
p3038
tp3039
I2
s(g227
S'cap'
p3040
tp3041
I1
s(S'hold'
p3042
S'food'
p3043
tp3044
I1
s(S'be'
p3045
S'business'
p3046
tp3047
I1
s(S'have'
p3048
S'blood'
p3049
tp3050
I1
s(S'play'
p3051
S'floor'
p3052
tp3053
I1
s(S'bend'
p3054
S'something'
p3055
tp3056
I1
s(S'hang'
p3057
S'building'
p3058
tp3059
I1
s(S'pose'
p3060
S'lot'
p3061
tp3062
I1
s(S'walk'
p3063
S'bridge'
p3064
tp3065
I8
s(S'walk'
p3066
S'day'
p3067
tp3068
I3
s(S'play'
p3069
S'watch'
p3070
tp3071
I3
s(S'be'
p3072
S'painting'
p3073
tp3074
I1
s(S'sit'
p3075
S'stadium'
p3076
tp3077
I1
s(S'jump'
p3078
S'leash'
p3079
tp3080
I1
s(S'wear'
p3081
S'nose'
p3082
tp3083
I3
s(S'set'
p3084
S'man'
p3085
tp3086
I1
s(S'pose'
p3087
S'panel'
p3088
tp3089
I1
s(g1434
S'track'
p3090
tp3091
I1
s(S'climb'
p3092
S'structure'
p3093
tp3094
I2
s(g101
S'bridge'
p3095
tp3096
I2
s(S'appear'
p3097
S'church'
p3098
tp3099
I1
s(S'take'
p3100
S'camera'
p3101
tp3102
I6
s(g2185
S'bakery'
p3103
tp3104
I1
s(S'chase'
p3105
S'ball'
p3106
tp3107
I25
s(S'hold'
p3108
g1228
tp3109
I2
s(S'wait'
p3110
S'girl'
p3111
tp3112
I1
s(S'writing'
p3113
S'back'
p3114
tp3115
I2
s(g919
S'bench'
p3116
tp3117
I2
s(S'colored'
p3118
S'toy'
p3119
tp3120
I1
s(S'enjoy'
p3121
S'building'
p3122
tp3123
I1
s(g2191
S'hand'
p3124
tp3125
I1
s(S'run'
p3126
S'audience'
p3127
tp3128
I1
s(S'be'
p3129
S'rest'
p3130
tp3131
I4
s(S'bend'
p3132
S'set'
p3133
tp3134
I1
s(S'be'
p3135
S'flag'
p3136
tp3137
I7
s(S'catch'
p3138
S'field'
p3139
tp3140
I8
s(S'show'
p3141
S'look'
p3142
tp3143
I1
s(S'stand'
p3144
S'bag'
p3145
tp3146
I2
s(S'hold'
p3147
S'round'
p3148
tp3149
I2
s(S'wear'
p3150
S'length'
p3151
tp3152
I1
s(S'look'
p3153
S'hill'
p3154
tp3155
I1
s(S'aim'
p3156
S'player'
p3157
tp3158
I1
s(g2499
S'look'
p3159
tp3160
I1
s(S'jump'
p3161
g1145
tp3162
I4
s(g3156
S'block'
p3163
tp3164
I1
s(S'swim'
p3165
S'camera'
p3166
tp3167
I1
s(S'stand'
p3168
S'silver'
p3169
tp3170
I2
s(S'sit'
p3171
S'deck'
p3172
tp3173
I2
s(g315
S'face'
p3174
tp3175
I1
s(g2739
g1423
tp3176
I1
s(S'do'
p3177
S'slope'
p3178
tp3179
I2
s(S'sit'
p3180
S'child'
p3181
tp3182
I4
s(S'faced'
p3183
S'boy'
p3184
tp3185
I1
s(S'play'
p3186
S'rope'
p3187
tp3188
I2
s(g2770
S'air'
p3189
tp3190
I1
s(S'perform'
p3191
S'railing'
p3192
tp3193
I1
s(S'hold'
p3194
S'purse'
p3195
tp3196
I2
s(g2587
S'bench'
p3197
tp3198
I1
s(S'stretch'
p3199
S'river'
p3200
tp3201
I1
s(S'hold'
p3202
S'building'
p3203
tp3204
I1
s(S'take'
p3205
S'night'
p3206
tp3207
I1
s(g2217
g1548
tp3208
I12
s(S'walk'
p3209
S'rock'
p3210
tp3211
I11
s(S'be'
p3212
S'stand'
p3213
tp3214
I138
s(S'paint'
p3215
S'body'
p3216
tp3217
I1
s(S'jump'
p3218
S'head'
p3219
tp3220
I1
s(S'blurred'
p3221
S'image'
p3222
tp3223
I1
s(g1378
S'snow'
p3224
tp3225
I1
s(S'shore'
p3226
S'man'
p3227
tp3228
I1
s(S'stand'
p3229
g1872
tp3230
I1
s(S'be'
p3231
S'talk'
p3232
tp3233
I16
s(S'have'
p3234
S'shop'
p3235
tp3236
I1
s(S'run'
p3237
S'football'
p3238
tp3239
I8
s(S'cover'
p3240
S'peak'
p3241
tp3242
I1
s(S'have'
p3243
S'close'
p3244
tp3245
I1
s(g1416
S'person'
p3246
tp3247
I1
s(S'be'
p3248
S'snow'
p3249
tp3250
I75
s(S'sit'
p3251
S'bridge'
p3252
tp3253
I1
s(g2386
S'turn'
p3254
tp3255
I8
s(S'hold'
p3256
S'high'
p3257
tp3258
I1
s(g982
S'back'
p3259
tp3260
I2
s(S'jump'
p3261
S'body'
p3262
tp3263
I1
s(S'eat'
p3264
S'baby'
p3265
tp3266
I1
s(S'wait'
p3267
S'baseball'
p3268
tp3269
I1
s(S'hit'
p3270
g505
tp3271
I1
s(S'wear'
p3272
S'stand'
p3273
tp3274
I26
s(g3113
g2954
tp3275
I1
s(S'climb'
p3276
S'flow'
p3277
tp3278
I1
s(g2687
S'try'
p3279
tp3280
I10
s(S'stand'
p3281
S'photograph'
p3282
tp3283
I1
s(S'wear'
p3284
g845
tp3285
I8
s(S'hold'
p3286
S'back'
p3287
tp3288
I2
s(S'wear'
p3289
g2486
tp3290
I1
s(g1615
S'baby'
p3291
tp3292
I1
s(g3121
S'view'
p3293
tp3294
I1
s(g2026
g1341
tp3295
I1
s(S'climb'
p3296
S'deck'
p3297
tp3298
I1
s(S'eat'
p3299
S'table'
p3300
tp3301
I2
s(S'prepare'
p3302
S'turn'
p3303
tp3304
I1
s(S'be'
p3305
S'red'
p3306
tp3307
I10
s(g92
S'man'
p3308
tp3309
I1
s(g2077
S'work'
p3310
tp3311
I1
s(S'be'
p3312
S'something'
p3313
tp3314
I24
s(S'stand'
p3315
S'writing'
p3316
tp3317
I1
s(S'shore'
p3318
S'point'
p3319
tp3320
I1
s(S'be'
p3321
g647
tp3322
I2
s(S'pine'
p3323
S'back'
p3324
tp3325
I1
s(S'set'
p3326
S'body'
p3327
tp3328
I1
s(g904
S'cloud'
p3329
tp3330
I1
s(S'fill'
p3331
S'passenger'
p3332
tp3333
I1
s(S'move'
p3334
S'camera'
p3335
tp3336
I1
s(S'sell'
p3337
S'child'
p3338
tp3339
I1
s(S'be'
p3340
S'autumn'
p3341
tp3342
I2
s(S'be'
p3343
g2433
tp3344
I5
s(g1547
g2218
tp3345
I1
s(S'be'
p3346
S'progress'
p3347
tp3348
I1
s(S'wear'
p3349
S'cement'
p3350
tp3351
I4
s(S'wear'
p3352
S'piece'
p3353
tp3354
I1
s(S'cast'
p3355
S'cloud'
p3356
tp3357
I1
s(S'sit'
p3358
S'office'
p3359
tp3360
I1
s(S'fly'
p3361
S'front'
p3362
tp3363
I2
s(S'cast'
p3364
S'film'
p3365
tp3366
I2
s(S'begin'
p3367
S'box'
p3368
tp3369
I1
s(S'harvested'
p3370
S'front'
p3371
tp3372
I1
s(S'bring'
p3373
S'ball'
p3374
tp3375
I1
s(S'get'
p3376
S'counter'
p3377
tp3378
I1
s(S'be'
p3379
g2717
tp3380
I1
s(g847
S'world'
p3381
tp3382
I1
s(S'stand'
p3383
S'watch'
p3384
tp3385
I2
s(S'run'
p3386
S'road'
p3387
tp3388
I7
s(S'show'
p3389
S'strength'
p3390
tp3391
I1
s(g1019
g351
tp3392
I1
s(S'go'
p3393
S'game'
p3394
tp3395
I1
s(g182
S'arm'
p3396
tp3397
I2
s(S'be'
p3398
g2872
tp3399
I1
s(S'do'
p3400
g2267
tp3401
I3
s(g2679
S'person'
p3402
tp3403
I2
s(S'play'
p3404
S'star'
p3405
tp3406
I1
s(S'sit'
p3407
S'road'
p3408
tp3409
I1
s(g3186
S'tree'
p3410
tp3411
I4
s(S'wear'
p3412
S'cap'
p3413
tp3414
I9
s(S'stand'
p3415
S'camera'
p3416
tp3417
I2
s(S'sit'
p3418
S'life'
p3419
tp3420
I1
s(S'put'
p3421
g402
tp3422
I1
s(S'try'
p3423
S'road'
p3424
tp3425
I1
s(S'sit'
p3426
S'lunch'
p3427
tp3428
I1
s(S'wear'
p3429
S'life'
p3430
tp3431
I13
s(g990
S'game'
p3432
tp3433
I1
s(S'get'
p3434
S'match'
p3435
tp3436
I1
s(S'see'
p3437
S'fire'
p3438
tp3439
I1
s(g2286
S'foam'
p3440
tp3441
I2
s(S'numbered'
p3442
S'block'
p3443
tp3444
I1
s(S'sit'
p3445
S'fall'
p3446
tp3447
I1
s(S'explore'
p3448
S'fall'
p3449
tp3450
I1
s(S'catch'
p3451
S'red'
p3452
tp3453
I2
s(S'wear'
p3454
g2313
tp3455
I1
s(S'sit'
p3456
S'public'
p3457
tp3458
I1
s(S'play'
p3459
S'part'
p3460
tp3461
I1
s(S'be'
p3462
S'path'
p3463
tp3464
I18
s(g3060
S'park'
p3465
tp3466
I1
s(S'stare'
p3467
S'camera'
p3468
tp3469
I1
s(S'eat'
p3470
S'bread'
p3471
tp3472
I1
s(S'pass'
p3473
g2319
tp3474
I1
s(S'stay'
p3475
S'city'
p3476
tp3477
I1
s(S'hold'
p3478
S'football'
p3479
tp3480
I6
s(S'stand'
p3481
S'view'
p3482
tp3483
I1
s(S'take'
p3484
S'route'
p3485
tp3486
I1
s(S'climb'
p3487
S'field'
p3488
tp3489
I1
s(S'take'
p3490
S'football'
p3491
tp3492
I1
s(S'advertise'
p3493
S'counter'
p3494
tp3495
I1
s(S'climb'
p3496
S'back'
p3497
tp3498
I2
s(S'climb'
p3499
S'outside'
p3500
tp3501
I1
s(S'carry'
p3502
S'roll'
p3503
tp3504
I1
s(S'go'
p3505
S'slide'
p3506
tp3507
I6
s(S'do'
p3508
S'half'
p3509
tp3510
I1
s(S'pull'
p3511
S'snow'
p3512
tp3513
I7
s(S'try'
p3514
S'ball'
p3515
tp3516
I6
s(S'cover'
p3517
S'sky'
p3518
tp3519
I1
s(g3502
S'look'
p3520
tp3521
I3
s(S'hold'
p3522
S'base'
p3523
tp3524
I1
s(S'pair'
p3525
S'line'
p3526
tp3527
I2
s(S'take'
p3528
S'cotton'
p3529
tp3530
I1
s(g3421
S'seat'
p3531
tp3532
I1
s(S'watch'
p3533
S'drink'
p3534
tp3535
I2
s(S'walk'
p3536
S'owner'
p3537
tp3538
I1
s(S'stand'
p3539
S'ball'
p3540
tp3541
I1
s(S'swim'
p3542
S'child'
p3543
tp3544
I1
s(S'stand'
p3545
S'black'
p3546
tp3547
I1
s(g1998
S'record'
p3548
tp3549
I1
s(S'wear'
p3550
S'hill'
p3551
tp3552
I4
s(S'walk'
p3553
S'marketplace'
p3554
tp3555
I1
s(S'pair'
p3556
S'person'
p3557
tp3558
I1
s(S'colored'
p3559
S'area'
p3560
tp3561
I1
s(S'swing'
p3562
S'swing'
p3563
tp3564
I2
s(g2579
g1181
tp3565
I2
s(S'be'
p3566
g1775
tp3567
I1
s(g2869
S'feet'
p3568
tp3569
I1
s(S'give'
p3570
S'peace'
p3571
tp3572
I1
s(S'stare'
p3573
S'lady'
p3574
tp3575
I2
s(g2831
S'hand'
p3576
tp3577
I3
s(S'pull'
p3578
S'rock'
p3579
tp3580
I2
s(g1757
S'field'
p3581
tp3582
I1
s(g3141
S'person'
p3583
tp3584
I1
s(g2815
S'rope'
p3585
tp3586
I1
s(S'carry'
p3587
S'hand'
p3588
tp3589
I2
s(S'play'
p3590
S'swing'
p3591
tp3592
I1
s(S'hold'
p3593
S'area'
p3594
tp3595
I2
s(S'wear'
p3596
S'person'
p3597
tp3598
I9
s(g889
S'end'
p3599
tp3600
I1
s(g2088
S'head'
p3601
tp3602
I3
s(g957
S'look'
p3603
tp3604
I1
s(S'come'
p3605
g587
tp3606
I1
s(S'celebrate'
p3607
S'family'
p3608
tp3609
I1
s(S'lift'
p3610
S'ground'
p3611
tp3612
I1
s(S'do'
p3613
S'tree'
p3614
tp3615
I1
s(S'play'
p3616
S'leash'
p3617
tp3618
I2
s(S'eat'
p3619
S'man'
p3620
tp3621
I1
s(S'cover'
p3622
S'close'
p3623
tp3624
I1
s(S'crossing'
p3625
S'sign'
p3626
tp3627
I1
s(S'encourage'
p3628
S'girl'
p3629
tp3630
I1
s(S'wear'
p3631
S'highway'
p3632
tp3633
I1
s(S'lead'
p3634
S'others'
p3635
tp3636
I1
s(S'pass'
p3637
S'window'
p3638
tp3639
I1
s(S'jump'
p3640
S'seat'
p3641
tp3642
I1
s(g2423
S'set'
p3643
tp3644
I2
s(S'play'
p3645
S'toy'
p3646
tp3647
I19
s(S'turn'
p3648
g2835
tp3649
I1
s(S'shore'
p3650
S'pool'
p3651
tp3652
I1
s(S'stick'
p3653
S'leap'
p3654
tp3655
I2
s(S'be'
p3656
S'plate'
p3657
tp3658
I4
s(S'run'
p3659
S'side'
p3660
tp3661
I11
s(S'log'
p3662
S'water'
p3663
tp3664
I2
s(S'pour'
p3665
S'bar'
p3666
tp3667
I1
s(S'fall'
p3668
S'silver'
p3669
tp3670
I1
s(S'climb'
p3671
S'van'
p3672
tp3673
I1
s(S'pose'
p3674
S'party'
p3675
tp3676
I2
s(S'make'
p3677
S'play'
p3678
tp3679
I1
s(S'have'
p3680
S'cash'
p3681
tp3682
I1
s(S'hold'
p3683
S'artist'
p3684
tp3685
I1
s(S'hold'
p3686
S'air'
p3687
tp3688
I9
s(S'be'
p3689
g2004
tp3690
I3
s(g146
S'statue'
p3691
tp3692
I1
s(S'be'
p3693
S'angle'
p3694
tp3695
I1
s(S'be'
p3696
S'element'
p3697
tp3698
I1
s(S'jump'
p3699
S'hill'
p3700
tp3701
I13
s(g3054
S'point'
p3702
tp3703
I1
s(S'play'
p3704
S'hero'
p3705
tp3706
I1
s(S'enjoy'
p3707
S'time'
p3708
tp3709
I1
s(S'come'
p3710
S'camera'
p3711
tp3712
I1
s(S'climb'
p3713
S'sign'
p3714
tp3715
I1
s(S'be'
p3716
S'clothes'
p3717
tp3718
I3
s(S'perform'
p3719
S'set'
p3720
tp3721
I1
s(S'try'
p3722
g946
tp3723
I1
s(S'sit'
p3724
S'ship'
p3725
tp3726
I1
s(S'have'
p3727
S'interest'
p3728
tp3729
I1
s(S'sit'
p3730
S'tree'
p3731
tp3732
I11
s(S'catch'
p3733
S'crowd'
p3734
tp3735
I1
s(g776
S'note'
p3736
tp3737
I1
s(g957
S'boy'
p3738
tp3739
I1
s(S'catch'
p3740
S'cut'
p3741
tp3742
I1
s(S'take'
p3743
S'seat'
p3744
tp3745
I1
s(S'stare'
p3746
S'ground'
p3747
tp3748
I1
s(g1327
g1086
tp3749
I10
s(S'be'
p3750
g1574
tp3751
I1
s(S'sit'
p3752
S'stone'
p3753
tp3754
I8
s(S'be'
p3755
S'direction'
p3756
tp3757
I4
s(S'be'
p3758
S'hill'
p3759
tp3760
I19
s(S'become'
p3761
g620
tp3762
I1
s(g2202
g3741
tp3763
I1
s(S'catch'
p3764
S'person'
p3765
tp3766
I2
s(S'walk'
p3767
S'peak'
p3768
tp3769
I1
s(S'tend'
p3770
S'tool'
p3771
tp3772
I1
s(g679
S'bench'
p3773
tp3774
I2
s(S'lay'
p3775
g51
tp3776
I1
s(S'be'
p3777
S'jet'
p3778
tp3779
I3
s(g3331
S'night'
p3780
tp3781
I1
s(S'wear'
p3782
S'chest'
p3783
tp3784
I1
s(S'be'
p3785
g3277
tp3786
I2
s(S'pose'
p3787
S'crowd'
p3788
tp3789
I2
s(S'look'
p3790
g2375
tp3791
I2
s(S'watch'
p3792
g321
tp3793
I1
s(S'run'
p3794
g564
tp3795
I12
s(S'run'
p3796
S'court'
p3797
tp3798
I3
s(S'be'
p3799
g3405
tp3800
I1
s(S'play'
p3801
S'screen'
p3802
tp3803
I4
s(g930
g2419
tp3804
I1
s(S'pass'
p3805
S'bridge'
p3806
tp3807
I1
s(S'stand'
p3808
S'point'
p3809
tp3810
I1
s(S'prepare'
p3811
S'water'
p3812
tp3813
I1
s(S'have'
p3814
S'home'
p3815
tp3816
I1
s(S'drive'
p3817
S'night'
p3818
tp3819
I1
s(S'sit'
p3820
S'shoulder'
p3821
tp3822
I1
s(S'be'
p3823
S'sidewalk'
p3824
tp3825
I19
s(S'trail'
p3826
S'side'
p3827
tp3828
I2
s(S'play'
p3829
g2980
tp3830
I3
s(S'is'
p3831
S'arm'
p3832
tp3833
I1
s(g3315
S'artist'
p3834
tp3835
I1
s(S'play'
p3836
S'adult'
p3837
tp3838
I2
s(S'walk'
p3839
S'record'
p3840
tp3841
I1
s(S'catch'
p3842
S'wave'
p3843
tp3844
I4
s(S'wear'
p3845
S'air'
p3846
tp3847
I12
s(S'swim'
p3848
S'face'
p3849
tp3850
I1
s(S'have'
p3851
g1222
tp3852
I1
s(S'watch'
p3853
S'event'
p3854
tp3855
I1
s(S'look'
p3856
S'snow'
p3857
tp3858
I2
s(S'mind'
p3859
g3046
tp3860
I1
s(S'be'
p3861
S'accident'
p3862
tp3863
I1
s(S'gather'
p3864
S'beverage'
p3865
tp3866
I1
s(S'be'
p3867
S'share'
p3868
tp3869
I2
s(S'wear'
p3870
g3657
tp3871
I1
s(S'play'
p3872
S'pool'
p3873
tp3874
I3
s(S'lift'
p3875
g150
tp3876
I1
s(g407
S'hair'
p3877
tp3878
I3
s(S'jump'
p3879
g2158
tp3880
I1
s(g44
S'boy'
p3881
tp3882
I1
s(g1292
S'official'
p3883
tp3884
I1
s(S'play'
p3885
S'sky'
p3886
tp3887
I1
s(S'do'
p3888
g66
tp3889
I1
s(S'hang'
p3890
S'escort'
p3891
tp3892
I1
s(S'stand'
p3893
S'race'
p3894
tp3895
I1
s(S'pull'
p3896
S'bag'
p3897
tp3898
I1
s(S'go'
p3899
S'street'
p3900
tp3901
I1
s(S'wear'
p3902
S'male'
p3903
tp3904
I1
s(S'be'
p3905
S'male'
p3906
tp3907
I1
s(S'jump'
p3908
S'side'
p3909
tp3910
I2
s(S'stand'
p3911
S'truck'
p3912
tp3913
I1
s(S'be'
p3914
S'crash'
p3915
tp3916
I1
s(S'wait'
p3917
S'lunch'
p3918
tp3919
I1
s(S'hold'
p3920
S'rubber'
p3921
tp3922
I3
s(S'engage'
p3923
S'match'
p3924
tp3925
I1
s(S'land'
p3926
g2674
tp3927
I1
s(S'gather'
p3928
S'table'
p3929
tp3930
I3
s(S'writing'
p3931
S'person'
p3932
tp3933
I1
s(S'sit'
p3934
S'ball'
p3935
tp3936
I3
s(S'stand'
p3937
S'something'
p3938
tp3939
I4
s(S'play'
p3940
S'house'
p3941
tp3942
I3
s(S'be'
p3943
S'toll'
p3944
tp3945
I1
s(g1252
S'game'
p3946
tp3947
I1
s(S'bend'
p3948
S'track'
p3949
tp3950
I1
s(S'climb'
p3951
S'tree'
p3952
tp3953
I7
s(g592
S'help'
p3954
tp3955
I1
s(S'be'
p3956
g12
tp3957
I3
s(S'act'
p3958
S'audience'
p3959
tp3960
I1
s(g595
g1115
tp3961
I2
s(S'make'
p3962
g644
tp3963
I1
s(S'run'
p3964
S'building'
p3965
tp3966
I1
s(S'perform'
p3967
S'air'
p3968
tp3969
I7
s(g1661
g3778
tp3970
I1
s(g2077
S'water'
p3971
tp3972
I4
s(S'have'
p3973
S'back'
p3974
tp3975
I4
s(g2343
S'look'
p3976
tp3977
I1
s(S'carry'
p3978
S'tool'
p3979
tp3980
I2
s(S'try'
p3981
g99
tp3982
I1
s(g1797
S'competition'
p3983
tp3984
I3
s(S'watch'
p3985
S'presentation'
p3986
tp3987
I1
s(S'be'
p3988
g1376
tp3989
I1
s(S'cover'
p3990
S'something'
p3991
tp3992
I2
s(S'jump'
p3993
g387
tp3994
I8
s(S'sit'
p3995
S'white'
p3996
tp3997
I1
s(S'have'
p3998
S'adult'
p3999
tp4000
I1
s(S'play'
p4001
S'truck'
p4002
tp4003
I1
s(S'put'
p4004
S'cigarette'
p4005
tp4006
I1
s(S'hang'
p4007
S'art'
p4008
tp4009
I1
s(g3696
S'area'
p4010
tp4011
I21
s(S'have'
p4012
S'pillow'
p4013
tp4014
I3
s(S'sit'
p4015
S'instrument'
p4016
tp4017
I1
s(S'jump'
p4018
g1124
tp4019
I2
s(g2658
S'child'
p4020
tp4021
I1
s(g586
S'lot'
p4022
tp4023
I1
s(g170
S'sheet'
p4024
tp4025
I1
s(S'sit'
p4026
S'someone'
p4027
tp4028
I1
s(S'be'
p4029
S'cold'
p4030
tp4031
I1
s(S'apply'
p4032
g1487
tp4033
I1
s(S'hold'
p4034
S'crowd'
p4035
tp4036
I2
s(S'climb'
p4037
S'friend'
p4038
tp4039
I1
s(S'perform'
p4040
S'area'
p4041
tp4042
I1
s(S'catch'
p4043
g1807
tp4044
I1
s(S'be'
p4045
S'travel'
p4046
tp4047
I3
s(g1381
S'rope'
p4048
tp4049
I12
s(S'carry'
p4050
S'body'
p4051
tp4052
I1
s(S'wear'
p4053
S'band'
p4054
tp4055
I2
s(S'ring'
p4056
g1710
tp4057
I1
s(g2621
S'truck'
p4058
tp4059
I1
s(S'hold'
p4060
g1836
tp4061
I1
s(S'break'
p4062
S'car'
p4063
tp4064
I1
s(S'be'
p4065
S'market'
p4066
tp4067
I2
s(g3522
S'game'
p4068
tp4069
I1
s(S'do'
p4070
S'fancy'
p4071
tp4072
I1
s(S'hang'
p4073
S'train'
p4074
tp4075
I1
s(S'be'
p4076
S'food'
p4077
tp4078
I2
s(S'carry'
p4079
S'snow'
p4080
tp4081
I4
s(S'face'
p4082
S'street'
p4083
tp4084
I1
s(S'leave'
p4085
g2996
tp4086
I1
s(S'do'
p4087
S'cap'
p4088
tp4089
I1
s(S'hang'
p4090
S'set'
p4091
tp4092
I1
s(g3138
g2636
tp4093
I1
s(S'be'
p4094
g3028
tp4095
I27
s(S'be'
p4096
g2319
tp4097
I1
s(g288
S'number'
p4098
tp4099
I1
s(S'log'
p4100
S'watch'
p4101
tp4102
I1
s(g255
S'van'
p4103
tp4104
I1
s(S'help'
p4105
S'baby'
p4106
tp4107
I1
s(S'enjoy'
p4108
S'park'
p4109
tp4110
I1
s(S'celebrate'
p4111
S'man'
p4112
tp4113
I1
s(S'be'
p4114
S'van'
p4115
tp4116
I2
s(S'walk'
p4117
S'van'
p4118
tp4119
I1
s(S'write'
p4120
S'back'
p4121
tp4122
I1
s(g1088
g2509
tp4123
I1
s(S'get'
p4124
g3219
tp4125
I1
s(S'wear'
p4126
S'table'
p4127
tp4128
I1
s(S'take'
p4129
S'air'
p4130
tp4131
I1
s(S'see'
p4132
S'someone'
p4133
tp4134
I1
s(g1500
S'black'
p4135
tp4136
I1
s(S'stand'
p4137
S'boy'
p4138
tp4139
I3
s(S'crossing'
p4140
S'rope'
p4141
tp4142
I1
s(S'climb'
p4143
S'toy'
p4144
tp4145
I2
s(S'wear'
p4146
S'track'
p4147
tp4148
I6
s(S'sit'
p4149
S'table'
p4150
tp4151
I12
s(S'sit'
p4152
g456
tp4153
I1
s(g2242
S'clothing'
p4154
tp4155
I1
s(S'watch'
p4156
g4066
tp4157
I1
s(g2476
S'field'
p4158
tp4159
I8
s(S'help'
p4160
S'rock'
p4161
tp4162
I2
s(g50
S'leash'
p4163
tp4164
I2
s(g267
S'cloud'
p4165
tp4166
I1
s(S'hold'
p4167
S'roll'
p4168
tp4169
I1
s(S'wear'
p4170
S'fight'
p4171
tp4172
I4
s(S'do'
p4173
S'board'
p4174
tp4175
I4
s(S'pull'
p4176
g1909
tp4177
I1
s(S'have'
p4178
g3714
tp4179
I1
s(S'be'
p4180
S'action'
p4181
tp4182
I1
s(S'reach'
p4183
S'bottom'
p4184
tp4185
I2
s(S'look'
p4186
S'stage'
p4187
tp4188
I1
s(S'lay'
p4189
S'look'
p4190
tp4191
I1
s(g1871
S'road'
p4192
tp4193
I1
s(S'be'
p4194
g1598
tp4195
I1
s(S'make'
p4196
S'slope'
p4197
tp4198
I1
s(S'attempt'
p4199
S'building'
p4200
tp4201
I1
s(S'climb'
p4202
S'face'
p4203
tp4204
I12
s(g1191
S'look'
p4205
tp4206
I1
s(S'take'
p4207
S'truck'
p4208
tp4209
I1
s(S'fly'
p4210
S'air'
p4211
tp4212
I19
s(S'print'
p4213
g2574
tp4214
I1
s(S'be'
p4215
S'hair'
p4216
tp4217
I15
s(S'be'
p4218
S'end'
p4219
tp4220
I1
s(g1655
S'path'
p4221
tp4222
I2
s(S'hold'
p4223
S'feet'
p4224
tp4225
I1
s(g332
S'shot'
p4226
tp4227
I1
s(S'walk'
p4228
S'side'
p4229
tp4230
I2
s(g3001
S'player'
p4231
tp4232
I1
s(S'watch'
p4233
S'person'
p4234
tp4235
I1
s(g3511
S'man'
p4236
tp4237
I2
s(S'sit'
p4238
S'column'
p4239
tp4240
I1
s(S'cover'
p4241
S'wave'
p4242
tp4243
I1
s(g4149
g1041
tp4244
I2
s(g1860
S'city'
p4245
tp4246
I3
s(g1046
S'hand'
p4247
tp4248
I41
s(g673
S'body'
p4249
tp4250
I1
s(S'sit'
p4251
S'foot'
p4252
tp4253
I1
s(S'be'
p4254
g1693
tp4255
I1
s(S'run'
p4256
S'team'
p4257
tp4258
I1
s(g8
S'street'
p4259
tp4260
I42
s(S'watch'
p4261
S'start'
p4262
tp4263
I1
s(S'pose'
p4264
S'slide'
p4265
tp4266
I2
s(S'stop'
p4267
S'hill'
p4268
tp4269
I1
s(g919
S'group'
p4270
tp4271
I1
s(S'walk'
p4272
S'direction'
p4273
tp4274
I4
s(g1520
S'stand'
p4275
tp4276
I1
s(S'cut'
p4277
S'child'
p4278
tp4279
I1
s(S'pose'
p4280
S'stone'
p4281
tp4282
I1
s(S'go'
p4283
S'water'
p4284
tp4285
I4
s(S'carry'
p4286
S'ball'
p4287
tp4288
I11
s(S'be'
p4289
S'shape'
p4290
tp4291
I3
s(S'stop'
p4292
S'view'
p4293
tp4294
I1
s(S'enjoy'
p4295
S'winter'
p4296
tp4297
I1
s(S'block'
p4298
S'goal'
p4299
tp4300
I1
s(g2150
g1586
tp4301
I2
s(g2476
S'tree'
p4302
tp4303
I8
s(g2418
g931
tp4304
I1
s(g3042
S'child'
p4305
tp4306
I9
s(g1553
S'crowd'
p4307
tp4308
I1
s(S'get'
p4309
S'picture'
p4310
tp4311
I3
s(S'walk'
p4312
S'road'
p4313
tp4314
I10
s(S'hold'
p4315
S'plane'
p4316
tp4317
I1
s(S'be'
p4318
g1438
tp4319
I2
s(S'sit'
p4320
S'look'
p4321
tp4322
I9
s(g4261
S'race'
p4323
tp4324
I2
s(S'stick'
p4325
g2606
tp4326
I3
s(S'carry'
p4327
S'boy'
p4328
tp4329
I1
s(g3559
S'barrel'
p4330
tp4331
I1
s(S'jump'
p4332
g3883
tp4333
I1
s(g1268
S'park'
p4334
tp4335
I1
s(g1670
S'officer'
p4336
tp4337
I1
s(S'eat'
p4338
S'red'
p4339
tp4340
I1
s(S'eat'
p4341
g1716
tp4342
I4
s(S'refer'
p4343
S'period'
p4344
tp4345
I1
s(g2150
g2799
tp4346
I3
s(S'hang'
p4347
S'run'
p4348
tp4349
I1
s(g1378
S'ground'
p4350
tp4351
I1
s(S'be'
p4352
S'clothing'
p4353
tp4354
I3
s(S'sit'
p4355
S'neighborhood'
p4356
tp4357
I1
s(g2915
S'slide'
p4358
tp4359
I1
s(S'pose'
p4360
S'station'
p4361
tp4362
I1
s(g1372
g2799
tp4363
I1
s(S'drink'
p4364
S'water'
p4365
tp4366
I11
s(S'use'
p4367
S'maker'
p4368
tp4369
I1
s(S'jump'
p4370
S'look'
p4371
tp4372
I1
s(S'spread'
p4373
S'feet'
p4374
tp4375
I1
s(S'hold'
p4376
g3022
tp4377
I1
s(g2831
S'woman'
p4378
tp4379
I13
s(S'make'
p4380
g2069
tp4381
I1
s(S'play'
p4382
S'park'
p4383
tp4384
I7
s(S'walk'
p4385
S'outside'
p4386
tp4387
I3
s(g3937
S'glass'
p4388
tp4389
I1
s(S'be'
p4390
S'knife'
p4391
tp4392
I2
s(S'wear'
p4393
S'newspaper'
p4394
tp4395
I2
s(S'run'
p4396
S'body'
p4397
tp4398
I2
s(S'be'
p4399
S'plant'
p4400
tp4401
I5
s(S'stick'
p4402
g3424
tp4403
I1
s(g2556
g1086
tp4404
I4
s(S'run'
p4405
S'pet'
p4406
tp4407
I1
s(S'sit'
p4408
g75
tp4409
I4
s(g3845
S'arm'
p4410
tp4411
I13
s(g1497
S'drink'
p4412
tp4413
I1
s(g68
S'street'
p4414
tp4415
I1
s(S'grapple'
p4416
S'area'
p4417
tp4418
I1
s(S'stand'
p4419
S'art'
p4420
tp4421
I2
s(S'have'
p4422
S'nose'
p4423
tp4424
I3
s(S'crossing'
p4425
S'street'
p4426
tp4427
I1
s(S'walk'
p4428
S'one'
p4429
tp4430
I1
s(S'follow'
p4431
S'mother'
p4432
tp4433
I1
s(S'carry'
p4434
S'house'
p4435
tp4436
I1
s(g4160
S'man'
p4437
tp4438
I2
s(S'have'
p4439
S'fall'
p4440
tp4441
I3
s(S'be'
p4442
S'board'
p4443
tp4444
I12
s(S'hold'
p4445
S'heart'
p4446
tp4447
I1
s(S'sit'
p4448
S'plane'
p4449
tp4450
I1
s(S'be'
p4451
g1006
tp4452
I8
s(g252
g4219
tp4453
I1
s(g3144
S'garbage'
p4454
tp4455
I1
s(g767
S'leap'
p4456
tp4457
I1
s(S'swim'
p4458
S'butterfly'
p4459
tp4460
I1
s(S'hold'
p4461
S'figure'
p4462
tp4463
I1
s(S'compete'
p4464
S'race'
p4465
tp4466
I1
s(g4277
S'hair'
p4467
tp4468
I1
s(S'sit'
p4469
S'comfort'
p4470
tp4471
I1
s(S'be'
p4472
S'move'
p4473
tp4474
I4
s(g209
g4371
tp4475
I1
s(g3888
S'man'
p4476
tp4477
I1
s(S'have'
p4478
S'head'
p4479
tp4480
I5
s(S'crossing'
p4481
S'area'
p4482
tp4483
I1
s(S'shake'
p4484
g2442
tp4485
I3
s(S'take'
p4486
S'church'
p4487
tp4488
I1
s(S'make'
p4489
S'touch'
p4490
tp4491
I1
s(S'sit'
p4492
S'top'
p4493
tp4494
I1
s(g1215
S'bill'
p4495
tp4496
I1
s(g1215
g629
tp4497
I1
s(S'pair'
p4498
S'building'
p4499
tp4500
I1
s(g1879
S'stand'
p4501
tp4502
I1
s(S'sit'
p4503
S'suit'
p4504
tp4505
I1
s(S'jump'
p4506
g732
tp4507
I12
s(S'use'
p4508
S'machine'
p4509
tp4510
I2
s(S'fly'
p4511
S'building'
p4512
tp4513
I5
s(S'string'
p4514
S'balloon'
p4515
tp4516
I1
s(S'close'
p4517
S'blow'
p4518
tp4519
I1
s(S'watch'
p4520
S'box'
p4521
tp4522
I1
s(S'cast'
p4523
S'boy'
p4524
tp4525
I1
s(S'sit'
p4526
S'window'
p4527
tp4528
I1
s(S'give'
p4529
S'close'
p4530
tp4531
I1
s(S'stare'
p4532
S'crowd'
p4533
tp4534
I1
s(S'carry'
p4535
g390
tp4536
I1
s(S'find'
p4537
S'play'
p4538
tp4539
I1
s(S'use'
p4540
S'metal'
p4541
tp4542
I1
s(S'stand'
p4543
S'pipe'
p4544
tp4545
I1
s(g1271
S'drink'
p4546
tp4547
I1
s(S'pass'
p4548
S'water'
p4549
tp4550
I1
s(S'run'
p4551
S'rope'
p4552
tp4553
I2
s(S'be'
p4554
S'baseball'
p4555
tp4556
I12
s(g3671
S'bench'
p4557
tp4558
I1
s(S'walk'
p4559
S'branch'
p4560
tp4561
I2
s(S'be'
p4562
S'sight'
p4563
tp4564
I1
s(g1600
g4068
tp4565
I1
s(S'include'
p4566
S'front'
p4567
tp4568
I1
s(g1863
S'area'
p4569
tp4570
I1
s(S'hold'
p4571
S'cloth'
p4572
tp4573
I1
s(S'be'
p4574
S'hay'
p4575
tp4576
I3
s(g3024
g1456
tp4577
I4
s(g1550
S'cap'
p4578
tp4579
I1
s(S'take'
p4580
S'pool'
p4581
tp4582
I1
s(S'duck'
p4583
S'toy'
p4584
tp4585
I1
s(S'wear'
p4586
S'court'
p4587
tp4588
I1
s(S'hold'
p4589
S'bar'
p4590
tp4591
I2
s(S'swing'
p4592
S'air'
p4593
tp4594
I1
s(g3276
S'water'
p4595
tp4596
I1
s(S'run'
p4597
S'branch'
p4598
tp4599
I1
s(S'sit'
p4600
S'toy'
p4601
tp4602
I8
s(g4532
g1450
tp4603
I1
s(g1271
S'bottle'
p4604
tp4605
I1
s(S'wear'
p4606
g899
tp4607
I3
s(g335
S'woman'
p4608
tp4609
I1
s(S'wear'
p4610
g2594
tp4611
I9
s(S'do'
p4612
S'range'
p4613
tp4614
I1
s(S'show'
p4615
S'knife'
p4616
tp4617
I1
s(S'back'
p4618
S'area'
p4619
tp4620
I1
s(g1117
S'white'
p4621
tp4622
I1
s(S'trail'
p4623
S'metal'
p4624
tp4625
I1
s(S'chat'
p4626
S'man'
p4627
tp4628
I1
s(S'be'
p4629
S'sound'
p4630
tp4631
I1
s(S'be'
p4632
S'college'
p4633
tp4634
I1
s(S'do'
p4635
S'park'
p4636
tp4637
I6
s(S'climb'
p4638
S'line'
p4639
tp4640
I1
s(g252
S'girl'
p4641
tp4642
I1
s(S'walk'
p4643
S'bank'
p4644
tp4645
I2
s(g2887
S'stand'
p4646
tp4647
I1
s(g1123
S'arm'
p4648
tp4649
I1
s(S'be'
p4650
g2898
tp4651
I2
s(S'be'
p4652
S'guy'
p4653
tp4654
I6
s(S'pose'
p4655
S'city'
p4656
tp4657
I1
s(g4484
S'head'
p4658
tp4659
I1
s(S'wait'
p4660
S'race'
p4661
tp4662
I1
s(S'take'
p4663
S'area'
p4664
tp4665
I1
s(S'watch'
p4666
S'something'
p4667
tp4668
I1
s(S'display'
p4669
S'person'
p4670
tp4671
I1
s(g3057
S'air'
p4672
tp4673
I1
s(S'covered'
p4674
S'pool'
p4675
tp4676
I1
s(g3212
S'sky'
p4677
tp4678
I15
s(S'cover'
p4679
S'head'
p4680
tp4681
I2
s(S'play'
p4682
S'ground'
p4683
tp4684
I1
s(g4207
S'picture'
p4685
tp4686
I41
s(g1230
S'field'
p4687
tp4688
I63
s(S'be'
p4689
g1359
tp4690
I1
s(S'climb'
p4691
S'light'
p4692
tp4693
I1
s(S'drive'
p4694
S'look'
p4695
tp4696
I1
s(S'have'
p4697
S'leash'
p4698
tp4699
I2
s(S'run'
p4700
S'table'
p4701
tp4702
I1
s(S'trail'
p4703
S'sky'
p4704
tp4705
I1
s(S'have'
p4706
S'material'
p4707
tp4708
I1
s(S'run'
p4709
S'boy'
p4710
tp4711
I3
s(g1820
S'man'
p4712
tp4713
I1
s(S'paint'
p4714
S'eye'
p4715
tp4716
I1
s(S'take'
p4717
S'rest'
p4718
tp4719
I1
s(g3917
S'counter'
p4720
tp4721
I1
s(S'use'
p4722
S'arm'
p4723
tp4724
I1
s(S'read'
p4725
S'baby'
p4726
tp4727
I1
s(S'be'
p4728
S'circle'
p4729
tp4730
I1
s(S'follow'
p4731
S'area'
p4732
tp4733
I1
s(g2392
S'man'
p4734
tp4735
I19
s(S'break'
p4736
S'wave'
p4737
tp4738
I2
s(S'bounce'
p4739
S'ball'
p4740
tp4741
I4
s(S'zip'
p4742
g423
tp4743
I2
s(g1748
S'woman'
p4744
tp4745
I1
s(S'appear'
p4746
S'woman'
p4747
tp4748
I1
s(S'compete'
p4749
g9
tp4750
I1
s(S'climb'
p4751
S'hill'
p4752
tp4753
I6
s(S'stand'
p4754
g3390
tp4755
I1
s(S'perform'
p4756
g3384
tp4757
I2
s(g2664
S'person'
p4758
tp4759
I1
s(S'make'
p4760
S'snow'
p4761
tp4762
I2
s(S'climb'
p4763
S'something'
p4764
tp4765
I1
s(S'jump'
p4766
S'lady'
p4767
tp4768
I2
s(S'sit'
p4769
S'star'
p4770
tp4771
I1
s(S'play'
p4772
S'building'
p4773
tp4774
I2
s(S'play'
p4775
S'face'
p4776
tp4777
I1
s(S'perform'
p4778
S'crowd'
p4779
tp4780
I1
s(S'catch'
p4781
S'nose'
p4782
tp4783
I1
s(g4529
S'eye'
p4784
tp4785
I1
s(S'be'
p4786
S'ankle'
p4787
tp4788
I1
s(S'look'
p4789
S'railing'
p4790
tp4791
I1
s(S'walk'
p4792
S'fall'
p4793
tp4794
I2
s(S'check'
p4795
S'camera'
p4796
tp4797
I1
s(S'lead'
p4798
S'boy'
p4799
tp4800
I1
s(S'talk'
p4801
S'night'
p4802
tp4803
I1
s(S'drink'
p4804
g3067
tp4805
I1
s(g1280
S'structure'
p4806
tp4807
I1
s(S'jump'
p4808
S'cushion'
p4809
tp4810
I1
s(g673
S'camera'
p4811
tp4812
I1
s(S'sit'
p4813
S'cardboard'
p4814
tp4815
I3
s(S'begin'
p4816
S'man'
p4817
tp4818
I1
s(S'pose'
p4819
S'path'
p4820
tp4821
I1
s(g188
S'peace'
p4822
tp4823
I1
s(S'make'
p4824
S'use'
p4825
tp4826
I1
s(S'be'
p4827
S'stone'
p4828
tp4829
I7
s(S'swing'
p4830
S'bar'
p4831
tp4832
I1
s(S'wear'
p4833
S'safety'
p4834
tp4835
I3
s(S'point'
p4836
S'something'
p4837
tp4838
I1
s(S'hit'
p4839
S'game'
p4840
tp4841
I2
s(S'help'
p4842
S'street'
p4843
tp4844
I1
s(g2023
S'water'
p4845
tp4846
I1
s(S'stick'
p4847
S'water'
p4848
tp4849
I15
s(S'carry'
p4850
S'metal'
p4851
tp4852
I2
s(g1106
S'building'
p4853
tp4854
I1
s(S'do'
p4855
S'boy'
p4856
tp4857
I1
s(S'stand'
p4858
S'rain'
p4859
tp4860
I1
s(g4566
S'child'
p4861
tp4862
I2
s(S'make'
p4863
S'look'
p4864
tp4865
I3
s(g1582
S'lot'
p4866
tp4867
I1
s(S'hold'
p4868
S'protest'
p4869
tp4870
I2
s(S'craft'
p4871
S'field'
p4872
tp4873
I1
s(S'be'
p4874
S'cement'
p4875
tp4876
I9
s(g540
S'field'
p4877
tp4878
I3
s(S'jump'
p4879
S'camera'
p4880
tp4881
I1
s(S'run'
p4882
S'official'
p4883
tp4884
I1
s(S'play'
p4885
S'water'
p4886
tp4887
I14
s(S'take'
p4888
S'wave'
p4889
tp4890
I1
s(S'climb'
p4891
S'ground'
p4892
tp4893
I2
s(S'stand'
p4894
S'rock'
p4895
tp4896
I5
s(S'be'
p4897
g1077
tp4898
I8
s(S'perform'
p4899
S'stage'
p4900
tp4901
I1
s(S'walk'
p4902
S'casino'
p4903
tp4904
I1
s(g3890
g2461
tp4905
I1
s(S'fly'
p4906
S'ground'
p4907
tp4908
I1
s(S'run'
p4909
g3756
tp4910
I1
s(S'watch'
p4911
S'wave'
p4912
tp4913
I1
s(S'be'
p4914
S'land'
p4915
tp4916
I2
s(S'pose'
p4917
g4192
tp4918
I1
s(S'jump'
p4919
S'ground'
p4920
tp4921
I4
s(S'face'
p4922
S'path'
p4923
tp4924
I1
s(S'cover'
p4925
S'snow'
p4926
tp4927
I2
s(S'leave'
p4928
S'pillow'
p4929
tp4930
I1
s(g71
g2363
tp4931
I8
s(g4186
S'street'
p4932
tp4933
I4
s(S'chase'
p4934
S'snow'
p4935
tp4936
I4
s(S'jump'
p4937
S'back'
p4938
tp4939
I3
s(S'paint'
p4940
S'person'
p4941
tp4942
I1
s(S'fill'
p4943
S'drink'
p4944
tp4945
I1
s(S'run'
p4946
S'race'
p4947
tp4948
I2
s(g3412
g2858
tp4949
I4
s(S'be'
p4950
S'foot'
p4951
tp4952
I1
s(g928
g3303
tp4953
I1
s(S'prepare'
p4954
S'ball'
p4955
tp4956
I2
s(S'chase'
p4957
S'front'
p4958
tp4959
I1
s(g2998
g1993
tp4960
I2
s(S'use'
p4961
S'sign'
p4962
tp4963
I1
s(S'stand'
p4964
g4572
tp4965
I1
s(S'hold'
p4966
g2987
tp4967
I9
s(S'perform'
p4968
S'art'
p4969
tp4970
I1
s(S'be'
p4971
g2544
tp4972
I1
s(S'fold'
p4973
S'play'
p4974
tp4975
I1
s(g140
S'lot'
p4976
tp4977
I3
s(g4241
S'flag'
p4978
tp4979
I1
s(S'pose'
p4980
S'man'
p4981
tp4982
I6
s(g1820
S'try'
p4983
tp4984
I1
s(g1983
S'picture'
p4985
tp4986
I3
s(g4202
g1772
tp4987
I49
s(S'be'
p4988
S'stuff'
p4989
tp4990
I2
s(S'perform'
p4991
S'public'
p4992
tp4993
I1
s(S'go'
p4994
S'railing'
p4995
tp4996
I1
s(S'include'
p4997
S'man'
p4998
tp4999
I1
s(S'walk'
p5000
S'bust'
p5001
tp5002
I1
s(S'enter'
p5003
S'snow'
p5004
tp5005
I1
s(S'pull'
p5006
S'road'
p5007
tp5008
I2
s(S'sit'
p5009
S'rock'
p5010
tp5011
I15
s(g1771
S'safety'
p5012
tp5013
I3
s(S'stick'
p5014
g1613
tp5015
I1
s(S'give'
p5016
S'woman'
p5017
tp5018
I2
s(g2608
S'child'
p5019
tp5020
I2
s(g1753
S'street'
p5021
tp5022
I1
s(S'be'
p5023
S'balance'
p5024
tp5025
I6
s(S'sit'
p5026
S'area'
p5027
tp5028
I2
s(S'carry'
p5029
S'toy'
p5030
tp5031
I10
s(S'gather'
p5032
S'picture'
p5033
tp5034
I1
s(S'read'
p5035
S'outside'
p5036
tp5037
I1
s(S'try'
p5038
S'hand'
p5039
tp5040
I1
s(S'wear'
p5041
S'backyard'
p5042
tp5043
I1
s(g1512
S'watch'
p5044
tp5045
I1
s(S'left'
p5046
g914
tp5047
I1
s(g889
S'slide'
p5048
tp5049
I1
s(S'wear'
p5050
S'run'
p5051
tp5052
I4
s(S'lead'
p5053
S'truck'
p5054
tp5055
I2
s(g71
S'track'
p5056
tp5057
I17
s(g2558
S'pasta'
p5058
tp5059
I1
s(S'catch'
p5060
S'park'
p5061
tp5062
I1
s(S'jump'
p5063
S'woman'
p5064
tp5065
I7
s(g1022
S'vehicle'
p5066
tp5067
I2
s(S'hang'
p5068
g1708
tp5069
I1
s(g1040
S'adult'
p5070
tp5071
I6
s(S'wear'
p5072
S'face'
p5073
tp5074
I14
s(S'be'
p5075
S'strip'
p5076
tp5077
I2
s(g3990
S'area'
p5078
tp5079
I1
s(S'make'
p5080
S'watch'
p5081
tp5082
I1
s(S'climb'
p5083
g3005
tp5084
I3
s(S'display'
p5085
g3938
tp5086
I1
s(S'be'
p5087
S'leap'
p5088
tp5089
I13
s(S'shake'
p5090
S'stand'
p5091
tp5092
I1
s(g758
S'store'
p5093
tp5094
I1
s(S'sit'
p5095
S'middle'
p5096
tp5097
I1
s(S'study'
p5098
S'work'
p5099
tp5100
I1
s(S'carry'
p5101
S'drink'
p5102
tp5103
I1
s(g1088
S'foam'
p5104
tp5105
I1
s(S'be'
p5106
S'store'
p5107
tp5108
I9
s(S'stand'
p5109
S'foot'
p5110
tp5111
I2
s(g2466
g1041
tp5112
I4
s(S'gather'
p5113
g1011
tp5114
I1
s(S'take'
p5115
S'friend'
p5116
tp5117
I1
s(S'be'
p5118
S'night'
p5119
tp5120
I7
s(g4535
S'person'
p5121
tp5122
I1
s(S'have'
p5123
S'item'
p5124
tp5125
I2
s(g4256
S'player'
p5126
tp5127
I2
s(S'sit'
p5128
S'close'
p5129
tp5130
I1
s(S'watch'
p5131
S'leap'
p5132
tp5133
I1
s(S'jump'
p5134
S'blow'
p5135
tp5136
I1
s(S'be'
p5137
g192
tp5138
I4
s(g2397
S'bag'
p5139
tp5140
I1
s(S'see'
p5141
S'snow'
p5142
tp5143
I1
s(g3831
S'face'
p5144
tp5145
I1
s(g1600
g3523
tp5146
I1
s(S'hold'
p5147
S'picture'
p5148
tp5149
I2
s(S'pose'
p5150
S'door'
p5151
tp5152
I1
s(g371
g3303
tp5153
I6
s(S'be'
p5154
g1373
tp5155
I6
s(S'do'
p5156
S'girl'
p5157
tp5158
I1
s(S'examine'
p5159
S'piece'
p5160
tp5161
I1
s(S'hold'
p5162
S'weight'
p5163
tp5164
I2
s(S'be'
p5165
S'winter'
p5166
tp5167
I2
s(S'stand'
p5168
g3308
tp5169
I11
s(S'be'
p5170
g5163
tp5171
I2
s(S'put'
p5172
S'head'
p5173
tp5174
I2
s(g1632
S'woman'
p5175
tp5176
I2
s(g3851
S'balloon'
p5177
tp5178
I1
s(g1120
S'basket'
p5179
tp5180
I1
s(S'jump'
p5181
g4613
tp5182
I1
s(S'give'
p5183
S'race'
p5184
tp5185
I1
s(S'be'
p5186
S'chest'
p5187
tp5188
I1
s(S'take'
p5189
S'girl'
p5190
tp5191
I3
s(g56
g546
tp5192
I1
s(g2091
S'floor'
p5193
tp5194
I1
s(S'hang'
p5195
S'car'
p5196
tp5197
I1
s(S'colored'
p5198
S'tree'
p5199
tp5200
I1
s(g4725
g2975
tp5201
I1
s(g1091
S'play'
p5202
tp5203
I2
s(S'pine'
p5204
S'tree'
p5205
tp5206
I4
s(S'withdraw'
p5207
S'money'
p5208
tp5209
I1
s(g4448
S'ground'
p5210
tp5211
I13
s(S'walk'
p5212
S'series'
p5213
tp5214
I1
s(S'enjoy'
p5215
S'toy'
p5216
tp5217
I1
s(g2168
g822
tp5218
I1
s(S'prepare'
p5219
S'leap'
p5220
tp5221
I1
s(g3508
S'pipe'
p5222
tp5223
I2
s(S'take'
p5224
S'arm'
p5225
tp5226
I1
s(g218
S'child'
p5227
tp5228
I2
s(S'have'
p5229
S'water'
p5230
tp5231
I4
s(S'walk'
p5232
S'end'
p5233
tp5234
I1
s(S'watch'
p5235
S'water'
p5236
tp5237
I3
s(S'be'
p5238
S'inside'
p5239
tp5240
I18
s(g115
g3011
tp5241
I1
s(S'wait'
p5242
S'something'
p5243
tp5244
I1
s(S'carry'
p5245
S'balloon'
p5246
tp5247
I2
s(S'go'
p5248
S'ground'
p5249
tp5250
I1
s(g1526
g4336
tp5251
I1
s(S'eat'
p5252
S'food'
p5253
tp5254
I4
s(g3243
S'eye'
p5255
tp5256
I3
s(g3487
S'fall'
p5257
tp5258
I1
s(g2890
S'woman'
p5259
tp5260
I2
s(S'try'
p5261
S'girl'
p5262
tp5263
I1
s(S'get'
p5264
S'player'
p5265
tp5266
I1
s(S'chase'
p5267
S'baseball'
p5268
tp5269
I1
s(g2587
S'adult'
p5270
tp5271
I1
s(g4202
g5012
tp5272
I5
s(S'crossing'
p5273
S'road'
p5274
tp5275
I2
s(S'stand'
p5276
S'sign'
p5277
tp5278
I2
s(S'jump'
p5279
S'inside'
p5280
tp5281
I2
s(g127
S'bridge'
p5282
tp5283
I1
s(g5016
S'park'
p5284
tp5285
I1
s(g350
g1020
tp5286
I1
s(S'take'
p5287
S'photograph'
p5288
tp5289
I6
s(S'sit'
p5290
S'cement'
p5291
tp5292
I6
s(S'walk'
p5293
S'image'
p5294
tp5295
I1
s(g1483
S'window'
p5296
tp5297
I1
s(S'be'
p5298
S'magazine'
p5299
tp5300
I1
s(g4364
S'bottle'
p5301
tp5302
I2
s(g2508
g5104
tp5303
I2
s(S'stand'
p5304
S'park'
p5305
tp5306
I1
s(g2737
S'look'
p5307
tp5308
I1
s(S'watch'
p5309
S'house'
p5310
tp5311
I1
s(S'lay'
p5312
S'back'
p5313
tp5314
I3
s(g1971
S'use'
p5315
tp5316
I1
s(S'be'
p5317
g2514
tp5318
I1
s(S'wear'
p5319
S'wave'
p5320
tp5321
I1
s(S'have'
p5322
S'time'
p5323
tp5324
I1
s(g2188
S'hill'
p5325
tp5326
I1
s(g1085
g1328
tp5327
I1
s(S'be'
p5328
S'elephant'
p5329
tp5330
I1
s(S'show'
p5331
S'baby'
p5332
tp5333
I1
s(g1771
g4203
tp5334
I22
s(g1402
S'ground'
p5335
tp5336
I1
s(S'be'
p5337
S'pillow'
p5338
tp5339
I1
s(S'be'
p5340
S'blow'
p5341
tp5342
I15
s(g1963
g3854
tp5343
I1
s(S'do'
p5344
S'water'
p5345
tp5346
I1
s(S'make'
p5347
S'track'
p5348
tp5349
I1
s(S'begin'
p5350
g3669
tp5351
I1
s(S'walk'
p5352
S'stone'
p5353
tp5354
I4
s(g2505
S'railing'
p5355
tp5356
I11
s(S'jump'
p5357
S'house'
p5358
tp5359
I1
s(S'lay'
p5360
S'head'
p5361
tp5362
I1
s(S'jump'
p5363
S'others'
p5364
tp5365
I1
s(g3361
S'tree'
p5366
tp5367
I1
s(g2535
S'rock'
p5368
tp5369
I1
s(S'wear'
p5370
S'gold'
p5371
tp5372
I2
s(S'pair'
p5373
g1708
tp5374
I1
s(S'contain'
p5375
S'man'
p5376
tp5377
I1
s(S'take'
p5378
S'watch'
p5379
tp5380
I5
s(g5046
S'stand'
p5381
tp5382
I1
s(S'open'
p5383
g3999
tp5384
I1
s(S'cover'
p5385
g2797
tp5386
I1
s(S'be'
p5387
g1545
tp5388
I2
s(S'take'
p5389
S'path'
p5390
tp5391
I1
s(S'carry'
p5392
S'thing'
p5393
tp5394
I1
s(g942
g3548
tp5395
I1
s(S'run'
p5396
S'run'
p5397
tp5398
I1
s(S'walk'
p5399
S'rider'
p5400
tp5401
I2
s(g598
g3778
tp5402
I1
s(S'walk'
p5403
S'look'
p5404
tp5405
I1
s(g583
S'man'
p5406
tp5407
I2
s(S'perform'
p5408
S'audience'
p5409
tp5410
I1
s(g2676
S'catch'
p5411
tp5412
I6
s(S'pose'
p5413
S'card'
p5414
tp5415
I1
s(g4373
S'water'
p5416
tp5417
I2
s(S'wait'
p5418
S'street'
p5419
tp5420
I3
s(S'wear'
p5421
S'clothing'
p5422
tp5423
I7
s(S'hold'
p5424
S'restaurant'
p5425
tp5426
I2
s(S'wear'
p5427
S'star'
p5428
tp5429
I2
s(g5195
g3557
tp5430
I1
s(S'go'
p5431
S'rock'
p5432
tp5433
I1
s(S'pose'
p5434
S'peak'
p5435
tp5436
I1
s(S'wait'
p5437
S'ball'
p5438
tp5439
I3
s(g2635
g3139
tp5440
I1
s(S'drink'
p5441
g324
tp5442
I1
s(g1040
g4150
tp5443
I10
s(g3607
S'web'
p5444
tp5445
I2
s(S'perform'
p5446
g4181
tp5447
I1
s(g2365
g4864
tp5448
I70
s(g1407
S'bar'
p5449
tp5450
I1
s(S'jump'
p5451
S'ball'
p5452
tp5453
I23
s(S'sit'
p5454
S'passenger'
p5455
tp5456
I1
s(S'make'
p5457
S'tree'
p5458
tp5459
I1
s(S'speak'
p5460
S'person'
p5461
tp5462
I1
s(g1911
S'fancy'
p5463
tp5464
I1
s(S'chat'
p5465
S'police'
p5466
tp5467
I1
s(S'stand'
p5468
S'star'
p5469
tp5470
I1
s(S'take'
p5471
S'view'
p5472
tp5473
I3
s(S'use'
p5474
S'face'
p5475
tp5476
I1
s(S'sit'
p5477
S'rise'
p5478
tp5479
I1
s(S'play'
p5480
S'look'
p5481
tp5482
I2
s(S'take'
p5483
S'score'
p5484
tp5485
I1
s(S'walk'
p5486
S'hand'
p5487
tp5488
I8
s(S'wear'
p5489
S'paper'
p5490
tp5491
I4
s(S'have'
p5492
S'woman'
p5493
tp5494
I7
s(S'wear'
p5495
S'girl'
p5496
tp5497
I3
s(S'be'
p5498
g342
tp5499
I4
s(S'enjoy'
p5500
S'moment'
p5501
tp5502
I1
s(S'hold'
p5503
S'camera'
p5504
tp5505
I16
s(g4652
S'block'
p5506
tp5507
I5
s(S'swim'
p5508
S'cap'
p5509
tp5510
I1
s(S'wear'
p5511
S'winter'
p5512
tp5513
I3
s(S'go'
p5514
S'hill'
p5515
tp5516
I4
s(S'get'
p5517
S'football'
p5518
tp5519
I2
s(S'wear'
p5520
S'ball'
p5521
tp5522
I7
s(g4626
S'city'
p5523
tp5524
I1
s(S'jump'
p5525
g4636
tp5526
I4
s(S'attempt'
p5527
S'side'
p5528
tp5529
I1
s(S'be'
p5530
S'material'
p5531
tp5532
I1
s(S'hold'
p5533
g321
tp5534
I1
s(g1945
S'goal'
p5535
tp5536
I1
s(S'stare'
p5537
S'park'
p5538
tp5539
I1
s(S'tackle'
p5540
S'player'
p5541
tp5542
I4
s(g3727
g4290
tp5543
I1
s(g182
S'rock'
p5544
tp5545
I1
s(S'touch'
p5546
S'ground'
p5547
tp5548
I1
s(S'run'
p5549
S'something'
p5550
tp5551
I8
s(S'compete'
p5552
S'competition'
p5553
tp5554
I1
s(S'be'
p5555
S'focus'
p5556
tp5557
I1
s(S'see'
p5558
S'back'
p5559
tp5560
I1
s(g1916
g2568
tp5561
I1
s(g5113
g2512
tp5562
I1
s(S'carry'
p5563
S'piece'
p5564
tp5565
I1
s(S'operate'
p5566
S'camera'
p5567
tp5568
I2
s(S'be'
p5569
S'hit'
p5570
tp5571
I1
s(S'play'
p5572
S'box'
p5573
tp5574
I2
s(g2879
g804
tp5575
I2
s(g5141
S'figure'
p5576
tp5577
I1
s(g3355
S'interest'
p5578
tp5579
I1
s(S'wear'
p5580
S'hair'
p5581
tp5582
I4
s(S'pose'
p5583
S'adult'
p5584
tp5585
I1
s(g2854
S'arm'
p5586
tp5587
I5
s(S'run'
p5588
S'collar'
p5589
tp5590
I1
s(S'run'
p5591
g5310
tp5592
I2
s(S'stand'
p5593
S'shop'
p5594
tp5595
I1
s(g1503
S'ball'
p5596
tp5597
I1
s(S'push'
p5598
g3903
tp5599
I1
s(S'wear'
p5600
S'wings'
p5601
tp5602
I2
s(g392
S'father'
p5603
tp5604
I1
s(g473
S'slide'
p5605
tp5606
I1
s(S'pose'
p5607
S'power'
p5608
tp5609
I2
s(g761
S'museum'
p5610
tp5611
I1
s(S'wear'
p5612
S'work'
p5613
tp5614
I1
s(S'wait'
p5615
S'traffic'
p5616
tp5617
I1
s(g4514
S'head'
p5618
tp5619
I1
s(S'try'
p5620
S'slide'
p5621
tp5622
I1
s(S'sit'
p5623
S'direction'
p5624
tp5625
I1
s(S'hold'
p5626
S'drawing'
p5627
tp5628
I1
s(S'watch'
p5629
S'air'
p5630
tp5631
I1
s(S'read'
p5632
g2864
tp5633
I2
s(S'be'
p5634
g3098
tp5635
I1
s(S'read'
p5636
S'bench'
p5637
tp5638
I2
s(S'have'
p5639
S'air'
p5640
tp5641
I1
s(g1553
S'front'
p5642
tp5643
I1
s(g185
g2433
tp5644
I1
s(S'play'
p5645
S'fight'
p5646
tp5647
I2
s(S'be'
p5648
S'bank'
p5649
tp5650
I1
s(S'carry'
p5651
S'football'
p5652
tp5653
I2
s(S'walk'
p5654
S'rope'
p5655
tp5656
I2
s(g4090
S'play'
p5657
tp5658
I1
s(S'appear'
p5659
g2885
tp5660
I1
s(g2374
S'right'
p5661
tp5662
I4
s(S'hold'
p5663
S'path'
p5664
tp5665
I1
s(S'play'
p5666
S'photograph'
p5667
tp5668
I1
s(S'open'
p5669
S'toy'
p5670
tp5671
I1
s(S'stand'
p5672
S'snow'
p5673
tp5674
I7
s(S'run'
p5675
S'lot'
p5676
tp5677
I2
s(g1963
S'person'
p5678
tp5679
I1
s(S'catch'
p5680
S'snow'
p5681
tp5682
I4
s(g836
S'cigarette'
p5683
tp5684
I2
s(g1147
S'slide'
p5685
tp5686
I1
s(S'be'
p5687
g2101
tp5688
I1
s(S'stand'
p5689
S'set'
p5690
tp5691
I2
s(g2801
S'door'
p5692
tp5693
I1
s(g2111
S'person'
p5694
tp5695
I2
s(S'flooded'
p5696
S'street'
p5697
tp5698
I1
s(g3437
g345
tp5699
I1
s(S'jump'
p5700
S'cement'
p5701
tp5702
I1
s(S'run'
p5703
S'ground'
p5704
tp5705
I6
s(g2787
S'man'
p5706
tp5707
I5
s(S'be'
p5708
S'vehicle'
p5709
tp5710
I4
s(g2890
S'adult'
p5711
tp5712
I1
s(S'view'
p5713
S'girl'
p5714
tp5715
I1
s(S'hold'
p5716
S'hair'
p5717
tp5718
I4
s(S'do'
p5719
g564
tp5720
I1
s(g1097
g5274
tp5721
I2
s(S'run'
p5722
g2940
tp5723
I36
s(S'put'
p5724
S'snow'
p5725
tp5726
I1
s(g4666
S'fall'
p5727
tp5728
I1
s(S'get'
p5729
S'order'
p5730
tp5731
I1
s(g115
S'child'
p5732
tp5733
I1
s(g2965
S'car'
p5734
tp5735
I1
s(S'be'
p5736
g1996
tp5737
I4
s(S'welcome'
p5738
S'stone'
p5739
tp5740
I1
s(S'wear'
p5741
S'airplane'
p5742
tp5743
I2
s(g3637
g6
tp5744
I1
s(g2602
S'play'
p5745
tp5746
I1
s(S'watch'
p5747
S'park'
p5748
tp5749
I1
s(g5046
S'person'
p5750
tp5751
I1
s(S'hold'
p5752
S'rope'
p5753
tp5754
I6
s(S'hold'
p5755
g700
tp5756
I12
s(g3340
S'day'
p5757
tp5758
I4
s(S'run'
p5759
S'board'
p5760
tp5761
I1
s(S'jump'
p5762
S'course'
p5763
tp5764
I2
s(S'hold'
p5765
S'rock'
p5766
tp5767
I3
s(S'duck'
p5768
S'snow'
p5769
tp5770
I1
s(S'watch'
p5771
S'boy'
p5772
tp5773
I6
s(g4863
g2366
tp5774
I1
s(S'drink'
p5775
g1453
tp5776
I1
s(S'be'
p5777
S'swing'
p5778
tp5779
I32
s(g197
g1458
tp5780
I4
s(S'launch'
p5781
S'bar'
p5782
tp5783
I1
s(g4355
g2700
tp5784
I1
s(g4448
S'inside'
p5785
tp5786
I7
s(g4520
S'screen'
p5787
tp5788
I1
s(S'climb'
p5789
S'sky'
p5790
tp5791
I1
s(g17
S'hair'
p5792
tp5793
I1
s(S'engage'
p5794
g2450
tp5795
I1
s(S'trail'
p5796
g2996
tp5797
I1
s(S'paint'
p5798
S'clothing'
p5799
tp5800
I1
s(S'be'
p5801
S'bull'
p5802
tp5803
I2
s(S'chase'
p5804
S'plane'
p5805
tp5806
I1
s(g640
S'man'
p5807
tp5808
I1
s(g1632
S'case'
p5809
tp5810
I3
s(S'stick'
p5811
g2945
tp5812
I1
s(g557
S'head'
p5813
tp5814
I1
s(g1364
S'something'
p5815
tp5816
I1
s(S'be'
p5817
g5805
tp5818
I2
s(S'try'
p5819
S'white'
p5820
tp5821
I1
s(S'be'
p5822
S'rope'
p5823
tp5824
I22
s(S'jump'
p5825
S'black'
p5826
tp5827
I1
s(S'draw'
p5828
S'face'
p5829
tp5830
I1
s(g398
S'man'
p5831
tp5832
I11
s(g3373
S'field'
p5833
tp5834
I1
s(S'eat'
p5835
g2774
tp5836
I1
s(g3355
S'light'
p5837
tp5838
I1
s(S'free'
p5839
S'vehicle'
p5840
tp5841
I1
s(S'get'
p5842
S'land'
p5843
tp5844
I1
s(g200
g3306
tp5845
I1
s(g688
S'march'
p5846
tp5847
I4
s(S'perform'
p5848
S'man'
p5849
tp5850
I1
s(g3434
S'crowd'
p5851
tp5852
I1
s(S'bring'
p5853
g2183
tp5854
I1
s(S'compete'
p5855
S'event'
p5856
tp5857
I1
s(S'put'
p5858
g5463
tp5859
I1
s(g2693
S'crowd'
p5860
tp5861
I6
s(g839
S'tree'
p5862
tp5863
I11
s(S'swim'
p5864
S'man'
p5865
tp5866
I1
s(S'hit'
p5867
S'racket'
p5868
tp5869
I1
s(g5156
S'side'
p5870
tp5871
I1
s(g344
g3438
tp5872
I1
s(S'walk'
p5873
S'statue'
p5874
tp5875
I1
s(S'jump'
p5876
g4374
tp5877
I1
s(S'be'
p5878
S'stadium'
p5879
tp5880
I5
s(g3448
S'tree'
p5881
tp5882
I1
s(S'jump'
p5883
S'view'
p5884
tp5885
I1
s(S'hang'
p5886
S'outside'
p5887
tp5888
I1
s(g583
g1481
tp5889
I1
s(S'walk'
p5890
S'couple'
p5891
tp5892
I1
s(S'be'
p5893
S'wave'
p5894
tp5895
I22
s(g3836
S'blow'
p5896
tp5897
I1
s(S'drink'
p5898
S'girl'
p5899
tp5900
I1
s(S'run'
p5901
S'spot'
p5902
tp5903
I1
s(S'catch'
p5904
S'boy'
p5905
tp5906
I1
s(g2432
g186
tp5907
I1
s(S'run'
p5908
S'cycle'
p5909
tp5910
I1
s(g1271
S'stand'
p5911
tp5912
I1
s(S'lay'
p5913
S'camera'
p5914
tp5915
I1
s(S'skip'
p5916
S'path'
p5917
tp5918
I1
s(S'hold'
p5919
S'point'
p5920
tp5921
I4
s(S'walk'
p5922
S'place'
p5923
tp5924
I1
s(g3010
S'cow'
p5925
tp5926
I1
s(S'be'
p5927
S'start'
p5928
tp5929
I1
s(g2820
S'swing'
p5930
tp5931
I1
s(S'wear'
p5932
S'car'
p5933
tp5934
I2
s(S'cover'
p5935
S'group'
p5936
tp5937
I1
s(S'take'
p5938
g2807
tp5939
I1
s(S'be'
p5940
S'rider'
p5941
tp5942
I4
s(S'sit'
p5943
S'car'
p5944
tp5945
I5
s(S'walk'
p5946
S'water'
p5947
tp5948
I27
s(g3790
g5661
tp5949
I3
s(g1034
g3148
tp5950
I1
s(g2508
g1089
tp5951
I2
s(S'look'
p5952
g3694
tp5953
I1
s(S'paint'
p5954
S'football'
p5955
tp5956
I1
s(S'perform'
p5957
S'building'
p5958
tp5959
I1
s(S'create'
p5960
g304
tp5961
I1
s(g725
S'blood'
p5962
tp5963
I1
s(S'play'
p5964
g2565
tp5965
I1
s(S'wear'
p5966
S'bottom'
p5967
tp5968
I2
s(S'have'
p5969
g1900
tp5970
I2
s(S'climb'
p5971
S'way'
p5972
tp5973
I1
s(S'swing'
p5974
S'baseball'
p5975
tp5976
I2
s(g1191
S'something'
p5977
tp5978
I1
s(S'be'
p5979
S'cow'
p5980
tp5981
I5
s(g3398
g674
tp5982
I1
s(S'be'
p5983
g2975
tp5984
I1
s(S'bend'
p5985
S'course'
p5986
tp5987
I1
s(S'wear'
p5988
S'purse'
p5989
tp5990
I1
s(g2743
g2688
tp5991
I1
s(S'be'
p5992
S'spring'
p5993
tp5994
I1
s(g1755
S'person'
p5995
tp5996
I3
s(S'look'
p5997
g2963
tp5998
I1
s(S'hold'
p5999
S'racket'
p6000
tp6001
I7
s(g4120
S'friend'
p6002
tp6003
I1
s(g4469
S'try'
p6004
tp6005
I2
s(S'walk'
p6006
S'group'
p6007
tp6008
I1
s(S'face'
p6009
g1713
tp6010
I2
s(S'accompany'
p6011
S'man'
p6012
tp6013
I1
s(S'wait'
p6014
S'customer'
p6015
tp6016
I3
s(S'prepare'
p6017
S'toy'
p6018
tp6019
I1
s(S'have'
p6020
S'knife'
p6021
tp6022
I1
s(S'do'
p6023
S'head'
p6024
tp6025
I1
s(S'cover'
p6026
S'stone'
p6027
tp6028
I1
s(S'eat'
p6029
S'step'
p6030
tp6031
I1
s(S'jump'
p6032
S'sheet'
p6033
tp6034
I1
s(g1748
S'girl'
p6035
tp6036
I1
s(S'wear'
p6037
S'vehicle'
p6038
tp6039
I1
s(S'catch'
p6040
S'ball'
p6041
tp6042
I34
s(g5460
g2877
tp6043
I1
s(g3764
S'group'
p6044
tp6045
I1
s(S'pose'
p6046
S'rock'
p6047
tp6048
I2
s(g5853
g1299
tp6049
I1
s(S'jump'
p6050
g3368
tp6051
I1
s(g4749
g4259
tp6052
I1
s(S'emerge'
p6053
S'pool'
p6054
tp6055
I2
s(g1159
S'man'
p6056
tp6057
I2
s(S'turn'
p6058
g5484
tp6059
I1
s(S'teach'
p6060
S'boy'
p6061
tp6062
I2
s(S'help'
p6063
S'slide'
p6064
tp6065
I3
s(g2239
g3297
tp6066
I1
s(g1319
S'run'
p6067
tp6068
I1
s(S'talk'
p6069
S'bottle'
p6070
tp6071
I1
s(S'sit'
p6072
S'something'
p6073
tp6074
I2
s(S'stop'
p6075
S'camera'
p6076
tp6077
I1
s(g598
g1662
tp6078
I1
s(S'make'
p6079
S'steel'
p6080
tp6081
I1
s(S'wear'
p6082
S'field'
p6083
tp6084
I6
s(S'sell'
p6085
S'toy'
p6086
tp6087
I3
s(g2482
S'leap'
p6088
tp6089
I4
s(S'make'
p6090
S'goal'
p6091
tp6092
I1
s(g847
g2844
tp6093
I1
s(g3393
S'field'
p6094
tp6095
I1
s(g5378
S'boy'
p6096
tp6097
I2
s(S'follow'
p6098
S'line'
p6099
tp6100
I1
s(g901
S'front'
p6101
tp6102
I2
s(S'be'
p6103
S'sticker'
p6104
tp6105
I1
s(S'take'
p6106
S'start'
p6107
tp6108
I1
s(S'stand'
p6109
S'back'
p6110
tp6111
I1
s(S'catch'
p6112
S'safety'
p6113
tp6114
I1
s(g2131
S'railing'
p6115
tp6116
I2
s(S'come'
p6117
S'crash'
p6118
tp6119
I1
s(g2348
g3457
tp6120
I1
s(S'be'
p6121
S'hole'
p6122
tp6123
I4
s(S'have'
p6124
S'wound'
p6125
tp6126
I1
s(S'stare'
p6127
S'front'
p6128
tp6129
I1
s(g1034
S'field'
p6130
tp6131
I1
s(S'take'
p6132
S'track'
p6133
tp6134
I1
s(g1416
S'act'
p6135
tp6136
I1
s(g856
S'front'
p6137
tp6138
I12
s(S'be'
p6139
S'silver'
p6140
tp6141
I3
s(S'pose'
p6142
g2072
tp6143
I1
s(g4498
g5233
tp6144
I1
s(S'hit'
p6145
S'boy'
p6146
tp6147
I2
s(S'be'
p6148
S'row'
p6149
tp6150
I2
s(S'go'
p6151
S'road'
p6152
tp6153
I1
s(g6090
S'player'
p6154
tp6155
I1
s(g326
g2847
tp6156
I1
s(S'jump'
p6157
g6067
tp6158
I1
s(S'look'
p6159
S'window'
p6160
tp6161
I4
s(S'catch'
p6162
g5640
tp6163
I3
s(S'stand'
p6164
S'toy'
p6165
tp6166
I1
s(g3622
S'eye'
p6167
tp6168
I1
s(S'run'
p6169
S'front'
p6170
tp6171
I7
s(S'hold'
p6172
S'front'
p6173
tp6174
I13
s(g749
S'arm'
p6175
tp6176
I8
s(S'say'
p6177
S'life'
p6178
tp6179
I1
s(S'stand'
p6180
g2030
tp6181
I1
s(S'hold'
p6182
S'piece'
p6183
tp6184
I1
s(S'stick'
p6185
S'river'
p6186
tp6187
I1
s(S'fly'
p6188
S'street'
p6189
tp6190
I1
s(S'look'
p6191
S'river'
p6192
tp6193
I1
s(g1871
S'tree'
p6194
tp6195
I1
s(S'talk'
p6196
S'girl'
p6197
tp6198
I1
s(S'sit'
p6199
S'machine'
p6200
tp6201
I2
s(S'lay'
p6202
S'tree'
p6203
tp6204
I3
s(S'have'
p6205
S'block'
p6206
tp6207
I1
s(S'wear'
p6208
S'caution'
p6209
tp6210
I2
s(g5085
S'picture'
p6211
tp6212
I2
s(S'walk'
p6213
g2597
tp6214
I2
s(g1526
g1671
tp6215
I5
s(S'sit'
p6216
S'station'
p6217
tp6218
I4
s(g2947
S'cap'
p6219
tp6220
I1
s(S'hold'
p6221
S'card'
p6222
tp6223
I4
s(g4312
S'winter'
p6224
tp6225
I2
s(S'sit'
p6226
S'leather'
p6227
tp6228
I1
s(S'walk'
p6229
g4704
tp6230
I1
s(g4778
S'front'
p6231
tp6232
I2
s(g990
g1665
tp6233
I1
s(S'have'
p6234
S'sky'
p6235
tp6236
I1
s(g5971
S'set'
p6237
tp6238
I2
s(S'walk'
p6239
S'row'
p6240
tp6241
I2
s(S'stand'
p6242
S'officer'
p6243
tp6244
I1
s(S'hit'
p6245
S'net'
p6246
tp6247
I1
s(S'run'
p6248
S'time'
p6249
tp6250
I1
s(S'be'
p6251
S'paper'
p6252
tp6253
I3
s(S'walk'
p6254
S'inside'
p6255
tp6256
I1
s(g5072
S'water'
p6257
tp6258
I20
s(g3625
S'park'
p6259
tp6260
I1
s(S'make'
p6261
g2060
tp6262
I1
s(S'sign'
p6263
S'paper'
p6264
tp6265
I1
s(S'fill'
p6266
S'market'
p6267
tp6268
I1
s(S'colored'
p6269
S'arm'
p6270
tp6271
I1
s(S'suspend'
p6272
S'air'
p6273
tp6274
I1
s(S'use'
p6275
S'event'
p6276
tp6277
I1
s(S'bend'
p6278
g2877
tp6279
I1
s(S'come'
p6280
S'pool'
p6281
tp6282
I1
s(S'stand'
p6283
g6192
tp6284
I1
s(g1718
S'bag'
p6285
tp6286
I3
s(S'hold'
p6287
S'writing'
p6288
tp6289
I1
s(S'run'
p6290
S'girl'
p6291
tp6292
I1
s(g419
S'look'
p6293
tp6294
I2
s(g4213
S'baby'
p6295
tp6296
I1
s(S'use'
p6297
S'woman'
p6298
tp6299
I1
s(g2174
g5056
tp6300
I4
s(g2638
S'competitor'
p6301
tp6302
I1
s(g5952
S'stadium'
p6303
tp6304
I1
s(S'make'
p6305
S'way'
p6306
tp6307
I6
s(S'watch'
p6308
g1560
tp6309
I2
s(S'chase'
p6310
S'buck'
p6311
tp6312
I1
s(g2185
S'food'
p6313
tp6314
I1
s(S'pose'
p6315
S'hero'
p6316
tp6317
I1
s(S'wear'
p6318
S'river'
p6319
tp6320
I3
s(S'wear'
p6321
S'marketplace'
p6322
tp6323
I1
s(S'hold'
p6324
S'slide'
p6325
tp6326
I2
s(S'reach'
p6327
g3714
tp6328
I1
s(g1916
S'woman'
p6329
tp6330
I2
s(S'do'
p6331
S'audience'
p6332
tp6333
I1
s(S'hang'
p6334
S'ground'
p6335
tp6336
I2
s(S'wear'
p6337
S'phone'
p6338
tp6339
I1
s(g6106
S'line'
p6340
tp6341
I1
s(S'have'
p6342
S'boy'
p6343
tp6344
I2
s(g2809
S'hand'
p6345
tp6346
I3
s(g2869
S'rest'
p6347
tp6348
I1
s(g2334
S'player'
p6349
tp6350
I1
s(g5713
g2275
tp6351
I1
s(g170
S'ground'
p6352
tp6353
I1
s(g3156
S'goal'
p6354
tp6355
I1
s(S'stand'
p6356
S'body'
p6357
tp6358
I1
s(S'play'
p6359
S'strip'
p6360
tp6361
I1
s(S'jump'
p6362
S'shot'
p6363
tp6364
I1
s(g3205
S'railing'
p6365
tp6366
I1
s(S'eat'
p6367
S'corn'
p6368
tp6369
I4
s(S'be'
p6370
S'item'
p6371
tp6372
I2
s(S'run'
p6373
S'woman'
p6374
tp6375
I1
s(g919
S'stand'
p6376
tp6377
I1
s(S'be'
p6378
S'put'
p6379
tp6380
I1
s(S'make'
p6381
S'woman'
p6382
tp6383
I1
s(S'play'
p6384
S'run'
p6385
tp6386
I1
s(g4149
g2467
tp6387
I4
s(g4062
S'race'
p6388
tp6389
I1
s(S'jump'
p6390
S'air'
p6391
tp6392
I60
s(g779
S'group'
p6393
tp6394
I3
s(S'jump'
p6395
S'hero'
p6396
tp6397
I1
s(g3434
S'watch'
p6398
tp6399
I1
s(S'launch'
p6400
S'quarter'
p6401
tp6402
I1
s(S'wear'
p6403
g5355
tp6404
I3
s(S'wear'
p6405
S'coffee'
p6406
tp6407
I1
s(g3962
S'park'
p6408
tp6409
I1
s(S'do'
p6410
S'art'
p6411
tp6412
I1
s(g1998
S'something'
p6413
tp6414
I1
s(S'stand'
p6415
S'ground'
p6416
tp6417
I1
s(S'be'
p6418
g5608
tp6419
I2
s(g528
S'game'
p6420
tp6421
I1
s(S'wear'
p6422
g271
tp6423
I1
s(S'be'
p6424
g1029
tp6425
I1
s(S'prepare'
p6426
S'hand'
p6427
tp6428
I1
s(S'have'
p6429
S'match'
p6430
tp6431
I1
s(S'be'
p6432
g36
tp6433
I3
s(S'go'
p6434
S'backdrop'
p6435
tp6436
I1
s(S'drive'
p6437
S'tree'
p6438
tp6439
I1
s(g3069
S'parent'
p6440
tp6441
I1
s(S'trail'
p6442
S'inside'
p6443
tp6444
I1
s(S'hang'
p6445
S'metal'
p6446
tp6447
I4
s(S'cast'
p6448
S'use'
p6449
tp6450
I1
s(S'wear'
p6451
g1536
tp6452
I1
s(S'have'
p6453
g5033
tp6454
I2
s(S'be'
p6455
g2272
tp6456
I27
s(S'swim'
p6457
S'wings'
p6458
tp6459
I1
s(S'be'
p6460
g2969
tp6461
I9
s(g410
S'camera'
p6462
tp6463
I2
s(g6405
S'shop'
p6464
tp6465
I3
s(S'pass'
p6466
S'sign'
p6467
tp6468
I1
s(g1924
S'crowd'
p6469
tp6470
I1
s(S'hit'
p6471
S'air'
p6472
tp6473
I1
s(g3302
g372
tp6474
I1
s(g2825
g2977
tp6475
I7
s(g273
S'pipe'
p6476
tp6477
I1
s(S'be'
p6478
S'roll'
p6479
tp6480
I3
s(S'use'
p6481
S'wave'
p6482
tp6483
I1
s(S'look'
p6484
S'boy'
p6485
tp6486
I1
s(S'jump'
p6487
S'portion'
p6488
tp6489
I1
s(g1337
S'college'
p6490
tp6491
I1
s(g5988
g348
tp6492
I12
s(S'be'
p6493
S'close'
p6494
tp6495
I1
s(S'hold'
p6496
S'nose'
p6497
tp6498
I1
s(S'record'
p6499
g6276
tp6500
I1
s(S'stand'
p6501
S'side'
p6502
tp6503
I2
s(g2147
S'air'
p6504
tp6505
I1
s(S'jump'
p6506
g459
tp6507
I2
s(S'hold'
p6508
S'catch'
p6509
tp6510
I2
s(S'run'
p6511
S'racket'
p6512
tp6513
I2
s(S'mount'
p6514
g5879
tp6515
I1
s(g1879
S'shelf'
p6516
tp6517
I1
s(S'catch'
p6518
g277
tp6519
I15
s(g649
S'man'
p6520
tp6521
I1
s(g1324
S'farm'
p6522
tp6523
I2
s(g3007
S'field'
p6524
tp6525
I1
s(S'run'
p6526
S'white'
p6527
tp6528
I2
s(S'look'
p6529
S'view'
p6530
tp6531
I1
s(S'take'
p6532
g2381
tp6533
I1
s(g6269
S'knife'
p6534
tp6535
I1
s(S'get'
p6536
g1129
tp6537
I1
s(g3267
S'game'
p6538
tp6539
I1
s(g2687
g2744
tp6540
I12
s(S'hold'
p6541
S'something'
p6542
tp6543
I5
s(S'swim'
p6544
S'back'
p6545
tp6546
I1
s(S'sit'
p6547
g6030
tp6548
I14
s(S'play'
p6549
g2603
tp6550
I1
s(g3493
g3019
tp6551
I1
s(g5465
S'officer'
p6552
tp6553
I1
s(g3937
g6211
tp6554
I4
s(S'be'
p6555
g6368
tp6556
I5
s(S'pass'
p6557
S'crowd'
p6558
tp6559
I1
s(g5304
S'area'
p6560
tp6561
I1
s(S'writing'
p6562
g2101
tp6563
I1
s(g3153
S'roll'
p6564
tp6565
I1
s(S'make'
p6566
S'high'
p6567
tp6568
I1
s(g4233
g2614
tp6569
I1
s(S'ring'
p6570
S'girl'
p6571
tp6572
I1
s(S'pass'
p6573
g5874
tp6574
I1
s(g764
g5815
tp6575
I1
s(g4094
S'course'
p6576
tp6577
I7
s(S'wear'
p6578
S'scale'
p6579
tp6580
I1
s(S'sit'
p6581
S'transportation'
p6582
tp6583
I2
s(S'jump'
p6584
S'rope'
p6585
tp6586
I7
s(S'walk'
p6587
S'base'
p6588
tp6589
I1
s(S'wear'
p6590
S'flow'
p6591
tp6592
I1
s(S'look'
p6593
S'swing'
p6594
tp6595
I1
s(S'run'
p6596
S'city'
p6597
tp6598
I1
s(S'climb'
p6599
S'reach'
p6600
tp6601
I2
s(g1156
S'crowd'
p6602
tp6603
I1
s(S'carry'
p6604
S'stuff'
p6605
tp6606
I1
s(S'be'
p6607
S'statue'
p6608
tp6609
I6
s(S'show'
p6610
S'skill'
p6611
tp6612
I1
s(S'shoot'
p6613
S'picture'
p6614
tp6615
I1
s(g1059
S'road'
p6616
tp6617
I2
s(g1343
S'silver'
p6618
tp6619
I5
s(S'be'
p6620
g1536
tp6621
I1
s(g3533
S'bottle'
p6622
tp6623
I3
s(S'walk'
p6624
S'stream'
p6625
tp6626
I5
s(S'take'
p6627
S'water'
p6628
tp6629
I9
s(S'walk'
p6630
g5428
tp6631
I1
s(g628
g4495
tp6632
I1
s(g2511
g1011
tp6633
I1
s(g4489
g5422
tp6634
I1
s(S'play'
p6635
g1057
tp6636
I22
s(g3550
g96
tp6637
I26
s(g1512
g4245
tp6638
I1
s(S'look'
p6639
S'screen'
p6640
tp6641
I1
s(g913
g5381
tp6642
I1
s(S'begin'
p6643
g3438
tp6644
I1
s(S'catch'
p6645
S'look'
p6646
tp6647
I1
s(g5569
S'racket'
p6648
tp6649
I4
s(S'hold'
p6650
g4344
tp6651
I1
s(S'give'
p6652
S'camera'
p6653
tp6654
I1
s(S'drop'
p6655
S'net'
p6656
tp6657
I1
s(g2065
g1679
tp6658
I1
s(S'walk'
p6659
S'rain'
p6660
tp6661
I2
s(g4370
g210
tp6662
I1
s(g5421
S'apparel'
p6663
tp6664
I1
s(g3110
S'picture'
p6665
tp6666
I1
s(S'hold'
p6667
S'baseball'
p6668
tp6669
I1
s(S'stand'
p6670
g3728
tp6671
I1
s(S'run'
p6672
S'outside'
p6673
tp6674
I1
s(S'walk'
p6675
S'market'
p6676
tp6677
I2
s(g4666
S'tree'
p6678
tp6679
I2
s(g628
g1257
tp6680
I1
s(g1838
S'face'
p6681
tp6682
I1
s(g3496
S'vehicle'
p6683
tp6684
I4
s(g291
S'arm'
p6685
tp6686
I1
s(g1340
g2027
tp6687
I1
s(g1455
S'equipment'
p6688
tp6689
I5
s(S'wait'
p6690
S'train'
p6691
tp6692
I6
s(S'climb'
p6693
S'area'
p6694
tp6695
I1
s(S'end'
p6696
S'bottom'
p6697
tp6698
I1
s(S'prepare'
p6699
S'show'
p6700
tp6701
I1
s(S'play'
p6702
S'man'
p6703
tp6704
I1
s(S'juggle'
p6705
S'fire'
p6706
tp6707
I1
s(g4469
S'floor'
p6708
tp6709
I2
s(S'sit'
p6710
S'restaurant'
p6711
tp6712
I5
s(g4618
g3359
tp6713
I1
s(g5890
S'cement'
p6714
tp6715
I1
s(g3237
S'arm'
p6716
tp6717
I2
s(S'run'
p6718
g605
tp6719
I1
s(S'be'
p6720
g3986
tp6721
I1
s(g413
S'phone'
p6722
tp6723
I1
s(S'sit'
p6724
S'farm'
p6725
tp6726
I1
s(S'take'
p6727
S'baby'
p6728
tp6729
I4
s(S'go'
p6730
S'building'
p6731
tp6732
I1
s(S'play'
p6733
S'tag'
p6734
tp6735
I1
s(g2989
S'barrier'
p6736
tp6737
I1
s(S'lead'
p6738
g5400
tp6739
I2
s(g1111
S'lead'
p6740
tp6741
I1
s(S'wear'
p6742
S'rain'
p6743
tp6744
I2
s(S'stand'
p6745
S'food'
p6746
tp6747
I1
s(S'sell'
p6748
S'drink'
p6749
tp6750
I1
s(S'play'
p6751
S'boy'
p6752
tp6753
I2
s(S'gain'
p6754
S'ball'
p6755
tp6756
I1
s(g3299
S'child'
p6757
tp6758
I1
s(g3042
S'court'
p6759
tp6760
I2
s(S'cast'
p6761
g6276
tp6762
I1
s(S'sit'
p6763
g4974
tp6764
I2
s(S'try'
p6765
g2771
tp6766
I1
s(g2292
S'art'
p6767
tp6768
I1
s(S'face'
p6769
S'snow'
p6770
tp6771
I1
s(S'fold'
p6772
S'street'
p6773
tp6774
I1
s(S'play'
p6775
S'game'
p6776
tp6777
I17
s(S'display'
p6778
g988
tp6779
I1
s(g4140
S'water'
p6780
tp6781
I1
s(S'wear'
p6782
S'play'
p6783
tp6784
I15
s(S'look'
p6785
S'camera'
p6786
tp6787
I3
s(S'hang'
p6788
S'arm'
p6789
tp6790
I1
s(S'run'
p6791
S'park'
p6792
tp6793
I7
s(S'hold'
p6794
g774
tp6795
I6
s(S'stand'
p6796
S'band'
p6797
tp6798
I1
s(S'bend'
p6799
g1934
tp6800
I1
s(S'convert'
p6801
S'goal'
p6802
tp6803
I1
s(S'left'
p6804
g6255
tp6805
I1
s(S'run'
p6806
S'cow'
p6807
tp6808
I3
s(S'investigate'
p6809
S'area'
p6810
tp6811
I1
s(S'play'
p6812
S'roll'
p6813
tp6814
I1
s(S'wear'
p6815
S'sign'
p6816
tp6817
I8
s(S'walk'
p6818
S'baby'
p6819
tp6820
I1
s(g649
S'suit'
p6821
tp6822
I1
s(S'do'
p6823
S'rock'
p6824
tp6825
I7
s(S'hang'
p6826
g2486
tp6827
I1
s(S'hang'
p6828
S'front'
p6829
tp6830
I2
s(S'have'
p6831
S'course'
p6832
tp6833
I1
s(S'welcome'
p6834
S'rock'
p6835
tp6836
I1
s(S'be'
p6837
S'color'
p6838
tp6839
I3
s(g4669
S'table'
p6840
tp6841
I1
s(S'climb'
p6842
S'power'
p6843
tp6844
I1
s(S'sit'
p6845
S'union'
p6846
tp6847
I1
s(g1755
S'beverage'
p6848
tp6849
I2
s(S'wear'
p6850
g5627
tp6851
I1
s(S'walk'
p6852
S'table'
p6853
tp6854
I1
s(g4537
S'joy'
p6855
tp6856
I1
s(g5916
S'country'
p6857
tp6858
I1
s(g5053
S'road'
p6859
tp6860
I2
s(g389
g5121
tp6861
I1
s(S'carry'
p6862
g2945
tp6863
I1
s(g4298
S'assistance'
p6864
tp6865
I1
s(g4056
g700
tp6866
I1
s(g3710
S'ball'
p6867
tp6868
I1
s(S'climb'
p6869
S'snow'
p6870
tp6871
I5
s(g401
g3531
tp6872
I7
s(S'sit'
p6873
g3043
tp6874
I4
s(S'jump'
p6875
S'audience'
p6876
tp6877
I1
s(S'be'
p6878
g6322
tp6879
I1
s(g3814
S'coffee'
p6880
tp6881
I1
s(g827
S'rope'
p6882
tp6883
I2
s(g1806
S'field'
p6884
tp6885
I3
s(S'set'
p6886
S'snow'
p6887
tp6888
I1
s(g3343
g186
tp6889
I1
s(S'hold'
p6890
S'snow'
p6891
tp6892
I4
s(S'paint'
p6893
S'stand'
p6894
tp6895
I1
s(g2119
S'watch'
p6896
tp6897
I1
s(g4425
S'front'
p6898
tp6899
I3
s(g5408
S'show'
p6900
tp6901
I1
s(S'catch'
p6902
S'watch'
p6903
tp6904
I3
s(S'stick'
p6905
S'tire'
p6906
tp6907
I1
s(S'be'
p6908
S'train'
p6909
tp6910
I5
s(S'clear'
p6911
g2677
tp6912
I1
s(S'sit'
p6913
S'view'
p6914
tp6915
I1
s(S'come'
p6916
S'step'
p6917
tp6918
I1
s(g2134
S'ground'
p6919
tp6920
I1
s(S'play'
p6921
S'feet'
p6922
tp6923
I1
s(g3817
S'rain'
p6924
tp6925
I2
s(g5629
S'guy'
p6926
tp6927
I2
s(S'play'
p6928
S'location'
p6929
tp6930
I1
s(S'stick'
p6931
S'play'
p6932
tp6933
I2
s(S'carry'
p6934
g348
tp6935
I5
s(S'jump'
p6936
S'way'
p6937
tp6938
I1
s(S'hold'
p6939
S'inside'
p6940
tp6941
I1
s(g1186
S'seafood'
p6942
tp6943
I1
s(g3499
S'course'
p6944
tp6945
I1
s(g4980
S'face'
p6946
tp6947
I4
s(S'run'
p6948
S'man'
p6949
tp6950
I4
s(S'sit'
p6951
g3815
tp6952
I1
s(S'be'
p6953
S'size'
p6954
tp6955
I2
s(S'be'
p6956
S'entrance'
p6957
tp6958
I2
s(S'run'
p6959
S'floor'
p6960
tp6961
I3
s(g2109
g1134
tp6962
I1
s(g291
S'reach'
p6963
tp6964
I1
s(S'wear'
p6965
S'picture'
p6966
tp6967
I7
s(S'climb'
p6968
g2104
tp6969
I1
s(g2924
S'roll'
p6970
tp6971
I1
s(S'be'
p6972
g3033
tp6973
I1
s(g6315
S'action'
p6974
tp6975
I1
s(S'hold'
p6976
S'wine'
p6977
tp6978
I3
s(g4298
S'game'
p6979
tp6980
I1
s(S'roll'
p6981
S'back'
p6982
tp6983
I2
s(S'hold'
p6984
g5469
tp6985
I2
s(S'run'
p6986
S'show'
p6987
tp6988
I1
s(S'sit'
p6989
S'boy'
p6990
tp6991
I2
s(S'sit'
p6992
S'river'
p6993
tp6994
I2
s(S'hold'
p6995
g5299
tp6996
I1
s(g3811
S'man'
p6997
tp6998
I1
s(g1437
S'way'
p6999
tp7000
I1
s(S'lay'
p7001
S'house'
p7002
tp7003
I1
s(S'play'
p7004
S'woman'
p7005
tp7006
I2
s(S'be'
p7007
g429
tp7008
I7
s(S'stand'
p7009
S'machine'
p7010
tp7011
I1
s(g5046
g2992
tp7012
I1
s(g4360
S'gas'
p7013
tp7014
I1
s(S'run'
p7015
S'drink'
p7016
tp7017
I1
s(g3875
S'child'
p7018
tp7019
I1
s(S'walk'
p7020
g1475
tp7021
I1
s(g2188
S'path'
p7022
tp7023
I1
s(g1763
S'wine'
p7024
tp7025
I4
s(S'be'
p7026
S'logo'
p7027
tp7028
I1
s(g5454
S'train'
p7029
tp7030
I1
s(g6471
S'ball'
p7031
tp7032
I11
s(S'be'
p7033
S'competition'
p7034
tp7035
I4
s(S'wear'
p7036
S'shape'
p7037
tp7038
I2
s(S'wear'
p7039
S'road'
p7040
tp7041
I3
s(S'pull'
p7042
g4030
tp7043
I1
s(S'be'
p7044
g1145
tp7045
I3
s(S'scream'
p7046
S'hair'
p7047
tp7048
I2
s(S'be'
p7049
S'pit'
p7050
tp7051
I1
s(S'hang'
p7052
S'rubber'
p7053
tp7054
I1
s(S'wear'
p7055
S'tire'
p7056
tp7057
I2
s(g1366
S'rest'
p7058
tp7059
I1
s(S'hold'
p7060
S'ball'
p7061
tp7062
I18
s(S'be'
p7063
S'truck'
p7064
tp7065
I5
s(S'cover'
p7066
S'hill'
p7067
tp7068
I4
s(S'fly'
p7069
g3660
tp7070
I1
s(S'support'
p7071
S'boy'
p7072
tp7073
I1
s(S'walk'
p7074
S'woman'
p7075
tp7076
I8
s(g1150
S'race'
p7077
tp7078
I1
s(S'jump'
p7079
S'fall'
p7080
tp7081
I7
s(S'be'
p7082
g1228
tp7083
I4
s(S'wear'
p7084
S'neighborhood'
p7085
tp7086
I1
s(S'take'
p7087
S'man'
p7088
tp7089
I12
s(S'be'
p7090
g2114
tp7091
I1
s(g7090
g1201
tp7092
I1
s(S'play'
p7093
g1613
tp7094
I1
s(g365
g4470
tp7095
I1
s(S'carry'
p7096
S'camera'
p7097
tp7098
I1
s(g404
S'area'
p7099
tp7100
I1
s(S'stand'
p7101
S'girl'
p7102
tp7103
I2
s(S'walk'
p7104
S'railing'
p7105
tp7106
I1
s(S'be'
p7107
S'purse'
p7108
tp7109
I1
s(S'wait'
p7110
S'park'
p7111
tp7112
I1
s(S'pose'
p7113
S'night'
p7114
tp7115
I1
s(g2602
S'net'
p7116
tp7117
I1
s(S'be'
p7118
g6640
tp7119
I2
s(S'chase'
p7120
S'toy'
p7121
tp7122
I6
s(g2053
S'step'
p7123
tp7124
I1
s(S'walk'
p7125
S'center'
p7126
tp7127
I1
s(S'walk'
p7128
S'reflection'
p7129
tp7130
I1
s(S'have'
p7131
S'something'
p7132
tp7133
I6
s(g2485
S'stuff'
p7134
tp7135
I1
s(g6584
g2145
tp7136
I1
s(S'be'
p7137
g497
tp7138
I1
s(g589
S'pack'
p7139
tp7140
I1
s(S'wear'
p7141
g6073
tp7142
I5
s(g6670
g4290
tp7143
I1
s(S'fly'
p7144
g825
tp7145
I1
s(S'paint'
p7146
g6838
tp7147
I1
s(g2452
S'march'
p7148
tp7149
I1
s(S'swim'
p7150
S'park'
p7151
tp7152
I1
s(S'sit'
p7153
g6015
tp7154
I1
s(S'wear'
p7155
S'top'
p7156
tp7157
I1
s(S'be'
p7158
g877
tp7159
I1
s(g121
S'bottle'
p7160
tp7161
I4
s(g3831
g5493
tp7162
I1
s(g5719
g2122
tp7163
I1
s(S'sit'
p7164
S'fancy'
p7165
tp7166
I1
s(g44
S'hair'
p7167
tp7168
I2
s(g1065
S'bench'
p7169
tp7170
I56
s(S'sit'
p7171
S'street'
p7172
tp7173
I5
s(g6248
S'winter'
p7174
tp7175
I1
s(S'has'
p7176
S'hand'
p7177
tp7178
I1
s(g4176
g1957
tp7179
I3
s(S'look'
p7180
g6810
tp7181
I1
s(S'get'
p7182
g2281
tp7183
I1
s(S'complete'
p7184
S'race'
p7185
tp7186
I1
s(S'cover'
p7187
g4350
tp7188
I4
s(S'pick'
p7189
S'board'
p7190
tp7191
I1
s(S'stand'
p7192
S'hair'
p7193
tp7194
I5
s(g3934
S'rubber'
p7195
tp7196
I1
s(g452
g357
tp7197
I1
s(S'hold'
p7198
S'woman'
p7199
tp7200
I11
s(S'swim'
p7201
g1699
tp7202
I1
s(g3556
g5196
tp7203
I1
s(g1203
S'net'
p7204
tp7205
I1
s(g4517
S'eye'
p7206
tp7207
I1
s(g2466
g5070
tp7208
I1
s(g652
S'crowd'
p7209
tp7210
I1
s(S'hold'
p7211
S'bridge'
p7212
tp7213
I1
s(S'stretch'
p7214
S'crowd'
p7215
tp7216
I1
s(S'be'
p7217
S'escort'
p7218
tp7219
I3
s(g5189
S'park'
p7220
tp7221
I4
s(S'try'
p7222
S'camera'
p7223
tp7224
I1
s(S'stand'
p7225
S'front'
p7226
tp7227
I11
s(g1040
g2467
tp7228
I3
s(g4537
S'area'
p7229
tp7230
I1
s(g4445
S'necklace'
p7231
tp7232
I1
s(g916
S'lot'
p7233
tp7234
I1
s(S'make'
p7235
S'sign'
p7236
tp7237
I1
s(g5943
S'race'
p7238
tp7239
I2
s(S'go'
p7240
S'ball'
p7241
tp7242
I4
s(S'are'
p7243
S'row'
p7244
tp7245
I1
s(S'pair'
p7246
S'child'
p7247
tp7248
I1
s(S'drive'
p7249
S'street'
p7250
tp7251
I2
s(g4679
S'arm'
p7252
tp7253
I1
s(g3081
S'touch'
p7254
tp7255
I2
s(S'get'
p7256
S'car'
p7257
tp7258
I1
s(S'concentrate'
p7259
g1504
tp7260
I1
s(S'sit'
p7261
S'body'
p7262
tp7263
I1
s(S'be'
p7264
S'tree'
p7265
tp7266
I46
s(g7074
S'talk'
p7267
tp7268
I2
s(S'wear'
p7269
g4013
tp7270
I1
s(g440
S'goal'
p7271
tp7272
I2
s(S'paint'
p7273
S'toy'
p7274
tp7275
I1
s(S'run'
p7276
g1769
tp7277
I2
s(S'be'
p7278
g5177
tp7279
I5
s(g4919
S'foot'
p7280
tp7281
I3
s(g4943
S'machine'
p7282
tp7283
I1
s(S'be'
p7284
S'man'
p7285
tp7286
I68
s(S'oppose'
p7287
S'team'
p7288
tp7289
I3
s(S'be'
p7290
g4470
tp7291
I1
s(g2488
S'sweater'
p7292
tp7293
I1
s(S'be'
p7294
S'center'
p7295
tp7296
I1
s(S'make'
p7297
S'hill'
p7298
tp7299
I1
s(g5087
S'air'
p7300
tp7301
I62
s(S'celebrate'
p7302
g5799
tp7303
I1
s(S'jump'
p7304
g6080
tp7305
I1
s(g3229
g4192
tp7306
I5
s(S'jump'
p7307
g3463
tp7308
I2
s(S'get'
p7309
S'water'
p7310
tp7311
I4
s(S'be'
p7312
S'counter'
p7313
tp7314
I1
s(S'sit'
p7315
S'round'
p7316
tp7317
I1
s(S'wear'
p7318
g3512
tp7319
I10
s(S'stick'
p7320
S'front'
p7321
tp7322
I1
s(S'make'
p7323
S'face'
p7324
tp7325
I13
s(g1390
S'backyard'
p7326
tp7327
I1
s(S'lay'
p7328
S'air'
p7329
tp7330
I1
s(g4373
S'wings'
p7331
tp7332
I2
s(g1416
S'crowd'
p7333
tp7334
I1
s(S'leave'
p7335
g7252
tp7336
I2
s(S'sit'
p7337
g5132
tp7338
I1
s(S'hear'
p7339
g940
tp7340
I1
s(g522
S'hill'
p7341
tp7342
I7
s(g2782
S'side'
p7343
tp7344
I1
s(S'take'
p7345
S'while'
p7346
tp7347
I1
s(S'perform'
p7348
S'wave'
p7349
tp7350
I1
s(S'drop'
p7351
S'pocket'
p7352
tp7353
I1
s(g1100
g7288
tp7354
I1
s(g1753
S'arm'
p7355
tp7356
I1
s(S'look'
p7357
S'winter'
p7358
tp7359
I1
s(g6442
S'area'
p7360
tp7361
I1
s(g377
g234
tp7362
I1
s(g1945
S'player'
p7363
tp7364
I1
s(S'be'
p7365
g3509
tp7366
I1
s(g5703
S'fall'
p7367
tp7368
I5
s(g2699
g4356
tp7369
I1
s(S'be'
p7370
S'lead'
p7371
tp7372
I2
s(S'be'
p7373
g2039
tp7374
I4
s(S'walk'
p7375
S'pocket'
p7376
tp7377
I1
s(S'wear'
p7378
S'truck'
p7379
tp7380
I1
s(g7302
S'face'
p7381
tp7382
I1
s(S'face'
p7383
S'child'
p7384
tp7385
I1
s(g2455
S'line'
p7386
tp7387
I1
s(g59
S'camera'
p7388
tp7389
I1
s(S'stand'
p7390
S'arm'
p7391
tp7392
I4
s(S'play'
p7393
S'snow'
p7394
tp7395
I29
s(g4792
S'campus'
p7396
tp7397
I2
s(S'be'
p7398
S'round'
p7399
tp7400
I4
s(g5046
S'field'
p7401
tp7402
I1
s(g3484
S'street'
p7403
tp7404
I2
s(g3326
S'front'
p7405
tp7406
I1
s(S'have'
p7407
g1949
tp7408
I1
s(S'sit'
p7409
S'rest'
p7410
tp7411
I1
s(S'drink'
p7412
S'liquid'
p7413
tp7414
I3
s(S'advertise'
p7415
S'track'
p7416
tp7417
I1
s(g2065
S'black'
p7418
tp7419
I1
s(S'return'
p7420
g6648
tp7421
I1
s(g3622
S'cigarette'
p7422
tp7423
I1
s(g1544
S'flag'
p7424
tp7425
I2
s(S'stick'
p7426
g4080
tp7427
I3
s(g3376
S'drink'
p7428
tp7429
I1
s(g4318
g6999
tp7430
I5
s(S'setting'
p7431
g4796
tp7432
I1
s(S'stand'
p7433
S'blow'
p7434
tp7435
I1
s(S'are'
p7436
S'river'
p7437
tp7438
I1
s(S'jump'
p7439
g3384
tp7440
I8
s(S'hold'
p7441
S'street'
p7442
tp7443
I11
s(g5038
S'rock'
p7444
tp7445
I1
s(g3404
S'rock'
p7446
tp7447
I3
s(S'be'
p7448
g2372
tp7449
I1
s(S'be'
p7450
S'barrier'
p7451
tp7452
I3
s(S'ring'
p7453
g2910
tp7454
I1
s(S'pass'
p7455
S'girl'
p7456
tp7457
I1
s(g467
S'equipment'
p7458
tp7459
I2
s(S'crossing'
p7460
S'bridge'
p7461
tp7462
I2
s(g7351
S'game'
p7463
tp7464
I1
s(g5128
S'eye'
p7465
tp7466
I1
s(S'eat'
p7467
g237
tp7468
I4
s(g2163
S'man'
p7469
tp7470
I8
s(S'suspend'
p7471
S'building'
p7472
tp7473
I1
s(S'wear'
p7474
S'flag'
p7475
tp7476
I5
s(S'be'
p7477
g7352
tp7478
I1
s(g7420
g5570
tp7479
I1
s(S'be'
p7480
S'label'
p7481
tp7482
I2
s(S'appear'
p7483
S'wave'
p7484
tp7485
I1
s(g2693
S'sign'
p7486
tp7487
I4
s(g1733
S'match'
p7488
tp7489
I1
s(g1449
g4533
tp7490
I1
s(S'stand'
p7491
S'hill'
p7492
tp7493
I1
s(S'crowded'
p7494
S'city'
p7495
tp7496
I2
s(g434
g697
tp7497
I2
s(S'be'
p7498
S'deck'
p7499
tp7500
I3
s(S'pick'
p7501
S'store'
p7502
tp7503
I1
s(S'sit'
p7504
S'pool'
p7505
tp7506
I4
s(S'pose'
p7507
S'boy'
p7508
tp7509
I1
s(g1989
S'field'
p7510
tp7511
I1
s(S'stick'
p7512
S'look'
p7513
tp7514
I2
s(S'break'
p7515
S'fight'
p7516
tp7517
I1
s(S'curb'
p7518
S'track'
p7519
tp7520
I1
s(S'wear'
p7521
g2166
tp7522
I1
s(S'put'
p7523
S'nose'
p7524
tp7525
I1
s(g3622
S'smoke'
p7526
tp7527
I1
s(S'hold'
p7528
S'arm'
p7529
tp7530
I4
s(S'learn'
p7531
S'art'
p7532
tp7533
I1
s(g2460
S'officer'
p7534
tp7535
I2
s(S'hold'
p7536
S'ground'
p7537
tp7538
I1
s(S'wear'
p7539
g7190
tp7540
I1
s(g6782
g39
tp7541
I3
s(S'walk'
p7542
S'body'
p7543
tp7544
I4
s(S'use'
p7545
S'sleep'
p7546
tp7547
I1
s(S'be'
p7548
S'castle'
p7549
tp7550
I1
s(g758
g6797
tp7551
I2
s(S'treat'
p7552
S'water'
p7553
tp7554
I1
s(g2737
g3030
tp7555
I1
s(S'watch'
p7556
S'child'
p7557
tp7558
I4
s(g1579
S'master'
p7559
tp7560
I1
s(S'appear'
p7561
g969
tp7562
I1
s(S'play'
p7563
g1510
tp7564
I1
s(g2301
S'ball'
p7565
tp7566
I2
s(S'be'
p7567
S'photograph'
p7568
tp7569
I11
s(S'wear'
p7570
S'music'
p7571
tp7572
I1
s(S'sit'
p7573
S'metal'
p7574
tp7575
I2
s(S'hold'
p7576
S'park'
p7577
tp7578
I2
s(S'wear'
p7579
S'mirror'
p7580
tp7581
I1
s(g966
g1189
tp7582
I1
s(S'wear'
p7583
g4066
tp7584
I1
s(g2773
S'thing'
p7585
tp7586
I1
s(S'do'
p7587
S'set'
p7588
tp7589
I2
s(S'stand'
p7590
g5925
tp7591
I2
s(S'hold'
p7592
S'cotton'
p7593
tp7594
I1
s(S'sit'
p7595
S'side'
p7596
tp7597
I3
s(S'be'
p7598
S'buck'
p7599
tp7600
I1
s(S'be'
p7601
g1583
tp7602
I2
s(S'sit'
p7603
S'place'
p7604
tp7605
I1
s(S'be'
p7606
S'scale'
p7607
tp7608
I2
s(S'are'
p7609
g893
tp7610
I1
s(g5908
S'family'
p7611
tp7612
I1
s(g3370
S'building'
p7613
tp7614
I1
s(g3037
S'dollar'
p7615
tp7616
I2
s(S'be'
p7617
S'plastic'
p7618
tp7619
I1
s(S'hold'
p7620
S'baby'
p7621
tp7622
I17
s(S'stand'
p7623
S'look'
p7624
tp7625
I5
s(g1567
S'life'
p7626
tp7627
I1
s(S'handle'
p7628
S'air'
p7629
tp7630
I1
s(S'start'
p7631
S'game'
p7632
tp7633
I1
s(S'burn'
p7634
S'field'
p7635
tp7636
I1
s(g2664
S'couple'
p7637
tp7638
I1
s(g7284
S'fall'
p7639
tp7640
I14
s(S'wear'
p7641
S'boy'
p7642
tp7643
I2
s(g2751
S'shoulder'
p7644
tp7645
I1
s(g1621
S'park'
p7646
tp7647
I2
s(S'pose'
p7648
S'prayer'
p7649
tp7650
I1
s(g6400
S'pipe'
p7651
tp7652
I1
s(S'bounce'
p7653
S'toy'
p7654
tp7655
I2
s(g6278
g5461
tp7656
I1
s(g4050
S'board'
p7657
tp7658
I1
s(g476
g7386
tp7659
I5
s(g2713
g438
tp7660
I2
s(S'be'
p7661
g5463
tp7662
I1
s(g3496
S'seat'
p7663
tp7664
I2
s(S'wear'
p7665
S'turn'
p7666
tp7667
I1
s(S'be'
p7668
S'farm'
p7669
tp7670
I3
s(S'carry'
p7671
S'newspaper'
p7672
tp7673
I2
s(S'stick'
p7674
S'face'
p7675
tp7676
I1
s(S'assist'
p7677
S'man'
p7678
tp7679
I1
s(S'suspend'
p7680
g6780
tp7681
I1
s(S'be'
p7682
S'sheep'
p7683
tp7684
I1
s(S'be'
p7685
g4088
tp7686
I3
s(g5046
S'tree'
p7687
tp7688
I1
s(S'eat'
p7689
S'piece'
p7690
tp7691
I1
s(g3147
g6130
tp7692
I4
s(S'lay'
p7693
S'cement'
p7694
tp7695
I1
s(g4032
S'hair'
p7696
tp7697
I1
s(S'walk'
p7698
g523
tp7699
I1
s(g1823
S'adult'
p7700
tp7701
I1
s(g3743
S'steel'
p7702
tp7703
I1
s(g1632
S'camera'
p7704
tp7705
I1
s(g6599
S'arm'
p7706
tp7707
I1
s(S'stand'
p7708
g5739
tp7709
I1
s(S'be'
p7710
S'outside'
p7711
tp7712
I4
s(S'stripped'
p7713
S'arm'
p7714
tp7715
I1
s(S'carry'
p7716
S'head'
p7717
tp7718
I1
s(S'have'
p7719
g2832
tp7720
I3
s(g583
S'city'
p7721
tp7722
I1
s(g2887
S'hand'
p7723
tp7724
I2
s(S'follow'
p7725
S'girl'
p7726
tp7727
I1
s(g5128
S'swing'
p7728
tp7729
I2
s(S'run'
p7730
S'motion'
p7731
tp7732
I1
s(g3132
g5157
tp7733
I1
s(S'jump'
p7734
S'rain'
p7735
tp7736
I1
s(g746
S'blow'
p7737
tp7738
I1
s(g3634
S'race'
p7739
tp7740
I1
s(S'stand'
p7741
S'formation'
p7742
tp7743
I2
s(S'get'
p7744
S'something'
p7745
tp7746
I1
s(g2160
S'man'
p7747
tp7748
I1
s(S'swim'
p7749
S'piece'
p7750
tp7751
I1
s(g4535
S'sign'
p7752
tp7753
I2
s(g6403
g2506
tp7754
I3
s(g3001
S'game'
p7755
tp7756
I3
s(S'pick'
p7757
g6497
tp7758
I4
s(S'get'
p7759
S'hair'
p7760
tp7761
I3
s(g3517
S'cloud'
p7762
tp7763
I1
s(S'stand'
p7764
S'middle'
p7765
tp7766
I2
s(S'climb'
p7767
g4843
tp7768
I1
s(S'be'
p7769
g2036
tp7770
I2
s(S'have'
p7771
g7298
tp7772
I1
s(g4422
S'cut'
p7773
tp7774
I1
s(S'make'
p7775
g6363
tp7776
I1
s(S'sit'
p7777
S'tea'
p7778
tp7779
I1
s(g592
g5603
tp7780
I1
s(g1520
S'stone'
p7781
tp7782
I1
s(g1313
S'swing'
p7783
tp7784
I4
s(S'wait'
p7785
S'bench'
p7786
tp7787
I1
s(S'stand'
p7788
S'house'
p7789
tp7790
I1
s(g1936
S'line'
p7791
tp7792
I1
s(S'wear'
p7793
g7010
tp7794
I1
s(g3628
g5621
tp7795
I1
s(S'stand'
p7796
g1827
tp7797
I2
s(S'wear'
p7798
S'slide'
p7799
tp7800
I8
s(S'colored'
p7801
g5627
tp7802
I1
s(S'cover'
p7803
S'stand'
p7804
tp7805
I1
s(g4606
S'black'
p7806
tp7807
I6
s(S'swim'
p7808
S'table'
p7809
tp7810
I1
s(S'walk'
p7811
S'stand'
p7812
tp7813
I2
s(S'be'
p7814
S'hand'
p7815
tp7816
I38
s(S'perform'
p7817
S'child'
p7818
tp7819
I2
s(g6242
S'police'
p7820
tp7821
I1
s(S'swim'
p7822
S'water'
p7823
tp7824
I33
s(S'go'
p7825
g4098
tp7826
I1
s(g2224
g2209
tp7827
I1
s(g6828
S'rock'
p7828
tp7829
I5
s(g490
S'game'
p7830
tp7831
I1
s(S'wear'
p7832
S'book'
p7833
tp7834
I4
s(S'pass'
p7835
S'group'
p7836
tp7837
I1
s(S'discuss'
p7838
S'game'
p7839
tp7840
I1
s(g4746
g6047
tp7841
I1
s(S'give'
p7842
S'sign'
p7843
tp7844
I2
s(g6593
S'move'
p7845
tp7846
I1
s(g1942
S'slide'
p7847
tp7848
I1
s(S'sell'
p7849
g6371
tp7850
I1
s(S'read'
p7851
g2802
tp7852
I1
s(S'be'
p7853
S'score'
p7854
tp7855
I1
s(S'look'
p7856
S'way'
p7857
tp7858
I2
s(g6834
S'sign'
p7859
tp7860
I1
s(g255
S'look'
p7861
tp7862
I1
s(S'be'
p7863
S'use'
p7864
tp7865
I1
s(g1396
S'girl'
p7866
tp7867
I6
s(g513
S'outside'
p7868
tp7869
I1
s(S'look'
p7870
S'town'
p7871
tp7872
I1
s(S'wear'
p7873
S'body'
p7874
tp7875
I4
s(S'be'
p7876
S'child'
p7877
tp7878
I19
s(S'be'
p7879
S'girl'
p7880
tp7881
I32
s(S'make'
p7882
S'path'
p7883
tp7884
I1
s(g3205
S'someone'
p7885
tp7886
I1
s(g188
S'sign'
p7887
tp7888
I1
s(g2815
g3151
tp7889
I1
s(g1664
g3432
tp7890
I2
s(S'jump'
p7891
S'slide'
p7892
tp7893
I6
s(S'carry'
p7894
S'field'
p7895
tp7896
I1
s(g4012
S'fight'
p7897
tp7898
I3
s(S'trimmed'
p7899
S'front'
p7900
tp7901
I1
s(S'be'
p7902
g7282
tp7903
I3
s(S'pair'
p7904
S'woman'
p7905
tp7906
I1
s(S'jump'
p7907
S'area'
p7908
tp7909
I5
s(g4772
S'front'
p7910
tp7911
I3
s(S'walk'
p7912
S'white'
p7913
tp7914
I2
s(S'climb'
p7915
S'step'
p7916
tp7917
I2
s(g365
g6004
tp7918
I1
s(g6487
S'equipment'
p7919
tp7920
I1
s(S'be'
p7921
g24
tp7922
I3
s(S'sit'
p7923
g7524
tp7924
I1
s(g6643
g345
tp7925
I1
s(S'catch'
p7926
S'pool'
p7927
tp7928
I4
s(g7365
g5222
tp7929
I4
s(S'wear'
p7930
S'football'
p7931
tp7932
I2
s(g264
g738
tp7933
I1
s(S'be'
p7934
S'money'
p7935
tp7936
I3
s(g5607
S'character'
p7937
tp7938
I1
s(S'wear'
p7939
S'set'
p7940
tp7941
I2
s(S'chase'
p7942
g7683
tp7943
I2
s(S'jump'
p7944
g7711
tp7945
I1
s(S'push'
p7946
S'truck'
p7947
tp7948
I1
s(S'walk'
p7949
g7717
tp7950
I1
s(S'play'
p7951
S'manner'
p7952
tp7953
I2
s(S'face'
p7954
S'man'
p7955
tp7956
I1
s(S'come'
p7957
S'land'
p7958
tp7959
I1
s(S'bend'
p7960
S'ball'
p7961
tp7962
I1
s(S'hold'
p7963
S'equipment'
p7964
tp7965
I1
s(g2540
S'bat'
p7966
tp7967
I1
s(S'draw'
p7968
g3932
tp7969
I1
s(S'climb'
p7970
g2086
tp7971
I3
s(S'have'
p7972
S'microphone'
p7973
tp7974
I1
s(S'give'
p7975
S'face'
p7976
tp7977
I1
s(S'leave'
p7978
g2957
tp7979
I1
s(S'pull'
p7980
S'restaurant'
p7981
tp7982
I1
s(S'wait'
p7983
S'wave'
p7984
tp7985
I1
s(S'be'
p7986
S'glass'
p7987
tp7988
I5
s(S'gather'
p7989
S'front'
p7990
tp7991
I1
s(g5446
S'step'
p7992
tp7993
I1
s(S'see'
p7994
S'window'
p7995
tp7996
I2
s(S'fill'
p7997
S'ball'
p7998
tp7999
I1
s(g1579
S'play'
p8000
tp8001
I1
s(g6063
S'child'
p8002
tp8003
I1
s(S'take'
p8004
S'road'
p8005
tp8006
I1
s(S'play'
p8007
S'street'
p8008
tp8009
I4
s(g1739
S'barrel'
p8010
tp8011
I1
s(g4183
S'slide'
p8012
tp8013
I2
s(S'jump'
p8014
g6458
tp8015
I1
s(S'walk'
p8016
S'plant'
p8017
tp8018
I1
s(g2930
S'clothing'
p8019
tp8020
I1
s(g5632
S'book'
p8021
tp8022
I8
s(S'bend'
p8023
g7678
tp8024
I1
s(S'be'
p8025
S'overhead'
p8026
tp8027
I1
s(g1817
g2200
tp8028
I1
s(g3326
S'water'
p8029
tp8030
I1
s(S'walk'
p8031
S'camera'
p8032
tp8033
I6
s(S'stand'
p8034
S'sky'
p8035
tp8036
I2
s(S'pose'
p8037
S'camera'
p8038
tp8039
I21
s(S'be'
p8040
g908
tp8041
I1
s(g3665
S'drink'
p8042
tp8043
I1
s(g7042
S'life'
p8044
tp8045
I1
s(S'left'
p8046
S'side'
p8047
tp8048
I1
s(S'gather'
p8049
S'casino'
p8050
tp8051
I1
s(S'close'
p8052
g7537
tp8053
I1
s(S'stand'
p8054
S'device'
p8055
tp8056
I1
s(S'ring'
p8057
S'toy'
p8058
tp8059
I1
s(g2787
g4983
tp8060
I3
s(S'get'
p8061
S'path'
p8062
tp8063
I1
s(S'jump'
p8064
g6096
tp8065
I2
s(g1893
S'man'
p8066
tp8067
I2
s(g6557
S'look'
p8068
tp8069
I1
s(g1183
g1216
tp8070
I2
s(S'help'
p8071
S'blow'
p8072
tp8073
I2
s(g3315
S'phone'
p8074
tp8075
I1
s(S'enclosed'
p8076
S'field'
p8077
tp8078
I1
s(S'be'
p8079
S'hotel'
p8080
tp8081
I1
s(g5252
S'person'
p8082
tp8083
I1
s(S'drive'
p8084
S'vehicle'
p8085
tp8086
I1
s(S'be'
p8087
g5323
tp8088
I1
s(S'stand'
p8089
S'window'
p8090
tp8091
I3
s(S'be'
p8092
g2517
tp8093
I172
s(g5446
S'adult'
p8094
tp8095
I1
s(S'wear'
p8096
S'event'
p8097
tp8098
I1
s(g6873
g6759
tp8099
I2
s(g1183
g1257
tp8100
I1
s(S'sit'
p8101
S'hair'
p8102
tp8103
I1
s(g35
S'hand'
p8104
tp8105
I2
s(S'tackle'
p8106
S'game'
p8107
tp8108
I2
s(S'be'
p8109
S'cigarette'
p8110
tp8111
I4
s(g215
S'clothes'
p8112
tp8113
I1
s(g976
S'man'
p8114
tp8115
I2
s(S'perform'
p8116
S'park'
p8117
tp8118
I3
s(S'face'
p8119
S'toy'
p8120
tp8121
I1
s(g115
g5925
tp8122
I1
s(S'run'
p8123
S'group'
p8124
tp8125
I1
s(g4626
S'look'
p8126
tp8127
I1
s(S'take'
p8128
S'day'
p8129
tp8130
I1
s(g6493
S'base'
p8131
tp8132
I2
s(S'have'
p8133
S'arm'
p8134
tp8135
I9
s(S'be'
p8136
g2497
tp8137
I22
s(S'wear'
p8138
S'race'
p8139
tp8140
I6
s(S'sit'
p8141
S'box'
p8142
tp8143
I3
s(S'be'
p8144
S'park'
p8145
tp8146
I39
s(S'jump'
p8147
S'bar'
p8148
tp8149
I3
s(g7545
S'ground'
p8150
tp8151
I1
s(g7838
S'fan'
p8152
tp8153
I1
s(S'be'
p8154
g6
tp8155
I1
s(g6266
S'person'
p8156
tp8157
I1
s(g1753
S'woman'
p8158
tp8159
I1
s(S'hold'
p8160
S'stuff'
p8161
tp8162
I4
s(g5835
g7585
tp8163
I1
s(g1440
S'lot'
p8164
tp8165
I1
s(S'writing'
p8166
S'something'
p8167
tp8168
I1
s(S'follow'
p8169
S'woman'
p8170
tp8171
I2
s(g476
S'circle'
p8172
tp8173
I1
s(g5403
S'person'
p8174
tp8175
I4
s(g2579
S'child'
p8176
tp8177
I2
s(g3573
g7857
tp8178
I1
s(S'be'
p8179
g6125
tp8180
I1
s(g7590
g3011
tp8181
I2
s(g6696
S'slide'
p8182
tp8183
I1
s(S'give'
p8184
S'look'
p8185
tp8186
I1
s(S'hold'
p8187
g1545
tp8188
I1
s(g7494
S'area'
p8189
tp8190
I1
s(g3024
g6688
tp8191
I6
s(S'cover'
p8192
g69
tp8193
I1
s(S'launch'
p8194
S'pool'
p8195
tp8196
I1
s(S'be'
p8197
g4184
tp8198
I1
s(g4289
g3728
tp8199
I1
s(S'make'
p8200
S'leap'
p8201
tp8202
I1
s(S'have'
p8203
S'ground'
p8204
tp8205
I2
s(S'tackle'
p8206
S'football'
p8207
tp8208
I2
s(S'combat'
p8209
S'street'
p8210
tp8211
I1
s(g6310
S'cow'
p8212
tp8213
I1
s(S'stand'
p8214
S'deck'
p8215
tp8216
I1
s(g1676
S'play'
p8217
tp8218
I1
s(S'sit'
p8219
S'snow'
p8220
tp8221
I4
s(S'catch'
p8222
g5820
tp8223
I1
s(g613
S'man'
p8224
tp8225
I11
s(S'sit'
p8226
S'feet'
p8227
tp8228
I1
s(g6627
S'drink'
p8229
tp8230
I5
s(S'take'
p8231
g1195
tp8232
I1
s(g3284
S'leap'
p8233
tp8234
I1
s(S'be'
p8235
S'picture'
p8236
tp8237
I31
s(g691
S'game'
p8238
tp8239
I2
s(S'play'
p8240
S'football'
p8241
tp8242
I3
s(S'do'
p8243
S'metal'
p8244
tp8245
I1
s(g2519
S'park'
p8246
tp8247
I1
s(g2432
g1008
tp8248
I1
s(S'sit'
p8249
S'field'
p8250
tp8251
I5
s(g5204
S'snow'
p8252
tp8253
I1
s(S'hold'
p8254
S'balloon'
p8255
tp8256
I4
s(S'have'
p8257
S'play'
p8258
tp8259
I2
s(S'wear'
p8260
g6846
tp8261
I1
s(S'stick'
p8262
g7895
tp8263
I1
s(g5360
S'step'
p8264
tp8265
I1
s(S'stand'
p8266
S'train'
p8267
tp8268
I1
s(g1832
S'band'
p8269
tp8270
I1
s(S'sit'
p8271
g7481
tp8272
I1
s(g2667
S'spot'
p8273
tp8274
I3
s(S'give'
p8275
S'boy'
p8276
tp8277
I1
s(g2242
S'something'
p8278
tp8279
I1
s(S'climb'
p8280
S'side'
p8281
tp8282
I3
s(g5839
g3424
tp8283
I1
s(g71
g2175
tp8284
I51
s(g1520
S'arm'
p8285
tp8286
I1
s(S'follow'
p8287
S'number'
p8288
tp8289
I2
s(S'hit'
p8290
g2030
tp8291
I1
s(S'hold'
p8292
S'person'
p8293
tp8294
I8
s(S'jump'
p8295
g1975
tp8296
I1
s(g3958
S'front'
p8297
tp8298
I1
s(g7153
S'plant'
p8299
tp8300
I1
s(g1695
g3827
tp8301
I4
s(g3013
S'stuff'
p8302
tp8303
I1
s(g1777
g7469
tp8304
I1
s(g2111
S'tree'
p8305
tp8306
I2
s(S'sit'
p8307
S'hand'
p8308
tp8309
I4
s(S'look'
p8310
S'water'
p8311
tp8312
I6
s(g2602
S'area'
p8313
tp8314
I1
s(g95
g3551
tp8315
I1
s(S'walk'
p8316
S'light'
p8317
tp8318
I1
s(S'lay'
p8319
S'side'
p8320
tp8321
I1
s(g1085
g2735
tp8322
I2
s(g5938
S'stage'
p8323
tp8324
I1
s(g137
g5239
tp8325
I3
s(S'have'
p8326
S'rise'
p8327
tp8328
I1
s(g951
S'ball'
p8329
tp8330
I2
s(S'prepare'
p8331
S'wave'
p8332
tp8333
I1
s(g4824
S'eye'
p8334
tp8335
I1
s(g2820
S'water'
p8336
tp8337
I4
s(S'catch'
p8338
S'game'
p8339
tp8340
I2
s(g4891
S'boy'
p8341
tp8342
I2
s(S'run'
p8343
S'look'
p8344
tp8345
I1
s(S'pose'
p8346
S'photograph'
p8347
tp8348
I2
s(S'say'
p8349
g6259
tp8350
I1
s(S'run'
p8351
S'course'
p8352
tp8353
I10
s(S'push'
p8354
S'baby'
p8355
tp8356
I2
s(S'walk'
p8357
g1516
tp8358
I1
s(g560
S'picture'
p8359
tp8360
I2
s(S'be'
p8361
g1305
tp8362
I2
s(g7515
S'game'
p8363
tp8364
I1
s(S'stick'
p8365
S'owner'
p8366
tp8367
I2
s(S'be'
p8368
S'wine'
p8369
tp8370
I2
s(g104
S'life'
p8371
tp8372
I6
s(S'stand'
p8373
S'traffic'
p8374
tp8375
I1
s(g2556
g1328
tp8376
I2
s(g3331
S'chicago'
p8377
tp8378
I1
s(S'tilt'
p8379
S'head'
p8380
tp8381
I1
s(S'wear'
p8382
S'child'
p8383
tp8384
I1
s(S'participate'
p8385
S'rock'
p8386
tp8387
I1
s(g8192
g4414
tp8388
I1
s(g4037
S'stone'
p8389
tp8390
I2
s(S'pull'
p8391
S'cow'
p8392
tp8393
I1
s(S'jump'
p8394
S'cattle'
p8395
tp8396
I1
s(g3859
S'city'
p8397
tp8398
I1
s(S'jump'
p8399
S'snow'
p8400
tp8401
I15
s(S'wear'
p8402
S'path'
p8403
tp8404
I5
s(S'be'
p8405
g3384
tp8406
I32
s(g5636
S'park'
p8407
tp8408
I2
s(S'take'
p8409
g3061
tp8410
I1
s(g3796
S'hand'
p8411
tp8412
I2
s(g1399
S'middle'
p8413
tp8414
I1
s(S'hold'
p8415
g2771
tp8416
I1
s(g7814
S'court'
p8417
tp8418
I4
s(g583
S'street'
p8419
tp8420
I1
s(S'try'
p8421
g3476
tp8422
I1
s(g3018
g3494
tp8423
I2
s(g7603
S'apple'
p8424
tp8425
I3
s(S'wear'
p8426
g1234
tp8427
I1
s(S'run'
p8428
g2269
tp8429
I1
s(S'pull'
p8430
S'inside'
p8431
tp8432
I1
s(S'wear'
p8433
S'weather'
p8434
tp8435
I1
s(S'begin'
p8436
S'run'
p8437
tp8438
I1
s(g5966
S'foot'
p8439
tp8440
I2
s(S'hold'
p8441
S'move'
p8442
tp8443
I1
s(g4076
S'search'
p8444
tp8445
I1
s(S'play'
p8446
S'bottle'
p8447
tp8448
I2
s(g6112
S'slide'
p8449
tp8450
I1
s(g4961
g24
tp8451
I1
s(S'carry'
p8452
S'rope'
p8453
tp8454
I2
s(g3962
S'bench'
p8455
tp8456
I1
s(g3168
S'car'
p8457
tp8458
I3
s(g392
g3954
tp8459
I1
s(g3677
S'team'
p8460
tp8461
I1
s(S'enjoy'
p8462
S'pool'
p8463
tp8464
I1
s(S'bounce'
p8465
S'house'
p8466
tp8467
I5
s(S'engage'
p8468
S'art'
p8469
tp8470
I1
s(S'wear'
p8471
S'blow'
p8472
tp8473
I4
s(S'break'
p8474
g8005
tp8475
I1
s(g2664
S'front'
p8476
tp8477
I1
s(g785
g6118
tp8478
I1
s(g7259
g5596
tp8479
I1
s(g6269
S'balance'
p8480
tp8481
I1
s(S'catch'
p8482
g3313
tp8483
I5
s(g2383
S'man'
p8484
tp8485
I1
s(S'be'
p8486
g6530
tp8487
I4
s(S'be'
p8488
S'shot'
p8489
tp8490
I2
s(g7814
S'right'
p8491
tp8492
I2
s(S'walk'
p8493
S'night'
p8494
tp8495
I3
s(g1010
g2512
tp8496
I1
s(S'lift'
p8497
S'girl'
p8498
tp8499
I1
s(g2499
S'something'
p8500
tp8501
I1
s(S'paint'
p8502
g6264
tp8503
I1
s(S'have'
p8504
g4951
tp8505
I1
s(S'be'
p8506
g677
tp8507
I36
s(g873
S'practice'
p8508
tp8509
I1
s(g4626
S'shop'
p8510
tp8511
I1
s(S'be'
p8512
g997
tp8513
I1
s(g3890
g7534
tp8514
I1
s(S'look'
p8515
S'house'
p8516
tp8517
I1
s(S'pull'
p8518
S'front'
p8519
tp8520
I1
s(g5198
S'fall'
p8521
tp8522
I1
s(g889
S'pool'
p8523
tp8524
I1
s(g2466
g4150
tp8525
I4
s(S'stretch'
p8526
g2262
tp8527
I1
s(g6445
S'bar'
p8528
tp8529
I5
s(S'hold'
p8530
S'pool'
p8531
tp8532
I6
s(g6934
g5989
tp8533
I2
s(S'walk'
p8534
S'door'
p8535
tp8536
I1
s(g2903
S'hand'
p8537
tp8538
I2
s(g6342
S'bridge'
p8539
tp8540
I1
s(g4228
g4624
tp8541
I1
s(S'be'
p8542
g5064
tp8543
I38
s(S'share'
p8544
S'toast'
p8545
tp8546
I1
s(S'get'
p8547
S'snow'
p8548
tp8549
I2
s(S'perform'
p8550
S'stand'
p8551
tp8552
I1
s(S'be'
p8553
g6722
tp8554
I1
s(g3917
S'line'
p8555
tp8556
I1
s(S'bend'
p8557
g3390
tp8558
I1
s(g6251
S'window'
p8559
tp8560
I12
s(S'jump'
p8561
S'something'
p8562
tp8563
I4
s(S'be'
p8564
S'house'
p8565
tp8566
I13
s(g118
S'street'
p8567
tp8568
I50
s(g7214
S'front'
p8569
tp8570
I1
s(S'wear'
p8571
S'thing'
p8572
tp8573
I1
s(g2056
S'cow'
p8574
tp8575
I1
s(S'walk'
p8576
S'purse'
p8577
tp8578
I1
s(g516
S'street'
p8579
tp8580
I1
s(S'wear'
p8581
g538
tp8582
I1
s(g3027
g6576
tp8583
I1
s(g7545
S'man'
p8584
tp8585
I1
s(S'be'
p8586
S'mix'
p8587
tp8588
I2
s(S'watch'
p8589
S'look'
p8590
tp8591
I1
s(S'wear'
p8592
g5329
tp8593
I2
s(S'wear'
p8594
g4115
tp8595
I2
s(g1879
S'front'
p8596
tp8597
I1
s(g6069
S'man'
p8598
tp8599
I2
s(S'go'
p8600
S'spot'
p8601
tp8602
I1
s(g4842
S'boy'
p8603
tp8604
I1
s(g14
g7529
tp8605
I1
s(S'play'
p8606
S'white'
p8607
tp8608
I1
s(S'stand'
p8609
g4127
tp8610
I1
s(g155
S'painting'
p8611
tp8612
I1
s(S'wear'
p8613
g6288
tp8614
I1
s(S'prepare'
p8615
g2030
tp8616
I1
s(S'pull'
p8617
S'water'
p8618
tp8619
I1
s(S'wear'
p8620
S'fall'
p8621
tp8622
I1
s(g682
g2527
tp8623
I1
s(g4056
S'head'
p8624
tp8625
I1
s(S'sit'
p8626
g2095
tp8627
I3
s(S'walk'
p8628
S'arm'
p8629
tp8630
I2
s(g3081
S'sweater'
p8631
tp8632
I7
s(g6448
S'man'
p8633
tp8634
I3
s(g3231
S'sweater'
p8635
tp8636
I5
s(g7926
S'football'
p8637
tp8638
I1
s(S'take'
p8639
S'outside'
p8640
tp8641
I1
s(g2825
g1746
tp8642
I3
s(g8200
S'faithful'
p8643
tp8644
I1
s(g3150
g2816
tp8645
I1
s(g1843
S'guy'
p8646
tp8647
I1
s(S'perform'
p8648
S'lot'
p8649
tp8650
I1
s(S'walk'
p8651
S'pool'
p8652
tp8653
I1
s(g815
g7877
tp8654
I3
s(S'stick'
p8655
g2181
tp8656
I1
s(g7026
g1080
tp8657
I1
s(S'be'
p8658
S'station'
p8659
tp8660
I3
s(S'set'
p8661
S'supplies'
p8662
tp8663
I1
s(S'sit'
p8664
S'day'
p8665
tp8666
I1
s(g2334
S'ball'
p8667
tp8668
I1
s(S'wear'
p8669
S'baby'
p8670
tp8671
I3
stp8672
Rp8673
.